gplink-1.2.0 #980 (Jul 31 2013)
Copyright (c) 1998-2013 gputils project
Listing File Generated: 6-9-2014  00:37:29
 
 
Address  Value    Disassembly              Source
-------  -----    -----------              ------
                                           ;--------------------------------------------------------
                                           ; File Created by SDCC : free open source ANSI-C Compiler
                                           ; Version 3.4.0 #8981 (Jun  6 2014) (Mac OS X x86_64)
                                           ; This file was generated Mon Jun  9 00:37:29 2014
                                           ;--------------------------------------------------------
                                           ; PIC16 port for the Microchip 16-bit core micros
                                           ;--------------------------------------------------------
                                           	list	p=18f2550
                                           	radix	dec
                                           	CONFIG	PLLDIV=2
                                           	CONFIG	CPUDIV=OSC1_PLL2
                                           	CONFIG	USBDIV=1
                                           	CONFIG	FOSC=INTOSC_XT
                                           	CONFIG	FCMEN=OFF
                                           	CONFIG	IESO=OFF
                                           	CONFIG	PWRT=OFF
                                           	CONFIG	BOR=OFF
                                           	CONFIG	BORV=3
                                           	CONFIG	VREGEN=OFF
                                           	CONFIG	WDT=OFF
                                           	CONFIG	WDTPS=32768
                                           	CONFIG	CCP2MX=ON
                                           	CONFIG	PBADEN=OFF
                                           	CONFIG	LPT1OSC=OFF
                                           	CONFIG	MCLRE=ON
                                           	CONFIG	STVREN=ON
                                           	CONFIG	LVP=ON
                                           	CONFIG	XINST=OFF
                                           	CONFIG	CP0=OFF
                                           	CONFIG	CP1=OFF
                                           	CONFIG	CP2=OFF
                                           	CONFIG	CP3=OFF
                                           	CONFIG	CPB=OFF
                                           	CONFIG	CPD=OFF
                                           	CONFIG	WRT0=OFF
                                           	CONFIG	WRT1=OFF
                                           	CONFIG	WRT2=OFF
                                           	CONFIG	WRT3=OFF
                                           	CONFIG	WRTC=OFF
                                           	CONFIG	WRTB=OFF
                                           	CONFIG	WRTD=OFF
                                           	CONFIG	EBTR0=OFF
                                           	CONFIG	EBTR1=OFF
                                           	CONFIG	EBTR2=OFF
                                           	CONFIG	EBTR3=OFF
                                           	CONFIG	EBTRB=OFF
                                           
                                           
                                           ;--------------------------------------------------------
                                           ; public variables in this module
                                           ;--------------------------------------------------------
                                           	global	_c
                                           	global	_debug_buffer
                                           	global	_sleep_ms
                                           	global	_init_system
                                           	global	_my_usart_open
                                           	global	_reverse
                                           	global	_testo_valid_err_corr
                                           	global	_testo_ir_enable
                                           	global	_testo_ir_disable
                                           	global	_rs232_tx_enable
                                           	global	_rs232_tx_disable
                                           	global	_rs232_rx_enable
                                           	global	_rs232_rx_disable
                                           	global	_rs232_tx_byte
                                           	global	_fsk_tx_enable
                                           	global	_fsk_tx_disable
                                           	global	_fsk_rx_enable
                                           	global	_fsk_rx_disable
                                           	global	_send_fsk_high
                                           	global	_send_fsk_low
                                           	global	_fsk_tx_byte
                                           	global	_fifo_in_use
                                           	global	_fifo_put
                                           	global	_fifo_get
                                           	global	_fifo_snoop
                                           	global	_flash_led
                                           	global	__debug
                                           	global	__debug2
                                           	global	_timer_0
                                           	global	_last_timer_0
                                           	global	_timer_1_ms
                                           	global	_timer0_reload
                                           	global	_fifo_head
                                           	global	_fifo_tail
                                           	global	_fifo_buffer_0
                                           	global	_fifo_buffer_1
                                           	global	_fifo_buffer_2
                                           	global	_fifo_buffer_3
                                           	global	_codec_type
                                           	global	_led_flash
                                           	global	_testo_ir_proto
                                           	global	_rs232_proto
                                           	global	_fsk_proto
                                           	global	_main
                                           
                                           ;--------------------------------------------------------
                                           ; extern variables in this module
                                           ;--------------------------------------------------------
                                           	extern	__gptrput1
                                           	extern	_UFRMLbits
                                           	extern	_UFRMHbits
                                           	extern	_UIRbits
                                           	extern	_UIEbits
                                           	extern	_UEIRbits
                                           	extern	_UEIEbits
                                           	extern	_USTATbits
                                           	extern	_UCONbits
                                           	extern	_UADDRbits
                                           	extern	_UCFGbits
                                           	extern	_UEP0bits
                                           	extern	_UEP1bits
                                           	extern	_UEP2bits
                                           	extern	_UEP3bits
                                           	extern	_UEP4bits
                                           	extern	_UEP5bits
                                           	extern	_UEP6bits
                                           	extern	_UEP7bits
                                           	extern	_UEP8bits
                                           	extern	_UEP9bits
                                           	extern	_UEP10bits
                                           	extern	_UEP11bits
                                           	extern	_UEP12bits
                                           	extern	_UEP13bits
                                           	extern	_UEP14bits
                                           	extern	_UEP15bits
                                           	extern	_PORTAbits
                                           	extern	_PORTBbits
                                           	extern	_PORTCbits
                                           	extern	_PORTEbits
                                           	extern	_LATAbits
                                           	extern	_LATBbits
                                           	extern	_LATCbits
                                           	extern	_DDRAbits
                                           	extern	_TRISAbits
                                           	extern	_DDRBbits
                                           	extern	_TRISBbits
                                           	extern	_DDRCbits
                                           	extern	_TRISCbits
                                           	extern	_OSCTUNEbits
                                           	extern	_PIE1bits
                                           	extern	_PIR1bits
                                           	extern	_IPR1bits
                                           	extern	_PIE2bits
                                           	extern	_PIR2bits
                                           	extern	_IPR2bits
                                           	extern	_EECON1bits
                                           	extern	_RCSTAbits
                                           	extern	_TXSTAbits
                                           	extern	_T3CONbits
                                           	extern	_CMCONbits
                                           	extern	_CVRCONbits
                                           	extern	_CCP1ASbits
                                           	extern	_ECCP1ASbits
                                           	extern	_CCP1DELbits
                                           	extern	_ECCP1DELbits
                                           	extern	_BAUDCONbits
                                           	extern	_BAUDCTLbits
                                           	extern	_CCP2CONbits
                                           	extern	_CCP1CONbits
                                           	extern	_ADCON2bits
                                           	extern	_ADCON1bits
                                           	extern	_ADCON0bits
                                           	extern	_SSPCON2bits
                                           	extern	_SSPCON1bits
                                           	extern	_SSPSTATbits
                                           	extern	_T2CONbits
                                           	extern	_T1CONbits
                                           	extern	_RCONbits
                                           	extern	_WDTCONbits
                                           	extern	_HLVDCONbits
                                           	extern	_LVDCONbits
                                           	extern	_OSCCONbits
                                           	extern	_T0CONbits
                                           	extern	_STATUSbits
                                           	extern	_INTCON3bits
                                           	extern	_INTCON2bits
                                           	extern	_INTCONbits
                                           	extern	_STKPTRbits
                                           	extern	_stdin
                                           	extern	_stdout
                                           	extern	_UFRM
                                           	extern	_UFRML
                                           	extern	_UFRMH
                                           	extern	_UIR
                                           	extern	_UIE
                                           	extern	_UEIR
                                           	extern	_UEIE
                                           	extern	_USTAT
                                           	extern	_UCON
                                           	extern	_UADDR
                                           	extern	_UCFG
                                           	extern	_UEP0
                                           	extern	_UEP1
                                           	extern	_UEP2
                                           	extern	_UEP3
                                           	extern	_UEP4
                                           	extern	_UEP5
                                           	extern	_UEP6
                                           	extern	_UEP7
                                           	extern	_UEP8
                                           	extern	_UEP9
                                           	extern	_UEP10
                                           	extern	_UEP11
                                           	extern	_UEP12
                                           	extern	_UEP13
                                           	extern	_UEP14
                                           	extern	_UEP15
                                           	extern	_PORTA
                                           	extern	_PORTB
                                           	extern	_PORTC
                                           	extern	_PORTE
                                           	extern	_LATA
                                           	extern	_LATB
                                           	extern	_LATC
                                           	extern	_DDRA
                                           	extern	_TRISA
                                           	extern	_DDRB
                                           	extern	_TRISB
                                           	extern	_DDRC
                                           	extern	_TRISC
                                           	extern	_OSCTUNE
                                           	extern	_PIE1
                                           	extern	_PIR1
                                           	extern	_IPR1
                                           	extern	_PIE2
                                           	extern	_PIR2
                                           	extern	_IPR2
                                           	extern	_EECON1
                                           	extern	_EECON2
                                           	extern	_EEDATA
                                           	extern	_EEADR
                                           	extern	_RCSTA
                                           	extern	_TXSTA
                                           	extern	_TXREG
                                           	extern	_RCREG
                                           	extern	_SPBRG
                                           	extern	_SPBRGH
                                           	extern	_T3CON
                                           	extern	_TMR3
                                           	extern	_TMR3L
                                           	extern	_TMR3H
                                           	extern	_CMCON
                                           	extern	_CVRCON
                                           	extern	_CCP1AS
                                           	extern	_ECCP1AS
                                           	extern	_CCP1DEL
                                           	extern	_ECCP1DEL
                                           	extern	_BAUDCON
                                           	extern	_BAUDCTL
                                           	extern	_CCP2CON
                                           	extern	_CCPR2
                                           	extern	_CCPR2L
                                           	extern	_CCPR2H
                                           	extern	_CCP1CON
                                           	extern	_CCPR1
                                           	extern	_CCPR1L
                                           	extern	_CCPR1H
                                           	extern	_ADCON2
                                           	extern	_ADCON1
                                           	extern	_ADCON0
                                           	extern	_ADRES
                                           	extern	_ADRESL
                                           	extern	_ADRESH
                                           	extern	_SSPCON2
                                           	extern	_SSPCON1
                                           	extern	_SSPSTAT
                                           	extern	_SSPADD
                                           	extern	_SSPBUF
                                           	extern	_T2CON
                                           	extern	_PR2
                                           	extern	_TMR2
                                           	extern	_T1CON
                                           	extern	_TMR1
                                           	extern	_TMR1L
                                           	extern	_TMR1H
                                           	extern	_RCON
                                           	extern	_WDTCON
                                           	extern	_HLVDCON
                                           	extern	_LVDCON
                                           	extern	_OSCCON
                                           	extern	_T0CON
                                           	extern	_TMR0
                                           	extern	_TMR0L
                                           	extern	_TMR0H
                                           	extern	_STATUS
                                           	extern	_FSR2L
                                           	extern	_FSR2H
                                           	extern	_PLUSW2
                                           	extern	_PREINC2
                                           	extern	_POSTDEC2
                                           	extern	_POSTINC2
                                           	extern	_INDF2
                                           	extern	_BSR
                                           	extern	_FSR1L
                                           	extern	_FSR1H
                                           	extern	_PLUSW1
                                           	extern	_PREINC1
                                           	extern	_POSTDEC1
                                           	extern	_POSTINC1
                                           	extern	_INDF1
                                           	extern	_WREG
                                           	extern	_FSR0L
                                           	extern	_FSR0H
                                           	extern	_PLUSW0
                                           	extern	_PREINC0
                                           	extern	_POSTDEC0
                                           	extern	_POSTINC0
                                           	extern	_INDF0
                                           	extern	_INTCON3
                                           	extern	_INTCON2
                                           	extern	_INTCON
                                           	extern	_PROD
                                           	extern	_PRODL
                                           	extern	_PRODH
                                           	extern	_TABLAT
                                           	extern	_TBLPTR
                                           	extern	_TBLPTRL
                                           	extern	_TBLPTRH
                                           	extern	_TBLPTRU
                                           	extern	_PC
                                           	extern	_PCL
                                           	extern	_PCLATH
                                           	extern	_PCLATU
                                           	extern	_STKPTR
                                           	extern	_TOS
                                           	extern	_TOSL
                                           	extern	_TOSH
                                           	extern	_TOSU
                                           	extern	_usart_drdy
                                           	extern	_usart_getc
                                           	extern	_usart_putc
                                           	extern	_usart_puts
                                           	extern	__mullong
                                           
                                           ;--------------------------------------------------------
                                           ;	Equates to used internal registers
                                           ;--------------------------------------------------------
                                           STATUS	equ	0xfd8
                                           PCL	equ	0xff9
                                           PCLATH	equ	0xffa
                                           PCLATU	equ	0xffb
                                           WREG	equ	0xfe8
                                           BSR	equ	0xfe0
                                           FSR0L	equ	0xfe9
                                           FSR0H	equ	0xfea
                                           FSR1L	equ	0xfe1
                                           FSR2L	equ	0xfd9
                                           INDF0	equ	0xfef
                                           POSTINC1	equ	0xfe6
                                           POSTDEC1	equ	0xfe5
                                           PREINC1	equ	0xfe4
                                           PLUSW2	equ	0xfdb
                                           PRODL	equ	0xff3
                                           PRODH	equ	0xff4
                                           
                                           
                                           ; Internal registers
                                           .registers	udata_ovr	0x0000
                                           r0x00	res	1
                                           r0x01	res	1
                                           r0x02	res	1
                                           r0x03	res	1
                                           r0x04	res	1
                                           r0x05	res	1
                                           r0x06	res	1
                                           r0x07	res	1
                                           r0x08	res	1
                                           r0x09	res	1
                                           r0x0a	res	1
                                           r0x0b	res	1
                                           r0x0c	res	1
                                           r0x0d	res	1
                                           r0x0e	res	1
                                           r0x0f	res	1
                                           
                                           udata_meter_logger_0	udata
                                           _debug_buffer	res	128
                                           
                                           udata_meter_logger_1	udata
                                           _c	res	1
                                           
                                           udata_meter_logger_2	udata
                                           _timer_1_ms	res	4
                                           
                                           udata_meter_logger_3	udata
                                           _fifo_head	res	2
                                           
                                           udata_meter_logger_4	udata
                                           _fifo_tail	res	2
                                           
                                           udata_meter_logger_5	udata
                                           _main_cmd_1_79	res	1
                                           
                                           udata_meter_logger_6	udata
                                           _main_sub_cmd_1_79	res	1
                                           
                                           udata_meter_logger_7	udata
                                           _timer_0	res	2
                                           
                                           udata_meter_logger_8	udata
                                           _timer0_reload	res	2
                                           
                                           udata_meter_logger_9	udata
                                           _testo_ir_proto	res	6
                                           
                                           udata_meter_logger_10	udata
                                           _rs232_proto	res	6
                                           
                                           udata_meter_logger_11	udata
                                           _fsk_proto	res	16
                                           
                                           udata_meter_logger_12	udata
                                           _last_timer_0	res	2
                                           
                                           udata_meter_logger_13	udata
                                           _codec_type	res	1
                                           
                                           udata_meter_logger_14	udata
                                           _led_flash	res	2
                                           
                                           udata_meter_logger_15	udata
                                           _fifo_buffer_0	res	256
                                           
                                           udata_meter_logger_16	udata
                                           _fifo_buffer_1	res	256
                                           
                                           udata_meter_logger_17	udata
                                           _fifo_buffer_2	res	256
                                           
                                           udata_meter_logger_18	udata
                                           _fifo_buffer_3	res	256
                                           
                                           ;--------------------------------------------------------
                                           ; interrupt vector
                                           ;--------------------------------------------------------
                                           
                                           ;--------------------------------------------------------
                                           ; global & static initialisations
                                           ;--------------------------------------------------------
                                           ; ; Starting pCode block for absolute section
                                           ; ;-----------------------------------------
                                           S_meter_logger_ivec_0x1_isr_high_prio	code	0X000008
                                           ivec_0x1_isr_high_prio:
000008   ef91     goto    0x1722           	GOTO	_isr_high_prio
00000a   f00b
                                           
                                           ; ; Starting pCode block for absolute section
                                           ; ;-----------------------------------------
                                           S_meter_logger_ivec_0x2_isr_low_prio	code	0X000018
                                           ivec_0x2_isr_low_prio:
000018   efd8     goto    0x2db0           	GOTO	_isr_low_prio
00001a   f016
                                           
                                           ; I code from now on!
                                           ; ; Starting pCode block
                                           S_meter_logger__main	code
                                           _main:
                                           ;	.line	108; meter_logger.c	OSCCONbits.SCS = 0x10;
001f26   50d3     movf    0xd3, 0, 0       	MOVF	_OSCCONbits, W
001f28   0bfc     andlw   0xfc             	ANDLW	0xfc
001f2a   6ed3     movwf   0xd3, 0          	MOVWF	_OSCCONbits
                                           ;	.line	110; meter_logger.c	OSCCONbits.IRCF = 0x7;	// 8 MHz
001f2c   50d3     movf    0xd3, 0, 0       	MOVF	_OSCCONbits, W
001f2e   0b8f     andlw   0x8f             	ANDLW	0x8f
001f30   0970     iorlw   0x70             	IORLW	0x70
001f32   6ed3     movwf   0xd3, 0          	MOVWF	_OSCCONbits
001f34   0100     movlb   0                	BANKSEL	_timer_1_ms
                                           ;	.line	113; meter_logger.c	timer_1_ms = 0;
001f36   6bfc     clrf    0xfc, 0x1        	CLRF	_timer_1_ms, B
                                           ; removed redundant BANKSEL
001f38   6bfd     clrf    0xfd, 0x1        	CLRF	(_timer_1_ms + 1), B
                                           ; removed redundant BANKSEL
001f3a   6bfe     clrf    0xfe, 0x1        	CLRF	(_timer_1_ms + 2), B
                                           ; removed redundant BANKSEL
001f3c   6bff     clrf    0xff, 0x1        	CLRF	(_timer_1_ms + 3), B
001f3e   0105     movlb   0x5              	BANKSEL	_fifo_head
                                           ;	.line	115; meter_logger.c	fifo_head = 0;
001f40   6b14     clrf    0x14, 0x1        	CLRF	_fifo_head, B
                                           ; removed redundant BANKSEL
001f42   6b15     clrf    0x15, 0x1        	CLRF	(_fifo_head + 1), B
001f44   0105     movlb   0x5              	BANKSEL	_fifo_tail
                                           ;	.line	116; meter_logger.c	fifo_tail = 0;
001f46   6b16     clrf    0x16, 0x1        	CLRF	_fifo_tail, B
                                           ; removed redundant BANKSEL
001f48   6b17     clrf    0x17, 0x1        	CLRF	(_fifo_tail + 1), B
                                           ;	.line	118; meter_logger.c	init_system();
001f4a   ecb4     call    0x3168, 0        	CALL	_init_system
001f4c   f018
                                           ;	.line	121; meter_logger.c	usart_puts("\n\rMeterLogger... serial working\n\r");
001f4e   0e00     movlw   0                	MOVLW	UPPER(___str_0)
001f50   6e02     movwf   0x2, 0           	MOVWF	r0x02
001f52   0e1d     movlw   0x1d             	MOVLW	HIGH(___str_0)
001f54   6e01     movwf   0x1, 0           	MOVWF	r0x01
001f56   0ef4     movlw   0xf4             	MOVLW	LOW(___str_0)
001f58   6e00     movwf   0, 0             	MOVWF	r0x00
001f5a   5002     movf    0x2, 0, 0        	MOVF	r0x02, W
001f5c   6ee5     movwf   0xe5, 0          	MOVWF	POSTDEC1
001f5e   5001     movf    0x1, 0, 0        	MOVF	r0x01, W
001f60   6ee5     movwf   0xe5, 0          	MOVWF	POSTDEC1
001f62   5000     movf    0, 0, 0          	MOVF	r0x00, W
001f64   6ee5     movwf   0xe5, 0          	MOVWF	POSTDEC1
001f66   ec4a     call    0x3094, 0        	CALL	_usart_puts
001f68   f018
001f6a   0e03     movlw   0x3              	MOVLW	0x03
001f6c   26e1     addwf   0xe1, 0x1, 0     	ADDWF	FSR1L, F
                                           ;	.line	122; meter_logger.c	sleep_ms(100);
001f6e   0e00     movlw   0                	MOVLW	0x00
001f70   6ee5     movwf   0xe5, 0          	MOVWF	POSTDEC1
001f72   0e00     movlw   0                	MOVLW	0x00
001f74   6ee5     movwf   0xe5, 0          	MOVWF	POSTDEC1
001f76   0e00     movlw   0                	MOVLW	0x00
001f78   6ee5     movwf   0xe5, 0          	MOVWF	POSTDEC1
001f7a   0e64     movlw   0x64             	MOVLW	0x64
001f7c   6ee5     movwf   0xe5, 0          	MOVWF	POSTDEC1
001f7e   eca4     call    0x2b48, 0        	CALL	_sleep_ms
001f80   f015
001f82   0e04     movlw   0x4              	MOVLW	0x04
001f84   26e1     addwf   0xe1, 0x1, 0     	ADDWF	FSR1L, F
                                           ;	.line	125; meter_logger.c	fsk_rx_enable();
001f86   ec86     call    0x310c, 0        	CALL	_fsk_rx_enable
001f88   f018
                                           _00136_DS_:
                                           ;	.line	127; meter_logger.c	if (fifo_get(&cmd)) {
001f8a   0e05     movlw   0x5              	MOVLW	HIGH(_main_cmd_1_79)
001f8c   6e01     movwf   0x1, 0           	MOVWF	r0x01
001f8e   0e21     movlw   0x21             	MOVLW	LOW(_main_cmd_1_79)
001f90   6e00     movwf   0, 0             	MOVWF	r0x00
001f92   0e80     movlw   0x80             	MOVLW	0x80
001f94   6e02     movwf   0x2, 0           	MOVWF	r0x02
001f96   5002     movf    0x2, 0, 0        	MOVF	r0x02, W
001f98   6ee5     movwf   0xe5, 0          	MOVWF	POSTDEC1
001f9a   5001     movf    0x1, 0, 0        	MOVF	r0x01, W
001f9c   6ee5     movwf   0xe5, 0          	MOVWF	POSTDEC1
001f9e   5000     movf    0, 0, 0          	MOVF	r0x00, W
001fa0   6ee5     movwf   0xe5, 0          	MOVWF	POSTDEC1
001fa2   ece5     call    0x29ca, 0        	CALL	_fifo_get
001fa4   f014
001fa6   6e00     movwf   0, 0             	MOVWF	r0x00
001fa8   0e03     movlw   0x3              	MOVLW	0x03
001faa   26e1     addwf   0xe1, 0x1, 0     	ADDWF	FSR1L, F
001fac   5000     movf    0, 0, 0          	MOVF	r0x00, W
001fae   e0ed     bz      0x1f8a           	BZ	_00136_DS_
001fb0   0105     movlb   0x5              	BANKSEL	_main_cmd_1_79
                                           ;	.line	128; meter_logger.c	switch (cmd) {
001fb2   5121     movf    0x21, 0, 0x1     	MOVF	_main_cmd_1_79, W, B
001fb4   e00b     bz      0x1fcc           	BZ	_00105_DS_
                                           _00204_DS_:
001fb6   0105     movlb   0x5              	BANKSEL	_main_cmd_1_79
001fb8   5121     movf    0x21, 0, 0x1     	MOVF	_main_cmd_1_79, W, B
001fba   0a01     xorlw   0x1              	XORLW	0x01
001fbc   e101     bnz     0x1fc0           	BNZ	_00206_DS_
001fbe   d11a     bra     0x21f4           	BRA	_00119_DS_
                                           _00206_DS_:
001fc0   0105     movlb   0x5              	BANKSEL	_main_cmd_1_79
001fc2   5121     movf    0x21, 0, 0x1     	MOVF	_main_cmd_1_79, W, B
001fc4   0aff     xorlw   0xff             	XORLW	0xff
001fc6   e101     bnz     0x1fca           	BNZ	_00208_DS_
001fc8   d093     bra     0x20f0           	BRA	_00112_DS_
                                           _00208_DS_:
001fca   d7df     bra     0x1f8a           	BRA	_00136_DS_
                                           _00105_DS_:
                                           ;	.line	130; meter_logger.c	fsk_rx_disable();
001fcc   ec2b     call    0x3456, 0        	CALL	_fsk_rx_disable
001fce   f01a
                                           ;	.line	131; meter_logger.c	usart_puts("\n\rpress print on testo\n\r");
001fd0   0e00     movlw   0                	MOVLW	UPPER(___str_1)
001fd2   6e02     movwf   0x2, 0           	MOVWF	r0x02
001fd4   0e1e     movlw   0x1e             	MOVLW	HIGH(___str_1)
001fd6   6e01     movwf   0x1, 0           	MOVWF	r0x01
001fd8   0e16     movlw   0x16             	MOVLW	LOW(___str_1)
001fda   6e00     movwf   0, 0             	MOVWF	r0x00
001fdc   5002     movf    0x2, 0, 0        	MOVF	r0x02, W
001fde   6ee5     movwf   0xe5, 0          	MOVWF	POSTDEC1
001fe0   5001     movf    0x1, 0, 0        	MOVF	r0x01, W
001fe2   6ee5     movwf   0xe5, 0          	MOVWF	POSTDEC1
001fe4   5000     movf    0, 0, 0          	MOVF	r0x00, W
001fe6   6ee5     movwf   0xe5, 0          	MOVWF	POSTDEC1
001fe8   ec4a     call    0x3094, 0        	CALL	_usart_puts
001fea   f018
001fec   0e03     movlw   0x3              	MOVLW	0x03
001fee   26e1     addwf   0xe1, 0x1, 0     	ADDWF	FSR1L, F
                                           ;	.line	132; meter_logger.c	testo_ir_enable();
001ff0   ec1b     call    0x3236, 0        	CALL	_testo_ir_enable
001ff2   f019
                                           ;	.line	134; meter_logger.c	last_fifo_size = 0;
001ff4   6a00     clrf    0, 0             	CLRF	r0x00
001ff6   6a01     clrf    0x1, 0           	CLRF	r0x01
                                           ;	.line	135; meter_logger.c	sleep_ms(10000);						// 10 seconds to start printing
001ff8   0e00     movlw   0                	MOVLW	0x00
001ffa   6ee5     movwf   0xe5, 0          	MOVWF	POSTDEC1
001ffc   0e00     movlw   0                	MOVLW	0x00
001ffe   6ee5     movwf   0xe5, 0          	MOVWF	POSTDEC1
002000   0e27     movlw   0x27             	MOVLW	0x27
002002   6ee5     movwf   0xe5, 0          	MOVWF	POSTDEC1
002004   0e10     movlw   0x10             	MOVLW	0x10
002006   6ee5     movwf   0xe5, 0          	MOVWF	POSTDEC1
002008   eca4     call    0x2b48, 0        	CALL	_sleep_ms
00200a   f015
00200c   0e04     movlw   0x4              	MOVLW	0x04
00200e   26e1     addwf   0xe1, 0x1, 0     	ADDWF	FSR1L, F
                                           ;	.line	136; meter_logger.c	fifo_size = fifo_in_use();
002010   ec39     call    0x3272, 0        	CALL	_fifo_in_use
002012   f019
002014   6e02     movwf   0x2, 0           	MOVWF	r0x02
002016   cff3     movff   0xff3, 0x3       	MOVFF	PRODL, r0x03
002018   f003
                                           _00106_DS_:
                                           ;	.line	137; meter_logger.c	while (fifo_size > last_fifo_size) {	// and wait while we are still receiving data
00201a   5003     movf    0x3, 0, 0        	MOVF	r0x03, W
00201c   5c01     subwf   0x1, 0, 0        	SUBWF	r0x01, W
00201e   e102     bnz     0x2024           	BNZ	_00209_DS_
002020   5002     movf    0x2, 0, 0        	MOVF	r0x02, W
002022   5c00     subwf   0, 0, 0          	SUBWF	r0x00, W
                                           _00209_DS_:
002024   e216     bc      0x2052           	BC	_00108_DS_
                                           ;	.line	138; meter_logger.c	last_fifo_size = fifo_size;
002026   c002     movff   0x2, 0           	MOVFF	r0x02, r0x00
002028   f000
00202a   c003     movff   0x3, 0x1         	MOVFF	r0x03, r0x01
00202c   f001
                                           ;	.line	139; meter_logger.c	sleep_ms(200);						// return data when no data for 200 ms
00202e   0e00     movlw   0                	MOVLW	0x00
002030   6ee5     movwf   0xe5, 0          	MOVWF	POSTDEC1
002032   0e00     movlw   0                	MOVLW	0x00
002034   6ee5     movwf   0xe5, 0          	MOVWF	POSTDEC1
002036   0e00     movlw   0                	MOVLW	0x00
002038   6ee5     movwf   0xe5, 0          	MOVWF	POSTDEC1
00203a   0ec8     movlw   0xc8             	MOVLW	0xc8
00203c   6ee5     movwf   0xe5, 0          	MOVWF	POSTDEC1
00203e   eca4     call    0x2b48, 0        	CALL	_sleep_ms
002040   f015
002042   0e04     movlw   0x4              	MOVLW	0x04
002044   26e1     addwf   0xe1, 0x1, 0     	ADDWF	FSR1L, F
                                           ;	.line	140; meter_logger.c	fifo_size = fifo_in_use();
002046   ec39     call    0x3272, 0        	CALL	_fifo_in_use
002048   f019
00204a   6e02     movwf   0x2, 0           	MOVWF	r0x02
00204c   cff3     movff   0xff3, 0x3       	MOVFF	PRODL, r0x03
00204e   f003
002050   d7e4     bra     0x201a           	BRA	_00106_DS_
                                           _00108_DS_:
                                           ;	.line	142; meter_logger.c	testo_ir_disable();
002052   ec35     call    0x346a, 0        	CALL	_testo_ir_disable
002054   f01a
                                           ;	.line	143; meter_logger.c	usart_puts("\n\rdone receiving - sending via serial/fsk\n\r");
002056   0e00     movlw   0                	MOVLW	UPPER(___str_2)
002058   6e06     movwf   0x6, 0           	MOVWF	r0x06
00205a   0e1e     movlw   0x1e             	MOVLW	HIGH(___str_2)
00205c   6e05     movwf   0x5, 0           	MOVWF	r0x05
00205e   0e30     movlw   0x30             	MOVLW	LOW(___str_2)
002060   6e04     movwf   0x4, 0           	MOVWF	r0x04
002062   5006     movf    0x6, 0, 0        	MOVF	r0x06, W
002064   6ee5     movwf   0xe5, 0          	MOVWF	POSTDEC1
002066   5005     movf    0x5, 0, 0        	MOVF	r0x05, W
002068   6ee5     movwf   0xe5, 0          	MOVWF	POSTDEC1
00206a   5004     movf    0x4, 0, 0        	MOVF	r0x04, W
00206c   6ee5     movwf   0xe5, 0          	MOVWF	POSTDEC1
00206e   ec4a     call    0x3094, 0        	CALL	_usart_puts
002070   f018
002072   0e03     movlw   0x3              	MOVLW	0x03
002074   26e1     addwf   0xe1, 0x1, 0     	ADDWF	FSR1L, F
                                           ;	.line	145; meter_logger.c	fsk_tx_enable();
002076   ec55     call    0x32aa, 0        	CALL	_fsk_tx_enable
002078   f019
                                           _00109_DS_:
                                           ;	.line	147; meter_logger.c	while (fifo_get(&cmd)) {	// and print them to serial
00207a   0e05     movlw   0x5              	MOVLW	HIGH(_main_cmd_1_79)
00207c   6e05     movwf   0x5, 0           	MOVWF	r0x05
00207e   0e21     movlw   0x21             	MOVLW	LOW(_main_cmd_1_79)
002080   6e04     movwf   0x4, 0           	MOVWF	r0x04
002082   0e80     movlw   0x80             	MOVLW	0x80
002084   6e06     movwf   0x6, 0           	MOVWF	r0x06
002086   5006     movf    0x6, 0, 0        	MOVF	r0x06, W
002088   6ee5     movwf   0xe5, 0          	MOVWF	POSTDEC1
00208a   5005     movf    0x5, 0, 0        	MOVF	r0x05, W
00208c   6ee5     movwf   0xe5, 0          	MOVWF	POSTDEC1
00208e   5004     movf    0x4, 0, 0        	MOVF	r0x04, W
002090   6ee5     movwf   0xe5, 0          	MOVWF	POSTDEC1
002092   ece5     call    0x29ca, 0        	CALL	_fifo_get
002094   f014
002096   6e04     movwf   0x4, 0           	MOVWF	r0x04
002098   0e03     movlw   0x3              	MOVLW	0x03
00209a   26e1     addwf   0xe1, 0x1, 0     	ADDWF	FSR1L, F
00209c   5004     movf    0x4, 0, 0        	MOVF	r0x04, W
00209e   e013     bz      0x20c6           	BZ	_00111_DS_
0020a0   0105     movlb   0x5              	BANKSEL	_main_cmd_1_79
                                           ;	.line	152; meter_logger.c	fsk_tx_byte(cmd);
0020a2   5121     movf    0x21, 0, 0x1     	MOVF	_main_cmd_1_79, W, B
0020a4   6ee5     movwf   0xe5, 0          	MOVWF	POSTDEC1
0020a6   ecad     call    0x335a, 0        	CALL	_fsk_tx_byte
0020a8   f019
0020aa   52e6     movf    0xe6, 0x1, 0     	MOVF	POSTINC1, F
                                           ;	.line	153; meter_logger.c	sleep_ms(FSK_TX_SLEEP_AFTER);
0020ac   0e00     movlw   0                	MOVLW	0x00
0020ae   6ee5     movwf   0xe5, 0          	MOVWF	POSTDEC1
0020b0   0e00     movlw   0                	MOVLW	0x00
0020b2   6ee5     movwf   0xe5, 0          	MOVWF	POSTDEC1
0020b4   0e00     movlw   0                	MOVLW	0x00
0020b6   6ee5     movwf   0xe5, 0          	MOVWF	POSTDEC1
0020b8   0e04     movlw   0x4              	MOVLW	0x04
0020ba   6ee5     movwf   0xe5, 0          	MOVWF	POSTDEC1
0020bc   eca4     call    0x2b48, 0        	CALL	_sleep_ms
0020be   f015
0020c0   0e04     movlw   0x4              	MOVLW	0x04
0020c2   26e1     addwf   0xe1, 0x1, 0     	ADDWF	FSR1L, F
0020c4   d7da     bra     0x207a           	BRA	_00109_DS_
                                           _00111_DS_:
                                           ;	.line	157; meter_logger.c	fsk_tx_disable();
0020c6   ecff     call    0x33fe, 0        	CALL	_fsk_tx_disable
0020c8   f019
                                           ;	.line	159; meter_logger.c	usart_puts("\n\rwaiting for new command\n\r");
0020ca   0e00     movlw   0                	MOVLW	UPPER(___str_3)
0020cc   6e06     movwf   0x6, 0           	MOVWF	r0x06
0020ce   0e1e     movlw   0x1e             	MOVLW	HIGH(___str_3)
0020d0   6e05     movwf   0x5, 0           	MOVWF	r0x05
0020d2   0e5c     movlw   0x5c             	MOVLW	LOW(___str_3)
0020d4   6e04     movwf   0x4, 0           	MOVWF	r0x04
0020d6   5006     movf    0x6, 0, 0        	MOVF	r0x06, W
0020d8   6ee5     movwf   0xe5, 0          	MOVWF	POSTDEC1
0020da   5005     movf    0x5, 0, 0        	MOVF	r0x05, W
0020dc   6ee5     movwf   0xe5, 0          	MOVWF	POSTDEC1
0020de   5004     movf    0x4, 0, 0        	MOVF	r0x04, W
0020e0   6ee5     movwf   0xe5, 0          	MOVWF	POSTDEC1
0020e2   ec4a     call    0x3094, 0        	CALL	_usart_puts
0020e4   f018
0020e6   0e03     movlw   0x3              	MOVLW	0x03
0020e8   26e1     addwf   0xe1, 0x1, 0     	ADDWF	FSR1L, F
                                           ;	.line	160; meter_logger.c	fsk_rx_enable();
0020ea   ec86     call    0x310c, 0        	CALL	_fsk_rx_enable
0020ec   f018
                                           ;	.line	161; meter_logger.c	break;
0020ee   d74d     bra     0x1f8a           	BRA	_00136_DS_
                                           _00112_DS_:
                                           ;	.line	164; meter_logger.c	fsk_rx_disable();
0020f0   ec2b     call    0x3456, 0        	CALL	_fsk_rx_disable
0020f2   f01a
                                           ;	.line	165; meter_logger.c	usart_puts("\n\recho test - send some data\n\r");
0020f4   0e00     movlw   0                	MOVLW	UPPER(___str_4)
0020f6   6e06     movwf   0x6, 0           	MOVWF	r0x06
0020f8   0e1e     movlw   0x1e             	MOVLW	HIGH(___str_4)
0020fa   6e05     movwf   0x5, 0           	MOVWF	r0x05
0020fc   0e78     movlw   0x78             	MOVLW	LOW(___str_4)
0020fe   6e04     movwf   0x4, 0           	MOVWF	r0x04
002100   5006     movf    0x6, 0, 0        	MOVF	r0x06, W
002102   6ee5     movwf   0xe5, 0          	MOVWF	POSTDEC1
002104   5005     movf    0x5, 0, 0        	MOVF	r0x05, W
002106   6ee5     movwf   0xe5, 0          	MOVWF	POSTDEC1
002108   5004     movf    0x4, 0, 0        	MOVF	r0x04, W
00210a   6ee5     movwf   0xe5, 0          	MOVWF	POSTDEC1
00210c   ec4a     call    0x3094, 0        	CALL	_usart_puts
00210e   f018
002110   0e03     movlw   0x3              	MOVLW	0x03
002112   26e1     addwf   0xe1, 0x1, 0     	ADDWF	FSR1L, F
                                           ;	.line	166; meter_logger.c	fsk_rx_enable();
002114   ec86     call    0x310c, 0        	CALL	_fsk_rx_enable
002116   f018
                                           ;	.line	168; meter_logger.c	last_fifo_size = 0;
002118   6a00     clrf    0, 0             	CLRF	r0x00
00211a   6a01     clrf    0x1, 0           	CLRF	r0x01
                                           ;	.line	169; meter_logger.c	sleep_ms(1000);							// 1 second
00211c   0e00     movlw   0                	MOVLW	0x00
00211e   6ee5     movwf   0xe5, 0          	MOVWF	POSTDEC1
002120   0e00     movlw   0                	MOVLW	0x00
002122   6ee5     movwf   0xe5, 0          	MOVWF	POSTDEC1
002124   0e03     movlw   0x3              	MOVLW	0x03
002126   6ee5     movwf   0xe5, 0          	MOVWF	POSTDEC1
002128   0ee8     movlw   0xe8             	MOVLW	0xe8
00212a   6ee5     movwf   0xe5, 0          	MOVWF	POSTDEC1
00212c   eca4     call    0x2b48, 0        	CALL	_sleep_ms
00212e   f015
002130   0e04     movlw   0x4              	MOVLW	0x04
002132   26e1     addwf   0xe1, 0x1, 0     	ADDWF	FSR1L, F
                                           ;	.line	170; meter_logger.c	fifo_size = fifo_in_use();
002134   ec39     call    0x3272, 0        	CALL	_fifo_in_use
002136   f019
002138   6e02     movwf   0x2, 0           	MOVWF	r0x02
00213a   cff3     movff   0xff3, 0x3       	MOVFF	PRODL, r0x03
00213c   f003
                                           _00113_DS_:
                                           ;	.line	171; meter_logger.c	while (fifo_size > last_fifo_size) {	// and wait while we are still receiving data
00213e   5003     movf    0x3, 0, 0        	MOVF	r0x03, W
002140   5c01     subwf   0x1, 0, 0        	SUBWF	r0x01, W
002142   e102     bnz     0x2148           	BNZ	_00210_DS_
002144   5002     movf    0x2, 0, 0        	MOVF	r0x02, W
002146   5c00     subwf   0, 0, 0          	SUBWF	r0x00, W
                                           _00210_DS_:
002148   e216     bc      0x2176           	BC	_00115_DS_
                                           ;	.line	172; meter_logger.c	last_fifo_size = fifo_size;
00214a   c002     movff   0x2, 0           	MOVFF	r0x02, r0x00
00214c   f000
00214e   c003     movff   0x3, 0x1         	MOVFF	r0x03, r0x01
002150   f001
                                           ;	.line	173; meter_logger.c	sleep_ms(500);						// return data when no data for 500 ms
002152   0e00     movlw   0                	MOVLW	0x00
002154   6ee5     movwf   0xe5, 0          	MOVWF	POSTDEC1
002156   0e00     movlw   0                	MOVLW	0x00
002158   6ee5     movwf   0xe5, 0          	MOVWF	POSTDEC1
00215a   0e01     movlw   0x1              	MOVLW	0x01
00215c   6ee5     movwf   0xe5, 0          	MOVWF	POSTDEC1
00215e   0ef4     movlw   0xf4             	MOVLW	0xf4
002160   6ee5     movwf   0xe5, 0          	MOVWF	POSTDEC1
002162   eca4     call    0x2b48, 0        	CALL	_sleep_ms
002164   f015
002166   0e04     movlw   0x4              	MOVLW	0x04
002168   26e1     addwf   0xe1, 0x1, 0     	ADDWF	FSR1L, F
                                           ;	.line	174; meter_logger.c	fifo_size = fifo_in_use();
00216a   ec39     call    0x3272, 0        	CALL	_fifo_in_use
00216c   f019
00216e   6e02     movwf   0x2, 0           	MOVWF	r0x02
002170   cff3     movff   0xff3, 0x3       	MOVFF	PRODL, r0x03
002172   f003
002174   d7e4     bra     0x213e           	BRA	_00113_DS_
                                           _00115_DS_:
                                           ;	.line	176; meter_logger.c	fsk_rx_disable();
002176   ec2b     call    0x3456, 0        	CALL	_fsk_rx_disable
002178   f01a
                                           ;	.line	178; meter_logger.c	fsk_tx_enable();
00217a   ec55     call    0x32aa, 0        	CALL	_fsk_tx_enable
00217c   f019
                                           _00116_DS_:
                                           ;	.line	180; meter_logger.c	while (fifo_get(&sub_cmd)) {
00217e   0e05     movlw   0x5              	MOVLW	HIGH(_main_sub_cmd_1_79)
002180   6e05     movwf   0x5, 0           	MOVWF	r0x05
002182   0e22     movlw   0x22             	MOVLW	LOW(_main_sub_cmd_1_79)
002184   6e04     movwf   0x4, 0           	MOVWF	r0x04
002186   0e80     movlw   0x80             	MOVLW	0x80
002188   6e06     movwf   0x6, 0           	MOVWF	r0x06
00218a   5006     movf    0x6, 0, 0        	MOVF	r0x06, W
00218c   6ee5     movwf   0xe5, 0          	MOVWF	POSTDEC1
00218e   5005     movf    0x5, 0, 0        	MOVF	r0x05, W
002190   6ee5     movwf   0xe5, 0          	MOVWF	POSTDEC1
002192   5004     movf    0x4, 0, 0        	MOVF	r0x04, W
002194   6ee5     movwf   0xe5, 0          	MOVWF	POSTDEC1
002196   ece5     call    0x29ca, 0        	CALL	_fifo_get
002198   f014
00219a   6e04     movwf   0x4, 0           	MOVWF	r0x04
00219c   0e03     movlw   0x3              	MOVLW	0x03
00219e   26e1     addwf   0xe1, 0x1, 0     	ADDWF	FSR1L, F
0021a0   5004     movf    0x4, 0, 0        	MOVF	r0x04, W
0021a2   e013     bz      0x21ca           	BZ	_00118_DS_
0021a4   0105     movlb   0x5              	BANKSEL	_main_sub_cmd_1_79
                                           ;	.line	185; meter_logger.c	fsk_tx_byte(sub_cmd);
0021a6   5122     movf    0x22, 0, 0x1     	MOVF	_main_sub_cmd_1_79, W, B
0021a8   6ee5     movwf   0xe5, 0          	MOVWF	POSTDEC1
0021aa   ecad     call    0x335a, 0        	CALL	_fsk_tx_byte
0021ac   f019
0021ae   52e6     movf    0xe6, 0x1, 0     	MOVF	POSTINC1, F
                                           ;	.line	186; meter_logger.c	sleep_ms(FSK_TX_SLEEP_AFTER);
0021b0   0e00     movlw   0                	MOVLW	0x00
0021b2   6ee5     movwf   0xe5, 0          	MOVWF	POSTDEC1
0021b4   0e00     movlw   0                	MOVLW	0x00
0021b6   6ee5     movwf   0xe5, 0          	MOVWF	POSTDEC1
0021b8   0e00     movlw   0                	MOVLW	0x00
0021ba   6ee5     movwf   0xe5, 0          	MOVWF	POSTDEC1
0021bc   0e04     movlw   0x4              	MOVLW	0x04
0021be   6ee5     movwf   0xe5, 0          	MOVWF	POSTDEC1
0021c0   eca4     call    0x2b48, 0        	CALL	_sleep_ms
0021c2   f015
0021c4   0e04     movlw   0x4              	MOVLW	0x04
0021c6   26e1     addwf   0xe1, 0x1, 0     	ADDWF	FSR1L, F
0021c8   d7da     bra     0x217e           	BRA	_00116_DS_
                                           _00118_DS_:
                                           ;	.line	190; meter_logger.c	fsk_tx_disable();
0021ca   ecff     call    0x33fe, 0        	CALL	_fsk_tx_disable
0021cc   f019
                                           ;	.line	192; meter_logger.c	usart_puts("\n\rwaiting for new command\n\r");
0021ce   0e00     movlw   0                	MOVLW	UPPER(___str_3)
0021d0   6e06     movwf   0x6, 0           	MOVWF	r0x06
0021d2   0e1e     movlw   0x1e             	MOVLW	HIGH(___str_3)
0021d4   6e05     movwf   0x5, 0           	MOVWF	r0x05
0021d6   0e5c     movlw   0x5c             	MOVLW	LOW(___str_3)
0021d8   6e04     movwf   0x4, 0           	MOVWF	r0x04
0021da   5006     movf    0x6, 0, 0        	MOVF	r0x06, W
0021dc   6ee5     movwf   0xe5, 0          	MOVWF	POSTDEC1
0021de   5005     movf    0x5, 0, 0        	MOVF	r0x05, W
0021e0   6ee5     movwf   0xe5, 0          	MOVWF	POSTDEC1
0021e2   5004     movf    0x4, 0, 0        	MOVF	r0x04, W
0021e4   6ee5     movwf   0xe5, 0          	MOVWF	POSTDEC1
0021e6   ec4a     call    0x3094, 0        	CALL	_usart_puts
0021e8   f018
0021ea   0e03     movlw   0x3              	MOVLW	0x03
0021ec   26e1     addwf   0xe1, 0x1, 0     	ADDWF	FSR1L, F
                                           ;	.line	193; meter_logger.c	fsk_rx_enable();
0021ee   ec86     call    0x310c, 0        	CALL	_fsk_rx_enable
0021f0   f018
                                           ;	.line	194; meter_logger.c	break;
0021f2   d6cb     bra     0x1f8a           	BRA	_00136_DS_
                                           _00119_DS_:
                                           ;	.line	197; meter_logger.c	fsk_rx_disable();
0021f4   ec2b     call    0x3456, 0        	CALL	_fsk_rx_disable
0021f6   f01a
                                           ;	.line	198; meter_logger.c	usart_puts("\n\rkamstrup - send kmp frame data\n\r");
0021f8   0e00     movlw   0                	MOVLW	UPPER(___str_5)
0021fa   6e06     movwf   0x6, 0           	MOVWF	r0x06
0021fc   0e1e     movlw   0x1e             	MOVLW	HIGH(___str_5)
0021fe   6e05     movwf   0x5, 0           	MOVWF	r0x05
002200   0e98     movlw   0x98             	MOVLW	LOW(___str_5)
002202   6e04     movwf   0x4, 0           	MOVWF	r0x04
002204   5006     movf    0x6, 0, 0        	MOVF	r0x06, W
002206   6ee5     movwf   0xe5, 0          	MOVWF	POSTDEC1
002208   5005     movf    0x5, 0, 0        	MOVF	r0x05, W
00220a   6ee5     movwf   0xe5, 0          	MOVWF	POSTDEC1
00220c   5004     movf    0x4, 0, 0        	MOVF	r0x04, W
00220e   6ee5     movwf   0xe5, 0          	MOVWF	POSTDEC1
002210   ec4a     call    0x3094, 0        	CALL	_usart_puts
002212   f018
002214   0e03     movlw   0x3              	MOVLW	0x03
002216   26e1     addwf   0xe1, 0x1, 0     	ADDWF	FSR1L, F
                                           ;	.line	199; meter_logger.c	fsk_rx_enable();
002218   ec86     call    0x310c, 0        	CALL	_fsk_rx_enable
00221a   f018
                                           ;	.line	202; meter_logger.c	last_fifo_size = 0;
00221c   6a00     clrf    0, 0             	CLRF	r0x00
00221e   6a01     clrf    0x1, 0           	CLRF	r0x01
                                           ;	.line	203; meter_logger.c	sleep_ms(400);							// sleep 400 ms to let some data come in
002220   0e00     movlw   0                	MOVLW	0x00
002222   6ee5     movwf   0xe5, 0          	MOVWF	POSTDEC1
002224   0e00     movlw   0                	MOVLW	0x00
002226   6ee5     movwf   0xe5, 0          	MOVWF	POSTDEC1
002228   0e01     movlw   0x1              	MOVLW	0x01
00222a   6ee5     movwf   0xe5, 0          	MOVWF	POSTDEC1
00222c   0e90     movlw   0x90             	MOVLW	0x90
00222e   6ee5     movwf   0xe5, 0          	MOVWF	POSTDEC1
002230   eca4     call    0x2b48, 0        	CALL	_sleep_ms
002232   f015
002234   0e04     movlw   0x4              	MOVLW	0x04
002236   26e1     addwf   0xe1, 0x1, 0     	ADDWF	FSR1L, F
                                           ;	.line	204; meter_logger.c	fifo_size = fifo_in_use();
002238   ec39     call    0x3272, 0        	CALL	_fifo_in_use
00223a   f019
00223c   6e02     movwf   0x2, 0           	MOVWF	r0x02
00223e   cff3     movff   0xff3, 0x3       	MOVFF	PRODL, r0x03
002240   f003
                                           _00120_DS_:
                                           ;	.line	205; meter_logger.c	while (fifo_size > last_fifo_size) {	// and wait while we are still receiving data
002242   5003     movf    0x3, 0, 0        	MOVF	r0x03, W
002244   5c01     subwf   0x1, 0, 0        	SUBWF	r0x01, W
002246   e102     bnz     0x224c           	BNZ	_00211_DS_
002248   5002     movf    0x2, 0, 0        	MOVF	r0x02, W
00224a   5c00     subwf   0, 0, 0          	SUBWF	r0x00, W
                                           _00211_DS_:
00224c   e216     bc      0x227a           	BC	_00122_DS_
                                           ;	.line	206; meter_logger.c	last_fifo_size = fifo_size;
00224e   c002     movff   0x2, 0           	MOVFF	r0x02, r0x00
002250   f000
002252   c003     movff   0x3, 0x1         	MOVFF	r0x03, r0x01
002254   f001
                                           ;	.line	207; meter_logger.c	sleep_ms(200);						// return data when no data for 100 ms
002256   0e00     movlw   0                	MOVLW	0x00
002258   6ee5     movwf   0xe5, 0          	MOVWF	POSTDEC1
00225a   0e00     movlw   0                	MOVLW	0x00
00225c   6ee5     movwf   0xe5, 0          	MOVWF	POSTDEC1
00225e   0e00     movlw   0                	MOVLW	0x00
002260   6ee5     movwf   0xe5, 0          	MOVWF	POSTDEC1
002262   0ec8     movlw   0xc8             	MOVLW	0xc8
002264   6ee5     movwf   0xe5, 0          	MOVWF	POSTDEC1
002266   eca4     call    0x2b48, 0        	CALL	_sleep_ms
002268   f015
00226a   0e04     movlw   0x4              	MOVLW	0x04
00226c   26e1     addwf   0xe1, 0x1, 0     	ADDWF	FSR1L, F
                                           ;	.line	208; meter_logger.c	fifo_size = fifo_in_use();
00226e   ec39     call    0x3272, 0        	CALL	_fifo_in_use
002270   f019
002272   6e02     movwf   0x2, 0           	MOVWF	r0x02
002274   cff3     movff   0xff3, 0x3       	MOVFF	PRODL, r0x03
002276   f003
002278   d7e4     bra     0x2242           	BRA	_00120_DS_
                                           _00122_DS_:
                                           ;	.line	210; meter_logger.c	fsk_rx_disable();
00227a   ec2b     call    0x3456, 0        	CALL	_fsk_rx_disable
00227c   f01a
                                           ;	.line	212; meter_logger.c	usart_puts("\n\rkamstrup - kmp frame received:\n\r");
00227e   0e00     movlw   0                	MOVLW	UPPER(___str_6)
002280   6e06     movwf   0x6, 0           	MOVWF	r0x06
002282   0e1e     movlw   0x1e             	MOVLW	HIGH(___str_6)
002284   6e05     movwf   0x5, 0           	MOVWF	r0x05
002286   0ebc     movlw   0xbc             	MOVLW	LOW(___str_6)
002288   6e04     movwf   0x4, 0           	MOVWF	r0x04
00228a   5006     movf    0x6, 0, 0        	MOVF	r0x06, W
00228c   6ee5     movwf   0xe5, 0          	MOVWF	POSTDEC1
00228e   5005     movf    0x5, 0, 0        	MOVF	r0x05, W
002290   6ee5     movwf   0xe5, 0          	MOVWF	POSTDEC1
002292   5004     movf    0x4, 0, 0        	MOVF	r0x04, W
002294   6ee5     movwf   0xe5, 0          	MOVWF	POSTDEC1
002296   ec4a     call    0x3094, 0        	CALL	_usart_puts
002298   f018
00229a   0e03     movlw   0x3              	MOVLW	0x03
00229c   26e1     addwf   0xe1, 0x1, 0     	ADDWF	FSR1L, F
                                           ;	.line	213; meter_logger.c	rs232_tx_enable();
00229e   ecfd     call    0x31fa, 0        	CALL	_rs232_tx_enable
0022a0   f018
                                           _00123_DS_:
                                           ;	.line	214; meter_logger.c	while (fifo_get(&sub_cmd)) {
0022a2   0e05     movlw   0x5              	MOVLW	HIGH(_main_sub_cmd_1_79)
0022a4   6e05     movwf   0x5, 0           	MOVWF	r0x05
0022a6   0e22     movlw   0x22             	MOVLW	LOW(_main_sub_cmd_1_79)
0022a8   6e04     movwf   0x4, 0           	MOVWF	r0x04
0022aa   0e80     movlw   0x80             	MOVLW	0x80
0022ac   6e06     movwf   0x6, 0           	MOVWF	r0x06
0022ae   5006     movf    0x6, 0, 0        	MOVF	r0x06, W
0022b0   6ee5     movwf   0xe5, 0          	MOVWF	POSTDEC1
0022b2   5005     movf    0x5, 0, 0        	MOVF	r0x05, W
0022b4   6ee5     movwf   0xe5, 0          	MOVWF	POSTDEC1
0022b6   5004     movf    0x4, 0, 0        	MOVF	r0x04, W
0022b8   6ee5     movwf   0xe5, 0          	MOVWF	POSTDEC1
0022ba   ece5     call    0x29ca, 0        	CALL	_fifo_get
0022bc   f014
0022be   6e04     movwf   0x4, 0           	MOVWF	r0x04
0022c0   0e03     movlw   0x3              	MOVLW	0x03
0022c2   26e1     addwf   0xe1, 0x1, 0     	ADDWF	FSR1L, F
0022c4   5004     movf    0x4, 0, 0        	MOVF	r0x04, W
0022c6   e013     bz      0x22ee           	BZ	_00125_DS_
0022c8   0105     movlb   0x5              	BANKSEL	_main_sub_cmd_1_79
                                           ;	.line	219; meter_logger.c	rs232_tx_byte(sub_cmd);
0022ca   5122     movf    0x22, 0, 0x1     	MOVF	_main_sub_cmd_1_79, W, B
0022cc   6ee5     movwf   0xe5, 0          	MOVWF	POSTDEC1
0022ce   ec6f     call    0x32de, 0        	CALL	_rs232_tx_byte
0022d0   f019
0022d2   52e6     movf    0xe6, 0x1, 0     	MOVF	POSTINC1, F
                                           ;	.line	220; meter_logger.c	sleep_ms(RS232_TX_SLEEP_AFTER);
0022d4   0e00     movlw   0                	MOVLW	0x00
0022d6   6ee5     movwf   0xe5, 0          	MOVWF	POSTDEC1
0022d8   0e00     movlw   0                	MOVLW	0x00
0022da   6ee5     movwf   0xe5, 0          	MOVWF	POSTDEC1
0022dc   0e00     movlw   0                	MOVLW	0x00
0022de   6ee5     movwf   0xe5, 0          	MOVWF	POSTDEC1
0022e0   0e0c     movlw   0xc              	MOVLW	0x0c
0022e2   6ee5     movwf   0xe5, 0          	MOVWF	POSTDEC1
0022e4   eca4     call    0x2b48, 0        	CALL	_sleep_ms
0022e6   f015
0022e8   0e04     movlw   0x4              	MOVLW	0x04
0022ea   26e1     addwf   0xe1, 0x1, 0     	ADDWF	FSR1L, F
0022ec   d7da     bra     0x22a2           	BRA	_00123_DS_
                                           _00125_DS_:
                                           ;	.line	222; meter_logger.c	rs232_tx_disable();
0022ee   ec15     call    0x342a, 0        	CALL	_rs232_tx_disable
0022f0   f01a
                                           ;	.line	225; meter_logger.c	usart_puts("\n\rkamstrup - waiting for reply:\n\r");
0022f2   0e00     movlw   0                	MOVLW	UPPER(___str_7)
0022f4   6e06     movwf   0x6, 0           	MOVWF	r0x06
0022f6   0e1e     movlw   0x1e             	MOVLW	HIGH(___str_7)
0022f8   6e05     movwf   0x5, 0           	MOVWF	r0x05
0022fa   0ee0     movlw   0xe0             	MOVLW	LOW(___str_7)
0022fc   6e04     movwf   0x4, 0           	MOVWF	r0x04
0022fe   5006     movf    0x6, 0, 0        	MOVF	r0x06, W
002300   6ee5     movwf   0xe5, 0          	MOVWF	POSTDEC1
002302   5005     movf    0x5, 0, 0        	MOVF	r0x05, W
002304   6ee5     movwf   0xe5, 0          	MOVWF	POSTDEC1
002306   5004     movf    0x4, 0, 0        	MOVF	r0x04, W
002308   6ee5     movwf   0xe5, 0          	MOVWF	POSTDEC1
00230a   ec4a     call    0x3094, 0        	CALL	_usart_puts
00230c   f018
00230e   0e03     movlw   0x3              	MOVLW	0x03
002310   26e1     addwf   0xe1, 0x1, 0     	ADDWF	FSR1L, F
                                           ;	.line	226; meter_logger.c	rs232_rx_enable();
002312   ecde     call    0x31bc, 0        	CALL	_rs232_rx_enable
002314   f018
                                           ;	.line	227; meter_logger.c	last_fifo_size = 0;
002316   6a00     clrf    0, 0             	CLRF	r0x00
002318   6a01     clrf    0x1, 0           	CLRF	r0x01
                                           ;	.line	228; meter_logger.c	sleep_ms(200);							// sleep 200 ms to let some data come in
00231a   0e00     movlw   0                	MOVLW	0x00
00231c   6ee5     movwf   0xe5, 0          	MOVWF	POSTDEC1
00231e   0e00     movlw   0                	MOVLW	0x00
002320   6ee5     movwf   0xe5, 0          	MOVWF	POSTDEC1
002322   0e00     movlw   0                	MOVLW	0x00
002324   6ee5     movwf   0xe5, 0          	MOVWF	POSTDEC1
002326   0ec8     movlw   0xc8             	MOVLW	0xc8
002328   6ee5     movwf   0xe5, 0          	MOVWF	POSTDEC1
00232a   eca4     call    0x2b48, 0        	CALL	_sleep_ms
00232c   f015
00232e   0e04     movlw   0x4              	MOVLW	0x04
002330   26e1     addwf   0xe1, 0x1, 0     	ADDWF	FSR1L, F
                                           ;	.line	229; meter_logger.c	fifo_size = fifo_in_use();
002332   ec39     call    0x3272, 0        	CALL	_fifo_in_use
002334   f019
002336   6e02     movwf   0x2, 0           	MOVWF	r0x02
002338   cff3     movff   0xff3, 0x3       	MOVFF	PRODL, r0x03
00233a   f003
                                           _00126_DS_:
                                           ;	.line	230; meter_logger.c	while (fifo_size > last_fifo_size) {	// and wait while we are still receiving data
00233c   5003     movf    0x3, 0, 0        	MOVF	r0x03, W
00233e   5c01     subwf   0x1, 0, 0        	SUBWF	r0x01, W
002340   e102     bnz     0x2346           	BNZ	_00212_DS_
002342   5002     movf    0x2, 0, 0        	MOVF	r0x02, W
002344   5c00     subwf   0, 0, 0          	SUBWF	r0x00, W
                                           _00212_DS_:
002346   e216     bc      0x2374           	BC	_00128_DS_
                                           ;	.line	231; meter_logger.c	last_fifo_size = fifo_size;
002348   c002     movff   0x2, 0           	MOVFF	r0x02, r0x00
00234a   f000
00234c   c003     movff   0x3, 0x1         	MOVFF	r0x03, r0x01
00234e   f001
                                           ;	.line	232; meter_logger.c	sleep_ms(100);						// return data when no data for 100 ms
002350   0e00     movlw   0                	MOVLW	0x00
002352   6ee5     movwf   0xe5, 0          	MOVWF	POSTDEC1
002354   0e00     movlw   0                	MOVLW	0x00
002356   6ee5     movwf   0xe5, 0          	MOVWF	POSTDEC1
002358   0e00     movlw   0                	MOVLW	0x00
00235a   6ee5     movwf   0xe5, 0          	MOVWF	POSTDEC1
00235c   0e64     movlw   0x64             	MOVLW	0x64
00235e   6ee5     movwf   0xe5, 0          	MOVWF	POSTDEC1
002360   eca4     call    0x2b48, 0        	CALL	_sleep_ms
002362   f015
002364   0e04     movlw   0x4              	MOVLW	0x04
002366   26e1     addwf   0xe1, 0x1, 0     	ADDWF	FSR1L, F
                                           ;	.line	233; meter_logger.c	fifo_size = fifo_in_use();
002368   ec39     call    0x3272, 0        	CALL	_fifo_in_use
00236a   f019
00236c   6e02     movwf   0x2, 0           	MOVWF	r0x02
00236e   cff3     movff   0xff3, 0x3       	MOVFF	PRODL, r0x03
002370   f003
002372   d7e4     bra     0x233c           	BRA	_00126_DS_
                                           _00128_DS_:
                                           ;	.line	236; meter_logger.c	rs232_rx_disable();
002374   ec0a     call    0x3414, 0        	CALL	_rs232_rx_disable
002376   f01a
                                           ;	.line	239; meter_logger.c	usart_puts("\n\rkamstrup - kmp reply received:\n\r");
002378   0e00     movlw   0                	MOVLW	UPPER(___str_8)
00237a   6e02     movwf   0x2, 0           	MOVWF	r0x02
00237c   0e1f     movlw   0x1f             	MOVLW	HIGH(___str_8)
00237e   6e01     movwf   0x1, 0           	MOVWF	r0x01
002380   0e02     movlw   0x2              	MOVLW	LOW(___str_8)
002382   6e00     movwf   0, 0             	MOVWF	r0x00
002384   5002     movf    0x2, 0, 0        	MOVF	r0x02, W
002386   6ee5     movwf   0xe5, 0          	MOVWF	POSTDEC1
002388   5001     movf    0x1, 0, 0        	MOVF	r0x01, W
00238a   6ee5     movwf   0xe5, 0          	MOVWF	POSTDEC1
00238c   5000     movf    0, 0, 0          	MOVF	r0x00, W
00238e   6ee5     movwf   0xe5, 0          	MOVWF	POSTDEC1
002390   ec4a     call    0x3094, 0        	CALL	_usart_puts
002392   f018
002394   0e03     movlw   0x3              	MOVLW	0x03
002396   26e1     addwf   0xe1, 0x1, 0     	ADDWF	FSR1L, F
                                           ;	.line	241; meter_logger.c	fsk_tx_enable();
002398   ec55     call    0x32aa, 0        	CALL	_fsk_tx_enable
00239a   f019
                                           _00129_DS_:
                                           ;	.line	243; meter_logger.c	while (fifo_get(&sub_cmd)) {
00239c   0e05     movlw   0x5              	MOVLW	HIGH(_main_sub_cmd_1_79)
00239e   6e01     movwf   0x1, 0           	MOVWF	r0x01
0023a0   0e22     movlw   0x22             	MOVLW	LOW(_main_sub_cmd_1_79)
0023a2   6e00     movwf   0, 0             	MOVWF	r0x00
0023a4   0e80     movlw   0x80             	MOVLW	0x80
0023a6   6e02     movwf   0x2, 0           	MOVWF	r0x02
0023a8   5002     movf    0x2, 0, 0        	MOVF	r0x02, W
0023aa   6ee5     movwf   0xe5, 0          	MOVWF	POSTDEC1
0023ac   5001     movf    0x1, 0, 0        	MOVF	r0x01, W
0023ae   6ee5     movwf   0xe5, 0          	MOVWF	POSTDEC1
0023b0   5000     movf    0, 0, 0          	MOVF	r0x00, W
0023b2   6ee5     movwf   0xe5, 0          	MOVWF	POSTDEC1
0023b4   ece5     call    0x29ca, 0        	CALL	_fifo_get
0023b6   f014
0023b8   6e00     movwf   0, 0             	MOVWF	r0x00
0023ba   0e03     movlw   0x3              	MOVLW	0x03
0023bc   26e1     addwf   0xe1, 0x1, 0     	ADDWF	FSR1L, F
0023be   5000     movf    0, 0, 0          	MOVF	r0x00, W
0023c0   e013     bz      0x23e8           	BZ	_00131_DS_
0023c2   0105     movlb   0x5              	BANKSEL	_main_sub_cmd_1_79
                                           ;	.line	248; meter_logger.c	fsk_tx_byte(sub_cmd);
0023c4   5122     movf    0x22, 0, 0x1     	MOVF	_main_sub_cmd_1_79, W, B
0023c6   6ee5     movwf   0xe5, 0          	MOVWF	POSTDEC1
0023c8   ecad     call    0x335a, 0        	CALL	_fsk_tx_byte
0023ca   f019
0023cc   52e6     movf    0xe6, 0x1, 0     	MOVF	POSTINC1, F
                                           ;	.line	249; meter_logger.c	sleep_ms(FSK_TX_SLEEP_AFTER);	// <- BUG HERE: actually delay is 60-70ms
0023ce   0e00     movlw   0                	MOVLW	0x00
0023d0   6ee5     movwf   0xe5, 0          	MOVWF	POSTDEC1
0023d2   0e00     movlw   0                	MOVLW	0x00
0023d4   6ee5     movwf   0xe5, 0          	MOVWF	POSTDEC1
0023d6   0e00     movlw   0                	MOVLW	0x00
0023d8   6ee5     movwf   0xe5, 0          	MOVWF	POSTDEC1
0023da   0e04     movlw   0x4              	MOVLW	0x04
0023dc   6ee5     movwf   0xe5, 0          	MOVWF	POSTDEC1
0023de   eca4     call    0x2b48, 0        	CALL	_sleep_ms
0023e0   f015
0023e2   0e04     movlw   0x4              	MOVLW	0x04
0023e4   26e1     addwf   0xe1, 0x1, 0     	ADDWF	FSR1L, F
0023e6   d7da     bra     0x239c           	BRA	_00129_DS_
                                           _00131_DS_:
                                           ;	.line	253; meter_logger.c	fsk_tx_disable();
0023e8   ecff     call    0x33fe, 0        	CALL	_fsk_tx_disable
0023ea   f019
                                           ;	.line	255; meter_logger.c	usart_puts("\n\rwaiting for new command\n\r");
0023ec   0e00     movlw   0                	MOVLW	UPPER(___str_3)
0023ee   6e02     movwf   0x2, 0           	MOVWF	r0x02
0023f0   0e1e     movlw   0x1e             	MOVLW	HIGH(___str_3)
0023f2   6e01     movwf   0x1, 0           	MOVWF	r0x01
0023f4   0e5c     movlw   0x5c             	MOVLW	LOW(___str_3)
0023f6   6e00     movwf   0, 0             	MOVWF	r0x00
0023f8   5002     movf    0x2, 0, 0        	MOVF	r0x02, W
0023fa   6ee5     movwf   0xe5, 0          	MOVWF	POSTDEC1
0023fc   5001     movf    0x1, 0, 0        	MOVF	r0x01, W
0023fe   6ee5     movwf   0xe5, 0          	MOVWF	POSTDEC1
002400   5000     movf    0, 0, 0          	MOVF	r0x00, W
002402   6ee5     movwf   0xe5, 0          	MOVWF	POSTDEC1
002404   ec4a     call    0x3094, 0        	CALL	_usart_puts
002406   f018
002408   0e03     movlw   0x3              	MOVLW	0x03
00240a   26e1     addwf   0xe1, 0x1, 0     	ADDWF	FSR1L, F
                                           ;	.line	256; meter_logger.c	fsk_rx_enable();
00240c   ec86     call    0x310c, 0        	CALL	_fsk_rx_enable
00240e   f018
                                           ;	.line	258; meter_logger.c	}
002410   efc5     goto    0x1f8a           	GOTO	_00136_DS_
002412   f00f
002414   0012     return  0                	RETURN	
                                           
                                           ; ; Starting pCode block
                                           S_meter_logger___debug2	code
                                           __debug2:
                                           ;	.line	4189; meter_logger.c	void _debug2() {
002e7c   cfd9     movff   0xfd9, 0xfe5     	MOVFF	FSR2L, POSTDEC1
002e7e   ffe5
002e80   cfe1     movff   0xfe1, 0xfd9     	MOVFF	FSR1L, FSR2L
002e82   ffd9
                                           ;	.line	4190; meter_logger.c	DEBUG2_PIN = 0x1;
002e84   8681     bsf     0x81, 0x3, 0     	BSF	_PORTBbits, 3
002e86   0000     nop                      	nop
002e88   0000     nop                      	nop
002e8a   0000     nop                      	nop
002e8c   0000     nop                      	nop
002e8e   0000     nop                      	nop
002e90   0000     nop                      	nop
002e92   0000     nop                      	nop
002e94   0000     nop                      	nop
002e96   0000     nop                      	nop
002e98   0000     nop                      	nop
002e9a   0000     nop                      	nop
002e9c   0000     nop                      	nop
002e9e   0000     nop                      	nop
002ea0   0000     nop                      	nop
002ea2   0000     nop                      	nop
002ea4   0000     nop                      	nop
002ea6   0000     nop                      	nop
002ea8   0000     nop                      	nop
002eaa   0000     nop                      	nop
002eac   0000     nop                      	nop
002eae   0000     nop                      	nop
002eb0   0000     nop                      	nop
002eb2   0000     nop                      	nop
002eb4   0000     nop                      	nop
002eb6   0000     nop                      	nop
002eb8   0000     nop                      	nop
002eba   0000     nop                      	nop
002ebc   0000     nop                      	nop
002ebe   0000     nop                      	nop
002ec0   0000     nop                      	nop
002ec2   0000     nop                      	nop
002ec4   0000     nop                      	nop
002ec6   0000     nop                      	nop
002ec8   0000     nop                      	nop
002eca   0000     nop                      	nop
002ecc   0000     nop                      	nop
002ece   0000     nop                      	nop
002ed0   0000     nop                      	nop
002ed2   0000     nop                      	nop
002ed4   0000     nop                      	nop
002ed6   0000     nop                      	nop
002ed8   0000     nop                      	nop
002eda   0000     nop                      	nop
002edc   0000     nop                      	nop
002ede   0000     nop                      	nop
                                           	
                                           ;	.line	4238; meter_logger.c	DEBUG2_PIN = 0x0;
002ee0   9681     bcf     0x81, 0x3, 0     	BCF	_PORTBbits, 3
002ee2   0000     nop                      	nop
002ee4   0000     nop                      	nop
002ee6   0000     nop                      	nop
002ee8   0000     nop                      	nop
002eea   0000     nop                      	nop
002eec   0000     nop                      	nop
002eee   0000     nop                      	nop
002ef0   0000     nop                      	nop
002ef2   0000     nop                      	nop
002ef4   0000     nop                      	nop
002ef6   0000     nop                      	nop
002ef8   0000     nop                      	nop
002efa   0000     nop                      	nop
002efc   0000     nop                      	nop
002efe   0000     nop                      	nop
002f00   0000     nop                      	nop
002f02   0000     nop                      	nop
002f04   0000     nop                      	nop
002f06   0000     nop                      	nop
002f08   0000     nop                      	nop
002f0a   0000     nop                      	nop
002f0c   0000     nop                      	nop
002f0e   0000     nop                      	nop
002f10   0000     nop                      	nop
002f12   0000     nop                      	nop
002f14   0000     nop                      	nop
002f16   0000     nop                      	nop
002f18   0000     nop                      	nop
002f1a   0000     nop                      	nop
002f1c   0000     nop                      	nop
002f1e   0000     nop                      	nop
002f20   0000     nop                      	nop
002f22   0000     nop                      	nop
002f24   0000     nop                      	nop
002f26   0000     nop                      	nop
002f28   0000     nop                      	nop
002f2a   0000     nop                      	nop
002f2c   0000     nop                      	nop
002f2e   0000     nop                      	nop
002f30   0000     nop                      	nop
002f32   0000     nop                      	nop
002f34   0000     nop                      	nop
002f36   0000     nop                      	nop
002f38   0000     nop                      	nop
002f3a   0000     nop                      	nop
                                           	
002f3c   cfe4     movff   0xfe4, 0xfd9     	MOVFF	PREINC1, FSR2L
002f3e   ffd9
002f40   0012     return  0                	RETURN	
                                           
                                           ; ; Starting pCode block
                                           S_meter_logger___debug	code
                                           __debug:
                                           ;	.line	4089; meter_logger.c	void _debug() {
002f42   cfd9     movff   0xfd9, 0xfe5     	MOVFF	FSR2L, POSTDEC1
002f44   ffe5
002f46   cfe1     movff   0xfe1, 0xfd9     	MOVFF	FSR1L, FSR2L
002f48   ffd9
                                           ;	.line	4090; meter_logger.c	DEBUG_PIN = 0x1;
002f4a   8481     bsf     0x81, 0x2, 0     	BSF	_PORTBbits, 2
002f4c   0000     nop                      	nop
002f4e   0000     nop                      	nop
002f50   0000     nop                      	nop
002f52   0000     nop                      	nop
002f54   0000     nop                      	nop
002f56   0000     nop                      	nop
002f58   0000     nop                      	nop
002f5a   0000     nop                      	nop
002f5c   0000     nop                      	nop
002f5e   0000     nop                      	nop
002f60   0000     nop                      	nop
002f62   0000     nop                      	nop
002f64   0000     nop                      	nop
002f66   0000     nop                      	nop
002f68   0000     nop                      	nop
002f6a   0000     nop                      	nop
002f6c   0000     nop                      	nop
002f6e   0000     nop                      	nop
002f70   0000     nop                      	nop
002f72   0000     nop                      	nop
002f74   0000     nop                      	nop
002f76   0000     nop                      	nop
002f78   0000     nop                      	nop
002f7a   0000     nop                      	nop
002f7c   0000     nop                      	nop
002f7e   0000     nop                      	nop
002f80   0000     nop                      	nop
002f82   0000     nop                      	nop
002f84   0000     nop                      	nop
002f86   0000     nop                      	nop
002f88   0000     nop                      	nop
002f8a   0000     nop                      	nop
002f8c   0000     nop                      	nop
002f8e   0000     nop                      	nop
002f90   0000     nop                      	nop
002f92   0000     nop                      	nop
002f94   0000     nop                      	nop
002f96   0000     nop                      	nop
002f98   0000     nop                      	nop
002f9a   0000     nop                      	nop
002f9c   0000     nop                      	nop
002f9e   0000     nop                      	nop
002fa0   0000     nop                      	nop
002fa2   0000     nop                      	nop
002fa4   0000     nop                      	nop
                                           	
                                           ;	.line	4138; meter_logger.c	DEBUG_PIN = 0x0;
002fa6   9481     bcf     0x81, 0x2, 0     	BCF	_PORTBbits, 2
002fa8   0000     nop                      	nop
002faa   0000     nop                      	nop
002fac   0000     nop                      	nop
002fae   0000     nop                      	nop
002fb0   0000     nop                      	nop
002fb2   0000     nop                      	nop
002fb4   0000     nop                      	nop
002fb6   0000     nop                      	nop
002fb8   0000     nop                      	nop
002fba   0000     nop                      	nop
002fbc   0000     nop                      	nop
002fbe   0000     nop                      	nop
002fc0   0000     nop                      	nop
002fc2   0000     nop                      	nop
002fc4   0000     nop                      	nop
002fc6   0000     nop                      	nop
002fc8   0000     nop                      	nop
002fca   0000     nop                      	nop
002fcc   0000     nop                      	nop
002fce   0000     nop                      	nop
002fd0   0000     nop                      	nop
002fd2   0000     nop                      	nop
002fd4   0000     nop                      	nop
002fd6   0000     nop                      	nop
002fd8   0000     nop                      	nop
002fda   0000     nop                      	nop
002fdc   0000     nop                      	nop
002fde   0000     nop                      	nop
002fe0   0000     nop                      	nop
002fe2   0000     nop                      	nop
002fe4   0000     nop                      	nop
002fe6   0000     nop                      	nop
002fe8   0000     nop                      	nop
002fea   0000     nop                      	nop
002fec   0000     nop                      	nop
002fee   0000     nop                      	nop
002ff0   0000     nop                      	nop
002ff2   0000     nop                      	nop
002ff4   0000     nop                      	nop
002ff6   0000     nop                      	nop
002ff8   0000     nop                      	nop
002ffa   0000     nop                      	nop
002ffc   0000     nop                      	nop
002ffe   0000     nop                      	nop
003000   0000     nop                      	nop
                                           	
003002   cfe4     movff   0xfe4, 0xfd9     	MOVFF	PREINC1, FSR2L
003004   ffd9
003006   0012     return  0                	RETURN	
                                           
                                           ; ; Starting pCode block
                                           S_meter_logger__flash_led	code
                                           _flash_led:
                                           ;	.line	4084; meter_logger.c	void flash_led(unsigned char ms) {
003380   cfd9     movff   0xfd9, 0xfe5     	MOVFF	FSR2L, POSTDEC1
003382   ffe5
003384   cfe1     movff   0xfe1, 0xfd9     	MOVFF	FSR1L, FSR2L
003386   ffd9
003388   c000     movff   0, 0xfe5         	MOVFF	r0x00, POSTDEC1
00338a   ffe5
00338c   0e02     movlw   0x2              	MOVLW	0x02
00338e   cfdb     movff   0xfdb, 0         	MOVFF	PLUSW2, r0x00
003390   f000
                                           ;	.line	4085; meter_logger.c	led_flash.timer = ms;
003392   5000     movf    0, 0, 0          	MOVF	r0x00, W
003394   0105     movlb   0x5              	BANKSEL	(_led_flash + 1)
003396   6f1f     movwf   0x1f, 0x1        	MOVWF	(_led_flash + 1), B
                                           ; removed redundant BANKSEL
                                           ;	.line	4086; meter_logger.c	led_flash.state = LED_FLASH_RUN;
003398   6b1e     clrf    0x1e, 0x1        	CLRF	_led_flash, B
00339a   cfe4     movff   0xfe4, 0         	MOVFF	PREINC1, r0x00
00339c   f000
00339e   cfe4     movff   0xfe4, 0xfd9     	MOVFF	PREINC1, FSR2L
0033a0   ffd9
0033a2   0012     return  0                	RETURN	
                                           
                                           ; ; Starting pCode block
                                           S_meter_logger__fifo_snoop	code
                                           _fifo_snoop:
                                           ;	.line	4061; meter_logger.c	unsigned char fifo_snoop(unsigned char *c, unsigned int pos) {
00282a   cfd9     movff   0xfd9, 0xfe5     	MOVFF	FSR2L, POSTDEC1
00282c   ffe5
00282e   cfe1     movff   0xfe1, 0xfd9     	MOVFF	FSR1L, FSR2L
002830   ffd9
002832   c000     movff   0, 0xfe5         	MOVFF	r0x00, POSTDEC1
002834   ffe5
002836   c001     movff   0x1, 0xfe5       	MOVFF	r0x01, POSTDEC1
002838   ffe5
00283a   c002     movff   0x2, 0xfe5       	MOVFF	r0x02, POSTDEC1
00283c   ffe5
00283e   c003     movff   0x3, 0xfe5       	MOVFF	r0x03, POSTDEC1
002840   ffe5
002842   c004     movff   0x4, 0xfe5       	MOVFF	r0x04, POSTDEC1
002844   ffe5
002846   c005     movff   0x5, 0xfe5       	MOVFF	r0x05, POSTDEC1
002848   ffe5
00284a   c006     movff   0x6, 0xfe5       	MOVFF	r0x06, POSTDEC1
00284c   ffe5
00284e   0e02     movlw   0x2              	MOVLW	0x02
002850   cfdb     movff   0xfdb, 0         	MOVFF	PLUSW2, r0x00
002852   f000
002854   0e03     movlw   0x3              	MOVLW	0x03
002856   cfdb     movff   0xfdb, 0x1       	MOVFF	PLUSW2, r0x01
002858   f001
00285a   0e04     movlw   0x4              	MOVLW	0x04
00285c   cfdb     movff   0xfdb, 0x2       	MOVFF	PLUSW2, r0x02
00285e   f002
002860   0e05     movlw   0x5              	MOVLW	0x05
002862   cfdb     movff   0xfdb, 0x3       	MOVFF	PLUSW2, r0x03
002864   f003
002866   0e06     movlw   0x6              	MOVLW	0x06
002868   cfdb     movff   0xfdb, 0x4       	MOVFF	PLUSW2, r0x04
00286a   f004
                                           ;	.line	4062; meter_logger.c	if (fifo_in_use() > (pos)) {
00286c   ec39     call    0x3272, 0        	CALL	_fifo_in_use
00286e   f019
002870   6e05     movwf   0x5, 0           	MOVWF	r0x05
002872   cff3     movff   0xff3, 0x6       	MOVFF	PRODL, r0x06
002874   f006
002876   5006     movf    0x6, 0, 0        	MOVF	r0x06, W
002878   5c04     subwf   0x4, 0, 0        	SUBWF	r0x04, W
00287a   e102     bnz     0x2880           	BNZ	_00899_DS_
00287c   5005     movf    0x5, 0, 0        	MOVF	r0x05, W
00287e   5c03     subwf   0x3, 0, 0        	SUBWF	r0x03, W
                                           _00899_DS_:
002880   b0d8     btfsc   0xd8, 0, 0       	BTFSC	STATUS, 0
002882   d091     bra     0x29a6           	BRA	_00889_DS_
002884   0105     movlb   0x5              	BANKSEL	(_fifo_tail + 1)
                                           ;	.line	4063; meter_logger.c	switch (fifo_tail/QUEUE_SIZE) {
002886   5117     movf    0x17, 0, 0x1     	MOVF	(_fifo_tail + 1), W, B
002888   6e05     movwf   0x5, 0           	MOVWF	r0x05
00288a   6a06     clrf    0x6, 0           	CLRF	r0x06
00288c   0e00     movlw   0                	MOVLW	0x00
00288e   5c06     subwf   0x6, 0, 0        	SUBWF	r0x06, W
002890   e102     bnz     0x2896           	BNZ	_00900_DS_
002892   0e04     movlw   0x4              	MOVLW	0x04
002894   5c05     subwf   0x5, 0, 0        	SUBWF	r0x05, W
                                           _00900_DS_:
002896   b0d8     btfsc   0xd8, 0, 0       	BTFSC	STATUS, 0
002898   d084     bra     0x29a2           	BRA	_00887_DS_
00289a   6afa     clrf    0xfa, 0          	CLRF	PCLATH
00289c   6afb     clrf    0xfb, 0          	CLRF	PCLATU
00289e   3405     rlcf    0x5, 0, 0        	RLCF	r0x05, W
0028a0   36fa     rlcf    0xfa, 0x1, 0     	RLCF	PCLATH, F
0028a2   34e8     rlcf    0xe8, 0, 0       	RLCF	WREG, W
0028a4   36fa     rlcf    0xfa, 0x1, 0     	RLCF	PCLATH, F
0028a6   0bfc     andlw   0xfc             	ANDLW	0xfc
0028a8   0fb8     addlw   0xb8             	ADDLW	LOW(_00901_DS_)
0028aa   6ee5     movwf   0xe5, 0          	MOVWF	POSTDEC1
0028ac   0e28     movlw   0x28             	MOVLW	HIGH(_00901_DS_)
0028ae   22fa     addwfc  0xfa, 0x1, 0     	ADDWFC	PCLATH, F
0028b0   0e00     movlw   0                	MOVLW	UPPER(_00901_DS_)
0028b2   22fb     addwfc  0xfb, 0x1, 0     	ADDWFC	PCLATU, F
0028b4   50e4     movf    0xe4, 0, 0       	MOVF	PREINC1, W
0028b6   6ef9     movwf   0xf9, 0          	MOVWF	PCL
                                           _00901_DS_:
0028b8   ef64     goto    0x28c8           	GOTO	_00883_DS_
0028ba   f014
0028bc   ef80     goto    0x2900           	GOTO	_00884_DS_
0028be   f014
0028c0   ef9c     goto    0x2938           	GOTO	_00885_DS_
0028c2   f014
0028c4   efb8     goto    0x2970           	GOTO	_00886_DS_
0028c6   f014
                                           _00883_DS_:
                                           ;	.line	4065; meter_logger.c	*c = fifo_buffer_0[(fifo_tail + pos) % QUEUE_SIZE];
0028c8   5003     movf    0x3, 0, 0        	MOVF	r0x03, W
0028ca   0105     movlb   0x5              	BANKSEL	_fifo_tail
0028cc   2516     addwf   0x16, 0, 0x1     	ADDWF	_fifo_tail, W, B
0028ce   6e05     movwf   0x5, 0           	MOVWF	r0x05
0028d0   5004     movf    0x4, 0, 0        	MOVF	r0x04, W
                                           ; removed redundant BANKSEL
0028d2   2117     addwfc  0x17, 0, 0x1     	ADDWFC	(_fifo_tail + 1), W, B
0028d4   6e06     movwf   0x6, 0           	MOVWF	r0x06
0028d6   6a06     clrf    0x6, 0           	CLRF	r0x06
0028d8   0e00     movlw   0                	MOVLW	LOW(_fifo_buffer_0)
0028da   2605     addwf   0x5, 0x1, 0      	ADDWF	r0x05, F
0028dc   0e07     movlw   0x7              	MOVLW	HIGH(_fifo_buffer_0)
0028de   2206     addwfc  0x6, 0x1, 0      	ADDWFC	r0x06, F
0028e0   c005     movff   0x5, 0xfe9       	MOVFF	r0x05, FSR0L
0028e2   ffe9
0028e4   c006     movff   0x6, 0xfea       	MOVFF	r0x06, FSR0H
0028e6   ffea
0028e8   cfef     movff   0xfef, 0x5       	MOVFF	INDF0, r0x05
0028ea   f005
0028ec   c005     movff   0x5, 0xfe5       	MOVFF	r0x05, POSTDEC1
0028ee   ffe5
0028f0   c000     movff   0, 0xfe9         	MOVFF	r0x00, FSR0L
0028f2   ffe9
0028f4   c001     movff   0x1, 0xff3       	MOVFF	r0x01, PRODL
0028f6   fff3
0028f8   5002     movf    0x2, 0, 0        	MOVF	r0x02, W
0028fa   ec20     call    0x3440, 0        	CALL	__gptrput1
0028fc   f01a
                                           ;	.line	4066; meter_logger.c	break;
0028fe   d051     bra     0x29a2           	BRA	_00887_DS_
                                           _00884_DS_:
                                           ;	.line	4068; meter_logger.c	*c = fifo_buffer_1[(fifo_tail + pos) % QUEUE_SIZE];
002900   5003     movf    0x3, 0, 0        	MOVF	r0x03, W
002902   0105     movlb   0x5              	BANKSEL	_fifo_tail
002904   2516     addwf   0x16, 0, 0x1     	ADDWF	_fifo_tail, W, B
002906   6e05     movwf   0x5, 0           	MOVWF	r0x05
002908   5004     movf    0x4, 0, 0        	MOVF	r0x04, W
                                           ; removed redundant BANKSEL
00290a   2117     addwfc  0x17, 0, 0x1     	ADDWFC	(_fifo_tail + 1), W, B
00290c   6e06     movwf   0x6, 0           	MOVWF	r0x06
00290e   6a06     clrf    0x6, 0           	CLRF	r0x06
002910   0e00     movlw   0                	MOVLW	LOW(_fifo_buffer_1)
002912   2605     addwf   0x5, 0x1, 0      	ADDWF	r0x05, F
002914   0e01     movlw   0x1              	MOVLW	HIGH(_fifo_buffer_1)
002916   2206     addwfc  0x6, 0x1, 0      	ADDWFC	r0x06, F
002918   c005     movff   0x5, 0xfe9       	MOVFF	r0x05, FSR0L
00291a   ffe9
00291c   c006     movff   0x6, 0xfea       	MOVFF	r0x06, FSR0H
00291e   ffea
002920   cfef     movff   0xfef, 0x5       	MOVFF	INDF0, r0x05
002922   f005
002924   c005     movff   0x5, 0xfe5       	MOVFF	r0x05, POSTDEC1
002926   ffe5
002928   c000     movff   0, 0xfe9         	MOVFF	r0x00, FSR0L
00292a   ffe9
00292c   c001     movff   0x1, 0xff3       	MOVFF	r0x01, PRODL
00292e   fff3
002930   5002     movf    0x2, 0, 0        	MOVF	r0x02, W
002932   ec20     call    0x3440, 0        	CALL	__gptrput1
002934   f01a
                                           ;	.line	4069; meter_logger.c	break;
002936   d035     bra     0x29a2           	BRA	_00887_DS_
                                           _00885_DS_:
                                           ;	.line	4071; meter_logger.c	*c = fifo_buffer_2[(fifo_tail + pos) % QUEUE_SIZE];
002938   5003     movf    0x3, 0, 0        	MOVF	r0x03, W
00293a   0105     movlb   0x5              	BANKSEL	_fifo_tail
00293c   2516     addwf   0x16, 0, 0x1     	ADDWF	_fifo_tail, W, B
00293e   6e05     movwf   0x5, 0           	MOVWF	r0x05
002940   5004     movf    0x4, 0, 0        	MOVF	r0x04, W
                                           ; removed redundant BANKSEL
002942   2117     addwfc  0x17, 0, 0x1     	ADDWFC	(_fifo_tail + 1), W, B
002944   6e06     movwf   0x6, 0           	MOVWF	r0x06
002946   6a06     clrf    0x6, 0           	CLRF	r0x06
002948   0e00     movlw   0                	MOVLW	LOW(_fifo_buffer_2)
00294a   2605     addwf   0x5, 0x1, 0      	ADDWF	r0x05, F
00294c   0e02     movlw   0x2              	MOVLW	HIGH(_fifo_buffer_2)
00294e   2206     addwfc  0x6, 0x1, 0      	ADDWFC	r0x06, F
002950   c005     movff   0x5, 0xfe9       	MOVFF	r0x05, FSR0L
002952   ffe9
002954   c006     movff   0x6, 0xfea       	MOVFF	r0x06, FSR0H
002956   ffea
002958   cfef     movff   0xfef, 0x5       	MOVFF	INDF0, r0x05
00295a   f005
00295c   c005     movff   0x5, 0xfe5       	MOVFF	r0x05, POSTDEC1
00295e   ffe5
002960   c000     movff   0, 0xfe9         	MOVFF	r0x00, FSR0L
002962   ffe9
002964   c001     movff   0x1, 0xff3       	MOVFF	r0x01, PRODL
002966   fff3
002968   5002     movf    0x2, 0, 0        	MOVF	r0x02, W
00296a   ec20     call    0x3440, 0        	CALL	__gptrput1
00296c   f01a
                                           ;	.line	4072; meter_logger.c	break;
00296e   d019     bra     0x29a2           	BRA	_00887_DS_
                                           _00886_DS_:
002970   0105     movlb   0x5              	BANKSEL	_fifo_tail
                                           ;	.line	4074; meter_logger.c	*c = fifo_buffer_3[(fifo_tail + pos) % QUEUE_SIZE];
002972   5116     movf    0x16, 0, 0x1     	MOVF	_fifo_tail, W, B
002974   2603     addwf   0x3, 0x1, 0      	ADDWF	r0x03, F
                                           ; removed redundant BANKSEL
002976   5117     movf    0x17, 0, 0x1     	MOVF	(_fifo_tail + 1), W, B
002978   2204     addwfc  0x4, 0x1, 0      	ADDWFC	r0x04, F
00297a   6a04     clrf    0x4, 0           	CLRF	r0x04
00297c   0e00     movlw   0                	MOVLW	LOW(_fifo_buffer_3)
00297e   2603     addwf   0x3, 0x1, 0      	ADDWF	r0x03, F
002980   0e03     movlw   0x3              	MOVLW	HIGH(_fifo_buffer_3)
002982   2204     addwfc  0x4, 0x1, 0      	ADDWFC	r0x04, F
002984   c003     movff   0x3, 0xfe9       	MOVFF	r0x03, FSR0L
002986   ffe9
002988   c004     movff   0x4, 0xfea       	MOVFF	r0x04, FSR0H
00298a   ffea
00298c   cfef     movff   0xfef, 0x3       	MOVFF	INDF0, r0x03
00298e   f003
002990   c003     movff   0x3, 0xfe5       	MOVFF	r0x03, POSTDEC1
002992   ffe5
002994   c000     movff   0, 0xfe9         	MOVFF	r0x00, FSR0L
002996   ffe9
002998   c001     movff   0x1, 0xff3       	MOVFF	r0x01, PRODL
00299a   fff3
00299c   5002     movf    0x2, 0, 0        	MOVF	r0x02, W
00299e   ec20     call    0x3440, 0        	CALL	__gptrput1
0029a0   f01a
                                           _00887_DS_:
                                           ;	.line	4077; meter_logger.c	return 1;
0029a2   0e01     movlw   0x1              	MOVLW	0x01
0029a4   d001     bra     0x29a8           	BRA	_00891_DS_
                                           _00889_DS_:
                                           ;	.line	4080; meter_logger.c	return 0;
0029a6   6ae8     clrf    0xe8, 0          	CLRF	WREG
                                           _00891_DS_:
0029a8   cfe4     movff   0xfe4, 0x6       	MOVFF	PREINC1, r0x06
0029aa   f006
0029ac   cfe4     movff   0xfe4, 0x5       	MOVFF	PREINC1, r0x05
0029ae   f005
0029b0   cfe4     movff   0xfe4, 0x4       	MOVFF	PREINC1, r0x04
0029b2   f004
0029b4   cfe4     movff   0xfe4, 0x3       	MOVFF	PREINC1, r0x03
0029b6   f003
0029b8   cfe4     movff   0xfe4, 0x2       	MOVFF	PREINC1, r0x02
0029ba   f002
0029bc   cfe4     movff   0xfe4, 0x1       	MOVFF	PREINC1, r0x01
0029be   f001
0029c0   cfe4     movff   0xfe4, 0         	MOVFF	PREINC1, r0x00
0029c2   f000
0029c4   cfe4     movff   0xfe4, 0xfd9     	MOVFF	PREINC1, FSR2L
0029c6   ffd9
0029c8   0012     return  0                	RETURN	
                                           
                                           ; ; Starting pCode block
                                           S_meter_logger__fifo_get	code
                                           _fifo_get:
                                           ;	.line	4033; meter_logger.c	unsigned char fifo_get(unsigned char *c) {
0029ca   cfd9     movff   0xfd9, 0xfe5     	MOVFF	FSR2L, POSTDEC1
0029cc   ffe5
0029ce   cfe1     movff   0xfe1, 0xfd9     	MOVFF	FSR1L, FSR2L
0029d0   ffd9
0029d2   c000     movff   0, 0xfe5         	MOVFF	r0x00, POSTDEC1
0029d4   ffe5
0029d6   c001     movff   0x1, 0xfe5       	MOVFF	r0x01, POSTDEC1
0029d8   ffe5
0029da   c002     movff   0x2, 0xfe5       	MOVFF	r0x02, POSTDEC1
0029dc   ffe5
0029de   c003     movff   0x3, 0xfe5       	MOVFF	r0x03, POSTDEC1
0029e0   ffe5
0029e2   c004     movff   0x4, 0xfe5       	MOVFF	r0x04, POSTDEC1
0029e4   ffe5
0029e6   0e02     movlw   0x2              	MOVLW	0x02
0029e8   cfdb     movff   0xfdb, 0         	MOVFF	PLUSW2, r0x00
0029ea   f000
0029ec   0e03     movlw   0x3              	MOVLW	0x03
0029ee   cfdb     movff   0xfdb, 0x1       	MOVFF	PLUSW2, r0x01
0029f0   f001
0029f2   0e04     movlw   0x4              	MOVLW	0x04
0029f4   cfdb     movff   0xfdb, 0x2       	MOVFF	PLUSW2, r0x02
0029f6   f002
                                           ;	.line	4034; meter_logger.c	if (fifo_in_use() != 0) {
0029f8   ec39     call    0x3272, 0        	CALL	_fifo_in_use
0029fa   f019
0029fc   6e03     movwf   0x3, 0           	MOVWF	r0x03
0029fe   cff3     movff   0xff3, 0x4       	MOVFF	PRODL, r0x04
002a00   f004
002a02   5003     movf    0x3, 0, 0        	MOVF	r0x03, W
002a04   1004     iorwf   0x4, 0, 0        	IORWF	r0x04, W
002a06   b4d8     btfsc   0xd8, 0x2, 0     	BTFSC	STATUS, 2
002a08   d091     bra     0x2b2c           	BRA	_00858_DS_
002a0a   0105     movlb   0x5              	BANKSEL	(_fifo_tail + 1)
                                           ;	.line	4035; meter_logger.c	switch (fifo_tail/QUEUE_SIZE) {
002a0c   5117     movf    0x17, 0, 0x1     	MOVF	(_fifo_tail + 1), W, B
002a0e   6e03     movwf   0x3, 0           	MOVWF	r0x03
002a10   6a04     clrf    0x4, 0           	CLRF	r0x04
002a12   0e00     movlw   0                	MOVLW	0x00
002a14   5c04     subwf   0x4, 0, 0        	SUBWF	r0x04, W
002a16   e102     bnz     0x2a1c           	BNZ	_00871_DS_
002a18   0e04     movlw   0x4              	MOVLW	0x04
002a1a   5c03     subwf   0x3, 0, 0        	SUBWF	r0x03, W
                                           _00871_DS_:
002a1c   b0d8     btfsc   0xd8, 0, 0       	BTFSC	STATUS, 0
002a1e   d076     bra     0x2b0c           	BRA	_00854_DS_
002a20   6afa     clrf    0xfa, 0          	CLRF	PCLATH
002a22   6afb     clrf    0xfb, 0          	CLRF	PCLATU
002a24   3403     rlcf    0x3, 0, 0        	RLCF	r0x03, W
002a26   36fa     rlcf    0xfa, 0x1, 0     	RLCF	PCLATH, F
002a28   34e8     rlcf    0xe8, 0, 0       	RLCF	WREG, W
002a2a   36fa     rlcf    0xfa, 0x1, 0     	RLCF	PCLATH, F
002a2c   0bfc     andlw   0xfc             	ANDLW	0xfc
002a2e   0f3e     addlw   0x3e             	ADDLW	LOW(_00872_DS_)
002a30   6ee5     movwf   0xe5, 0          	MOVWF	POSTDEC1
002a32   0e2a     movlw   0x2a             	MOVLW	HIGH(_00872_DS_)
002a34   22fa     addwfc  0xfa, 0x1, 0     	ADDWFC	PCLATH, F
002a36   0e00     movlw   0                	MOVLW	UPPER(_00872_DS_)
002a38   22fb     addwfc  0xfb, 0x1, 0     	ADDWFC	PCLATU, F
002a3a   50e4     movf    0xe4, 0, 0       	MOVF	PREINC1, W
002a3c   6ef9     movwf   0xf9, 0          	MOVWF	PCL
                                           _00872_DS_:
002a3e   ef27     goto    0x2a4e           	GOTO	_00850_DS_
002a40   f015
002a42   ef3f     goto    0x2a7e           	GOTO	_00851_DS_
002a44   f015
002a46   ef57     goto    0x2aae           	GOTO	_00852_DS_
002a48   f015
002a4a   ef6f     goto    0x2ade           	GOTO	_00853_DS_
002a4c   f015
                                           _00850_DS_:
002a4e   0105     movlb   0x5              	BANKSEL	_fifo_tail
                                           ;	.line	4037; meter_logger.c	*c = fifo_buffer_0[fifo_tail % QUEUE_SIZE];
002a50   5116     movf    0x16, 0, 0x1     	MOVF	_fifo_tail, W, B
002a52   6e03     movwf   0x3, 0           	MOVWF	r0x03
002a54   6a04     clrf    0x4, 0           	CLRF	r0x04
002a56   0e00     movlw   0                	MOVLW	LOW(_fifo_buffer_0)
002a58   2603     addwf   0x3, 0x1, 0      	ADDWF	r0x03, F
002a5a   0e07     movlw   0x7              	MOVLW	HIGH(_fifo_buffer_0)
002a5c   2204     addwfc  0x4, 0x1, 0      	ADDWFC	r0x04, F
002a5e   c003     movff   0x3, 0xfe9       	MOVFF	r0x03, FSR0L
002a60   ffe9
002a62   c004     movff   0x4, 0xfea       	MOVFF	r0x04, FSR0H
002a64   ffea
002a66   cfef     movff   0xfef, 0x3       	MOVFF	INDF0, r0x03
002a68   f003
002a6a   c003     movff   0x3, 0xfe5       	MOVFF	r0x03, POSTDEC1
002a6c   ffe5
002a6e   c000     movff   0, 0xfe9         	MOVFF	r0x00, FSR0L
002a70   ffe9
002a72   c001     movff   0x1, 0xff3       	MOVFF	r0x01, PRODL
002a74   fff3
002a76   5002     movf    0x2, 0, 0        	MOVF	r0x02, W
002a78   ec20     call    0x3440, 0        	CALL	__gptrput1
002a7a   f01a
                                           ;	.line	4038; meter_logger.c	break;
002a7c   d047     bra     0x2b0c           	BRA	_00854_DS_
                                           _00851_DS_:
002a7e   0105     movlb   0x5              	BANKSEL	_fifo_tail
                                           ;	.line	4040; meter_logger.c	*c = fifo_buffer_1[fifo_tail % QUEUE_SIZE];
002a80   5116     movf    0x16, 0, 0x1     	MOVF	_fifo_tail, W, B
002a82   6e03     movwf   0x3, 0           	MOVWF	r0x03
002a84   6a04     clrf    0x4, 0           	CLRF	r0x04
002a86   0e00     movlw   0                	MOVLW	LOW(_fifo_buffer_1)
002a88   2603     addwf   0x3, 0x1, 0      	ADDWF	r0x03, F
002a8a   0e01     movlw   0x1              	MOVLW	HIGH(_fifo_buffer_1)
002a8c   2204     addwfc  0x4, 0x1, 0      	ADDWFC	r0x04, F
002a8e   c003     movff   0x3, 0xfe9       	MOVFF	r0x03, FSR0L
002a90   ffe9
002a92   c004     movff   0x4, 0xfea       	MOVFF	r0x04, FSR0H
002a94   ffea
002a96   cfef     movff   0xfef, 0x3       	MOVFF	INDF0, r0x03
002a98   f003
002a9a   c003     movff   0x3, 0xfe5       	MOVFF	r0x03, POSTDEC1
002a9c   ffe5
002a9e   c000     movff   0, 0xfe9         	MOVFF	r0x00, FSR0L
002aa0   ffe9
002aa2   c001     movff   0x1, 0xff3       	MOVFF	r0x01, PRODL
002aa4   fff3
002aa6   5002     movf    0x2, 0, 0        	MOVF	r0x02, W
002aa8   ec20     call    0x3440, 0        	CALL	__gptrput1
002aaa   f01a
                                           ;	.line	4041; meter_logger.c	break;
002aac   d02f     bra     0x2b0c           	BRA	_00854_DS_
                                           _00852_DS_:
002aae   0105     movlb   0x5              	BANKSEL	_fifo_tail
                                           ;	.line	4043; meter_logger.c	*c = fifo_buffer_2[fifo_tail % QUEUE_SIZE];
002ab0   5116     movf    0x16, 0, 0x1     	MOVF	_fifo_tail, W, B
002ab2   6e03     movwf   0x3, 0           	MOVWF	r0x03
002ab4   6a04     clrf    0x4, 0           	CLRF	r0x04
002ab6   0e00     movlw   0                	MOVLW	LOW(_fifo_buffer_2)
002ab8   2603     addwf   0x3, 0x1, 0      	ADDWF	r0x03, F
002aba   0e02     movlw   0x2              	MOVLW	HIGH(_fifo_buffer_2)
002abc   2204     addwfc  0x4, 0x1, 0      	ADDWFC	r0x04, F
002abe   c003     movff   0x3, 0xfe9       	MOVFF	r0x03, FSR0L
002ac0   ffe9
002ac2   c004     movff   0x4, 0xfea       	MOVFF	r0x04, FSR0H
002ac4   ffea
002ac6   cfef     movff   0xfef, 0x3       	MOVFF	INDF0, r0x03
002ac8   f003
002aca   c003     movff   0x3, 0xfe5       	MOVFF	r0x03, POSTDEC1
002acc   ffe5
002ace   c000     movff   0, 0xfe9         	MOVFF	r0x00, FSR0L
002ad0   ffe9
002ad2   c001     movff   0x1, 0xff3       	MOVFF	r0x01, PRODL
002ad4   fff3
002ad6   5002     movf    0x2, 0, 0        	MOVF	r0x02, W
002ad8   ec20     call    0x3440, 0        	CALL	__gptrput1
002ada   f01a
                                           ;	.line	4044; meter_logger.c	break;
002adc   d017     bra     0x2b0c           	BRA	_00854_DS_
                                           _00853_DS_:
002ade   0105     movlb   0x5              	BANKSEL	_fifo_tail
                                           ;	.line	4046; meter_logger.c	*c = fifo_buffer_3[fifo_tail % QUEUE_SIZE];
002ae0   5116     movf    0x16, 0, 0x1     	MOVF	_fifo_tail, W, B
002ae2   6e03     movwf   0x3, 0           	MOVWF	r0x03
002ae4   6a04     clrf    0x4, 0           	CLRF	r0x04
002ae6   0e00     movlw   0                	MOVLW	LOW(_fifo_buffer_3)
002ae8   2603     addwf   0x3, 0x1, 0      	ADDWF	r0x03, F
002aea   0e03     movlw   0x3              	MOVLW	HIGH(_fifo_buffer_3)
002aec   2204     addwfc  0x4, 0x1, 0      	ADDWFC	r0x04, F
002aee   c003     movff   0x3, 0xfe9       	MOVFF	r0x03, FSR0L
002af0   ffe9
002af2   c004     movff   0x4, 0xfea       	MOVFF	r0x04, FSR0H
002af4   ffea
002af6   cfef     movff   0xfef, 0x3       	MOVFF	INDF0, r0x03
002af8   f003
002afa   c003     movff   0x3, 0xfe5       	MOVFF	r0x03, POSTDEC1
002afc   ffe5
002afe   c000     movff   0, 0xfe9         	MOVFF	r0x00, FSR0L
002b00   ffe9
002b02   c001     movff   0x1, 0xff3       	MOVFF	r0x01, PRODL
002b04   fff3
002b06   5002     movf    0x2, 0, 0        	MOVF	r0x02, W
002b08   ec20     call    0x3440, 0        	CALL	__gptrput1
002b0a   f01a
                                           _00854_DS_:
002b0c   0105     movlb   0x5              	BANKSEL	_fifo_tail
                                           ;	.line	4049; meter_logger.c	fifo_tail++;
002b0e   3f16     incfsz  0x16, 0x1, 0x1   	INCFSZ	_fifo_tail, F, B
002b10   d001     bra     0x2b14           	BRA	_10916_DS_
                                           ; removed redundant BANKSEL
002b12   2b17     incf    0x17, 0x1, 0x1   	INCF	(_fifo_tail + 1), F, B
                                           _10916_DS_:
002b14   0105     movlb   0x5              	BANKSEL	_fifo_tail
                                           ;	.line	4051; meter_logger.c	if (fifo_tail == QUEUE_SIZE_COMBINED) {
002b16   5116     movf    0x16, 0, 0x1     	MOVF	_fifo_tail, W, B
002b18   e103     bnz     0x2b20           	BNZ	_00877_DS_
                                           ; removed redundant BANKSEL
002b1a   5117     movf    0x17, 0, 0x1     	MOVF	(_fifo_tail + 1), W, B
002b1c   0a04     xorlw   0x4              	XORLW	0x04
002b1e   e001     bz      0x2b22           	BZ	_00878_DS_
                                           _00877_DS_:
002b20   d003     bra     0x2b28           	BRA	_00856_DS_
                                           _00878_DS_:
002b22   0105     movlb   0x5              	BANKSEL	_fifo_tail
                                           ;	.line	4052; meter_logger.c	fifo_tail = 0;
002b24   6b16     clrf    0x16, 0x1        	CLRF	_fifo_tail, B
                                           ; removed redundant BANKSEL
002b26   6b17     clrf    0x17, 0x1        	CLRF	(_fifo_tail + 1), B
                                           _00856_DS_:
                                           ;	.line	4054; meter_logger.c	return 1;
002b28   0e01     movlw   0x1              	MOVLW	0x01
002b2a   d001     bra     0x2b2e           	BRA	_00860_DS_
                                           _00858_DS_:
                                           ;	.line	4057; meter_logger.c	return 0;
002b2c   6ae8     clrf    0xe8, 0          	CLRF	WREG
                                           _00860_DS_:
002b2e   cfe4     movff   0xfe4, 0x4       	MOVFF	PREINC1, r0x04
002b30   f004
002b32   cfe4     movff   0xfe4, 0x3       	MOVFF	PREINC1, r0x03
002b34   f003
002b36   cfe4     movff   0xfe4, 0x2       	MOVFF	PREINC1, r0x02
002b38   f002
002b3a   cfe4     movff   0xfe4, 0x1       	MOVFF	PREINC1, r0x01
002b3c   f001
002b3e   cfe4     movff   0xfe4, 0         	MOVFF	PREINC1, r0x00
002b40   f000
002b42   cfe4     movff   0xfe4, 0xfd9     	MOVFF	PREINC1, FSR2L
002b44   ffd9
002b46   0012     return  0                	RETURN	
                                           
                                           ; ; Starting pCode block
                                           S_meter_logger__fifo_put	code
                                           _fifo_put:
                                           ;	.line	4005; meter_logger.c	unsigned char fifo_put(unsigned char c) {
002c92   cfd9     movff   0xfd9, 0xfe5     	MOVFF	FSR2L, POSTDEC1
002c94   ffe5
002c96   cfe1     movff   0xfe1, 0xfd9     	MOVFF	FSR1L, FSR2L
002c98   ffd9
002c9a   c000     movff   0, 0xfe5         	MOVFF	r0x00, POSTDEC1
002c9c   ffe5
002c9e   c001     movff   0x1, 0xfe5       	MOVFF	r0x01, POSTDEC1
002ca0   ffe5
002ca2   c002     movff   0x2, 0xfe5       	MOVFF	r0x02, POSTDEC1
002ca4   ffe5
002ca6   0e02     movlw   0x2              	MOVLW	0x02
002ca8   cfdb     movff   0xfdb, 0         	MOVFF	PLUSW2, r0x00
002caa   f000
                                           ;	.line	4006; meter_logger.c	if (fifo_in_use() != QUEUE_SIZE_COMBINED) {
002cac   ec39     call    0x3272, 0        	CALL	_fifo_in_use
002cae   f019
002cb0   6e01     movwf   0x1, 0           	MOVWF	r0x01
002cb2   cff3     movff   0xff3, 0x2       	MOVFF	PRODL, r0x02
002cb4   f002
002cb6   5001     movf    0x1, 0, 0        	MOVF	r0x01, W
002cb8   e104     bnz     0x2cc2           	BNZ	_00837_DS_
002cba   5002     movf    0x2, 0, 0        	MOVF	r0x02, W
002cbc   0a04     xorlw   0x4              	XORLW	0x04
002cbe   e101     bnz     0x2cc2           	BNZ	_00837_DS_
002cc0   d06d     bra     0x2d9c           	BRA	_00823_DS_
                                           _00837_DS_:
002cc2   0105     movlb   0x5              	BANKSEL	(_fifo_head + 1)
                                           ;	.line	4007; meter_logger.c	switch (fifo_head/QUEUE_SIZE) {
002cc4   5115     movf    0x15, 0, 0x1     	MOVF	(_fifo_head + 1), W, B
002cc6   6e01     movwf   0x1, 0           	MOVWF	r0x01
002cc8   6a02     clrf    0x2, 0           	CLRF	r0x02
002cca   0e00     movlw   0                	MOVLW	0x00
002ccc   5c02     subwf   0x2, 0, 0        	SUBWF	r0x02, W
002cce   e102     bnz     0x2cd4           	BNZ	_00838_DS_
002cd0   0e04     movlw   0x4              	MOVLW	0x04
002cd2   5c01     subwf   0x1, 0, 0        	SUBWF	r0x01, W
                                           _00838_DS_:
002cd4   b0d8     btfsc   0xd8, 0, 0       	BTFSC	STATUS, 0
002cd6   d052     bra     0x2d7c           	BRA	_00819_DS_
002cd8   6afa     clrf    0xfa, 0          	CLRF	PCLATH
002cda   6afb     clrf    0xfb, 0          	CLRF	PCLATU
002cdc   3401     rlcf    0x1, 0, 0        	RLCF	r0x01, W
002cde   36fa     rlcf    0xfa, 0x1, 0     	RLCF	PCLATH, F
002ce0   34e8     rlcf    0xe8, 0, 0       	RLCF	WREG, W
002ce2   36fa     rlcf    0xfa, 0x1, 0     	RLCF	PCLATH, F
002ce4   0bfc     andlw   0xfc             	ANDLW	0xfc
002ce6   0ff6     addlw   0xf6             	ADDLW	LOW(_00839_DS_)
002ce8   6ee5     movwf   0xe5, 0          	MOVWF	POSTDEC1
002cea   0e2c     movlw   0x2c             	MOVLW	HIGH(_00839_DS_)
002cec   22fa     addwfc  0xfa, 0x1, 0     	ADDWFC	PCLATH, F
002cee   0e00     movlw   0                	MOVLW	UPPER(_00839_DS_)
002cf0   22fb     addwfc  0xfb, 0x1, 0     	ADDWFC	PCLATU, F
002cf2   50e4     movf    0xe4, 0, 0       	MOVF	PREINC1, W
002cf4   6ef9     movwf   0xf9, 0          	MOVWF	PCL
                                           _00839_DS_:
002cf6   ef83     goto    0x2d06           	GOTO	_00815_DS_
002cf8   f016
002cfa   ef92     goto    0x2d24           	GOTO	_00816_DS_
002cfc   f016
002cfe   efa1     goto    0x2d42           	GOTO	_00817_DS_
002d00   f016
002d02   efb0     goto    0x2d60           	GOTO	_00818_DS_
002d04   f016
                                           _00815_DS_:
002d06   0105     movlb   0x5              	BANKSEL	_fifo_head
                                           ;	.line	4009; meter_logger.c	fifo_buffer_0[fifo_head % QUEUE_SIZE] = c;
002d08   5114     movf    0x14, 0, 0x1     	MOVF	_fifo_head, W, B
002d0a   6e01     movwf   0x1, 0           	MOVWF	r0x01
002d0c   6a02     clrf    0x2, 0           	CLRF	r0x02
002d0e   0e00     movlw   0                	MOVLW	LOW(_fifo_buffer_0)
002d10   2601     addwf   0x1, 0x1, 0      	ADDWF	r0x01, F
002d12   0e07     movlw   0x7              	MOVLW	HIGH(_fifo_buffer_0)
002d14   2202     addwfc  0x2, 0x1, 0      	ADDWFC	r0x02, F
002d16   c001     movff   0x1, 0xfe9       	MOVFF	r0x01, FSR0L
002d18   ffe9
002d1a   c002     movff   0x2, 0xfea       	MOVFF	r0x02, FSR0H
002d1c   ffea
002d1e   c000     movff   0, 0xfef         	MOVFF	r0x00, INDF0
002d20   ffef
                                           ;	.line	4010; meter_logger.c	break;
002d22   d02c     bra     0x2d7c           	BRA	_00819_DS_
                                           _00816_DS_:
002d24   0105     movlb   0x5              	BANKSEL	_fifo_head
                                           ;	.line	4012; meter_logger.c	fifo_buffer_1[fifo_head % QUEUE_SIZE] = c;
002d26   5114     movf    0x14, 0, 0x1     	MOVF	_fifo_head, W, B
002d28   6e01     movwf   0x1, 0           	MOVWF	r0x01
002d2a   6a02     clrf    0x2, 0           	CLRF	r0x02
002d2c   0e00     movlw   0                	MOVLW	LOW(_fifo_buffer_1)
002d2e   2601     addwf   0x1, 0x1, 0      	ADDWF	r0x01, F
002d30   0e01     movlw   0x1              	MOVLW	HIGH(_fifo_buffer_1)
002d32   2202     addwfc  0x2, 0x1, 0      	ADDWFC	r0x02, F
002d34   c001     movff   0x1, 0xfe9       	MOVFF	r0x01, FSR0L
002d36   ffe9
002d38   c002     movff   0x2, 0xfea       	MOVFF	r0x02, FSR0H
002d3a   ffea
002d3c   c000     movff   0, 0xfef         	MOVFF	r0x00, INDF0
002d3e   ffef
                                           ;	.line	4013; meter_logger.c	break;
002d40   d01d     bra     0x2d7c           	BRA	_00819_DS_
                                           _00817_DS_:
002d42   0105     movlb   0x5              	BANKSEL	_fifo_head
                                           ;	.line	4015; meter_logger.c	fifo_buffer_2[fifo_head % QUEUE_SIZE] = c;
002d44   5114     movf    0x14, 0, 0x1     	MOVF	_fifo_head, W, B
002d46   6e01     movwf   0x1, 0           	MOVWF	r0x01
002d48   6a02     clrf    0x2, 0           	CLRF	r0x02
002d4a   0e00     movlw   0                	MOVLW	LOW(_fifo_buffer_2)
002d4c   2601     addwf   0x1, 0x1, 0      	ADDWF	r0x01, F
002d4e   0e02     movlw   0x2              	MOVLW	HIGH(_fifo_buffer_2)
002d50   2202     addwfc  0x2, 0x1, 0      	ADDWFC	r0x02, F
002d52   c001     movff   0x1, 0xfe9       	MOVFF	r0x01, FSR0L
002d54   ffe9
002d56   c002     movff   0x2, 0xfea       	MOVFF	r0x02, FSR0H
002d58   ffea
002d5a   c000     movff   0, 0xfef         	MOVFF	r0x00, INDF0
002d5c   ffef
                                           ;	.line	4016; meter_logger.c	break;
002d5e   d00e     bra     0x2d7c           	BRA	_00819_DS_
                                           _00818_DS_:
002d60   0105     movlb   0x5              	BANKSEL	_fifo_head
                                           ;	.line	4018; meter_logger.c	fifo_buffer_3[fifo_head % QUEUE_SIZE] = c;
002d62   5114     movf    0x14, 0, 0x1     	MOVF	_fifo_head, W, B
002d64   6e01     movwf   0x1, 0           	MOVWF	r0x01
002d66   6a02     clrf    0x2, 0           	CLRF	r0x02
002d68   0e00     movlw   0                	MOVLW	LOW(_fifo_buffer_3)
002d6a   2601     addwf   0x1, 0x1, 0      	ADDWF	r0x01, F
002d6c   0e03     movlw   0x3              	MOVLW	HIGH(_fifo_buffer_3)
002d6e   2202     addwfc  0x2, 0x1, 0      	ADDWFC	r0x02, F
002d70   c001     movff   0x1, 0xfe9       	MOVFF	r0x01, FSR0L
002d72   ffe9
002d74   c002     movff   0x2, 0xfea       	MOVFF	r0x02, FSR0H
002d76   ffea
002d78   c000     movff   0, 0xfef         	MOVFF	r0x00, INDF0
002d7a   ffef
                                           _00819_DS_:
002d7c   0105     movlb   0x5              	BANKSEL	_fifo_head
                                           ;	.line	4021; meter_logger.c	fifo_head++;
002d7e   3f14     incfsz  0x14, 0x1, 0x1   	INCFSZ	_fifo_head, F, B
002d80   d001     bra     0x2d84           	BRA	_20917_DS_
                                           ; removed redundant BANKSEL
002d82   2b15     incf    0x15, 0x1, 0x1   	INCF	(_fifo_head + 1), F, B
                                           _20917_DS_:
002d84   0105     movlb   0x5              	BANKSEL	_fifo_head
                                           ;	.line	4023; meter_logger.c	if (fifo_head == QUEUE_SIZE_COMBINED) {
002d86   5114     movf    0x14, 0, 0x1     	MOVF	_fifo_head, W, B
002d88   e103     bnz     0x2d90           	BNZ	_00844_DS_
                                           ; removed redundant BANKSEL
002d8a   5115     movf    0x15, 0, 0x1     	MOVF	(_fifo_head + 1), W, B
002d8c   0a04     xorlw   0x4              	XORLW	0x04
002d8e   e001     bz      0x2d92           	BZ	_00845_DS_
                                           _00844_DS_:
002d90   d003     bra     0x2d98           	BRA	_00821_DS_
                                           _00845_DS_:
002d92   0105     movlb   0x5              	BANKSEL	_fifo_head
                                           ;	.line	4024; meter_logger.c	fifo_head = 0;
002d94   6b14     clrf    0x14, 0x1        	CLRF	_fifo_head, B
                                           ; removed redundant BANKSEL
002d96   6b15     clrf    0x15, 0x1        	CLRF	(_fifo_head + 1), B
                                           _00821_DS_:
                                           ;	.line	4026; meter_logger.c	return 1;
002d98   0e01     movlw   0x1              	MOVLW	0x01
002d9a   d001     bra     0x2d9e           	BRA	_00825_DS_
                                           _00823_DS_:
                                           ;	.line	4029; meter_logger.c	return 0;
002d9c   6ae8     clrf    0xe8, 0          	CLRF	WREG
                                           _00825_DS_:
002d9e   cfe4     movff   0xfe4, 0x2       	MOVFF	PREINC1, r0x02
002da0   f002
002da2   cfe4     movff   0xfe4, 0x1       	MOVFF	PREINC1, r0x01
002da4   f001
002da6   cfe4     movff   0xfe4, 0         	MOVFF	PREINC1, r0x00
002da8   f000
002daa   cfe4     movff   0xfe4, 0xfd9     	MOVFF	PREINC1, FSR2L
002dac   ffd9
002dae   0012     return  0                	RETURN	
                                           
                                           ; ; Starting pCode block
                                           S_meter_logger__fifo_in_use	code
                                           _fifo_in_use:
                                           ;	.line	4001; meter_logger.c	unsigned int fifo_in_use() {
003272   cfd9     movff   0xfd9, 0xfe5     	MOVFF	FSR2L, POSTDEC1
003274   ffe5
003276   cfe1     movff   0xfe1, 0xfd9     	MOVFF	FSR1L, FSR2L
003278   ffd9
00327a   c000     movff   0, 0xfe5         	MOVFF	r0x00, POSTDEC1
00327c   ffe5
00327e   c001     movff   0x1, 0xfe5       	MOVFF	r0x01, POSTDEC1
003280   ffe5
003282   0105     movlb   0x5              	BANKSEL	_fifo_tail
                                           ;	.line	4002; meter_logger.c	return fifo_head - fifo_tail;
003284   5116     movf    0x16, 0, 0x1     	MOVF	_fifo_tail, W, B
003286   0105     movlb   0x5              	BANKSEL	_fifo_head
003288   5d14     subwf   0x14, 0, 0x1     	SUBWF	_fifo_head, W, B
00328a   6e00     movwf   0, 0             	MOVWF	r0x00
00328c   0105     movlb   0x5              	BANKSEL	(_fifo_tail + 1)
00328e   5117     movf    0x17, 0, 0x1     	MOVF	(_fifo_tail + 1), W, B
003290   0105     movlb   0x5              	BANKSEL	(_fifo_head + 1)
003292   5915     subwfb  0x15, 0, 0x1     	SUBWFB	(_fifo_head + 1), W, B
003294   6e01     movwf   0x1, 0           	MOVWF	r0x01
003296   c001     movff   0x1, 0xff3       	MOVFF	r0x01, PRODL
003298   fff3
00329a   5000     movf    0, 0, 0          	MOVF	r0x00, W
00329c   cfe4     movff   0xfe4, 0x1       	MOVFF	PREINC1, r0x01
00329e   f001
0032a0   cfe4     movff   0xfe4, 0         	MOVFF	PREINC1, r0x00
0032a2   f000
0032a4   cfe4     movff   0xfe4, 0xfd9     	MOVFF	PREINC1, FSR2L
0032a6   ffd9
0032a8   0012     return  0                	RETURN	
                                           
                                           ; ; Starting pCode block
                                           S_meter_logger__fsk_tx_byte	code
                                           _fsk_tx_byte:
                                           ;	.line	3996; meter_logger.c	void fsk_tx_byte(unsigned char c) {
00335a   cfd9     movff   0xfd9, 0xfe5     	MOVFF	FSR2L, POSTDEC1
00335c   ffe5
00335e   cfe1     movff   0xfe1, 0xfd9     	MOVFF	FSR1L, FSR2L
003360   ffd9
003362   c000     movff   0, 0xfe5         	MOVFF	r0x00, POSTDEC1
003364   ffe5
003366   0e02     movlw   0x2              	MOVLW	0x02
003368   cfdb     movff   0xfdb, 0         	MOVFF	PLUSW2, r0x00
00336a   f000
                                           ;	.line	3997; meter_logger.c	fsk_proto.data = c;
00336c   5000     movf    0, 0, 0          	MOVF	r0x00, W
00336e   0100     movlb   0                	BANKSEL	(_fsk_proto + 12)
003370   6fec     movwf   0xec, 0x1        	MOVWF	(_fsk_proto + 12), B
                                           ;	.line	3998; meter_logger.c	fsk_proto.data_len = 8;
003372   0e08     movlw   0x8              	MOVLW	0x08
                                           ; removed redundant BANKSEL
003374   6fed     movwf   0xed, 0x1        	MOVWF	(_fsk_proto + 13), B
003376   cfe4     movff   0xfe4, 0         	MOVFF	PREINC1, r0x00
003378   f000
00337a   cfe4     movff   0xfe4, 0xfd9     	MOVFF	PREINC1, FSR2L
00337c   ffd9
00337e   0012     return  0                	RETURN	
                                           
                                           ; ; Starting pCode block
                                           S_meter_logger__send_fsk_low	code
                                           _send_fsk_low:
                                           ;	.line	2543; meter_logger.c	void send_fsk_low(void) {
000bdc   cfd9     movff   0xfd9, 0xfe5     	MOVFF	FSR2L, POSTDEC1
000bde   ffe5
000be0   cfe1     movff   0xfe1, 0xfd9     	MOVFF	FSR1L, FSR2L
000be2   ffd9
                                           ;	.line	2544; meter_logger.c	PWM_PIN = 1;
000be4   8282     bsf     0x82, 0x1, 0     	BSF	_PORTCbits, 1
000be6   0000     nop                      	nop
000be8   0000     nop                      	nop
000bea   0000     nop                      	nop
000bec   0000     nop                      	nop
000bee   0000     nop                      	nop
000bf0   0000     nop                      	nop
000bf2   0000     nop                      	nop
000bf4   0000     nop                      	nop
000bf6   0000     nop                      	nop
000bf8   0000     nop                      	nop
000bfa   0000     nop                      	nop
000bfc   0000     nop                      	nop
000bfe   0000     nop                      	nop
000c00   0000     nop                      	nop
000c02   0000     nop                      	nop
000c04   0000     nop                      	nop
000c06   0000     nop                      	nop
000c08   0000     nop                      	nop
000c0a   0000     nop                      	nop
000c0c   0000     nop                      	nop
000c0e   0000     nop                      	nop
000c10   0000     nop                      	nop
000c12   0000     nop                      	nop
000c14   0000     nop                      	nop
000c16   0000     nop                      	nop
000c18   0000     nop                      	nop
000c1a   0000     nop                      	nop
000c1c   0000     nop                      	nop
000c1e   0000     nop                      	nop
000c20   0000     nop                      	nop
000c22   0000     nop                      	nop
000c24   0000     nop                      	nop
000c26   0000     nop                      	nop
000c28   0000     nop                      	nop
000c2a   0000     nop                      	nop
000c2c   0000     nop                      	nop
000c2e   0000     nop                      	nop
000c30   0000     nop                      	nop
000c32   0000     nop                      	nop
000c34   0000     nop                      	nop
000c36   0000     nop                      	nop
000c38   0000     nop                      	nop
000c3a   0000     nop                      	nop
000c3c   0000     nop                      	nop
000c3e   0000     nop                      	nop
000c40   0000     nop                      	nop
000c42   0000     nop                      	nop
000c44   0000     nop                      	nop
000c46   0000     nop                      	nop
000c48   0000     nop                      	nop
000c4a   0000     nop                      	nop
000c4c   0000     nop                      	nop
000c4e   0000     nop                      	nop
000c50   0000     nop                      	nop
000c52   0000     nop                      	nop
000c54   0000     nop                      	nop
000c56   0000     nop                      	nop
000c58   0000     nop                      	nop
000c5a   0000     nop                      	nop
000c5c   0000     nop                      	nop
000c5e   0000     nop                      	nop
000c60   0000     nop                      	nop
000c62   0000     nop                      	nop
000c64   0000     nop                      	nop
000c66   0000     nop                      	nop
000c68   0000     nop                      	nop
000c6a   0000     nop                      	nop
000c6c   0000     nop                      	nop
000c6e   0000     nop                      	nop
000c70   0000     nop                      	nop
000c72   0000     nop                      	nop
000c74   0000     nop                      	nop
000c76   0000     nop                      	nop
000c78   0000     nop                      	nop
000c7a   0000     nop                      	nop
000c7c   0000     nop                      	nop
000c7e   0000     nop                      	nop
000c80   0000     nop                      	nop
000c82   0000     nop                      	nop
000c84   0000     nop                      	nop
000c86   0000     nop                      	nop
000c88   0000     nop                      	nop
000c8a   0000     nop                      	nop
000c8c   0000     nop                      	nop
000c8e   0000     nop                      	nop
000c90   0000     nop                      	nop
000c92   0000     nop                      	nop
000c94   0000     nop                      	nop
000c96   0000     nop                      	nop
000c98   0000     nop                      	nop
000c9a   0000     nop                      	nop
000c9c   0000     nop                      	nop
000c9e   0000     nop                      	nop
000ca0   0000     nop                      	nop
000ca2   0000     nop                      	nop
000ca4   0000     nop                      	nop
000ca6   0000     nop                      	nop
000ca8   0000     nop                      	nop
000caa   0000     nop                      	nop
000cac   0000     nop                      	nop
000cae   0000     nop                      	nop
000cb0   0000     nop                      	nop
000cb2   0000     nop                      	nop
000cb4   0000     nop                      	nop
000cb6   0000     nop                      	nop
000cb8   0000     nop                      	nop
000cba   0000     nop                      	nop
000cbc   0000     nop                      	nop
000cbe   0000     nop                      	nop
000cc0   0000     nop                      	nop
000cc2   0000     nop                      	nop
000cc4   0000     nop                      	nop
000cc6   0000     nop                      	nop
000cc8   0000     nop                      	nop
000cca   0000     nop                      	nop
000ccc   0000     nop                      	nop
000cce   0000     nop                      	nop
000cd0   0000     nop                      	nop
000cd2   0000     nop                      	nop
000cd4   0000     nop                      	nop
000cd6   0000     nop                      	nop
000cd8   0000     nop                      	nop
000cda   0000     nop                      	nop
000cdc   0000     nop                      	nop
000cde   0000     nop                      	nop
000ce0   0000     nop                      	nop
000ce2   0000     nop                      	nop
000ce4   0000     nop                      	nop
000ce6   0000     nop                      	nop
000ce8   0000     nop                      	nop
000cea   0000     nop                      	nop
000cec   0000     nop                      	nop
000cee   0000     nop                      	nop
000cf0   0000     nop                      	nop
000cf2   0000     nop                      	nop
000cf4   0000     nop                      	nop
000cf6   0000     nop                      	nop
000cf8   0000     nop                      	nop
000cfa   0000     nop                      	nop
000cfc   0000     nop                      	nop
000cfe   0000     nop                      	nop
000d00   0000     nop                      	nop
000d02   0000     nop                      	nop
000d04   0000     nop                      	nop
000d06   0000     nop                      	nop
000d08   0000     nop                      	nop
000d0a   0000     nop                      	nop
000d0c   0000     nop                      	nop
000d0e   0000     nop                      	nop
000d10   0000     nop                      	nop
000d12   0000     nop                      	nop
000d14   0000     nop                      	nop
000d16   0000     nop                      	nop
000d18   0000     nop                      	nop
000d1a   0000     nop                      	nop
000d1c   0000     nop                      	nop
000d1e   0000     nop                      	nop
000d20   0000     nop                      	nop
000d22   0000     nop                      	nop
000d24   0000     nop                      	nop
000d26   0000     nop                      	nop
000d28   0000     nop                      	nop
000d2a   0000     nop                      	nop
000d2c   0000     nop                      	nop
000d2e   0000     nop                      	nop
000d30   0000     nop                      	nop
000d32   0000     nop                      	nop
000d34   0000     nop                      	nop
000d36   0000     nop                      	nop
000d38   0000     nop                      	nop
000d3a   0000     nop                      	nop
000d3c   0000     nop                      	nop
000d3e   0000     nop                      	nop
000d40   0000     nop                      	nop
000d42   0000     nop                      	nop
000d44   0000     nop                      	nop
000d46   0000     nop                      	nop
000d48   0000     nop                      	nop
000d4a   0000     nop                      	nop
000d4c   0000     nop                      	nop
000d4e   0000     nop                      	nop
000d50   0000     nop                      	nop
000d52   0000     nop                      	nop
000d54   0000     nop                      	nop
000d56   0000     nop                      	nop
000d58   0000     nop                      	nop
000d5a   0000     nop                      	nop
000d5c   0000     nop                      	nop
000d5e   0000     nop                      	nop
000d60   0000     nop                      	nop
000d62   0000     nop                      	nop
000d64   0000     nop                      	nop
000d66   0000     nop                      	nop
000d68   0000     nop                      	nop
000d6a   0000     nop                      	nop
000d6c   0000     nop                      	nop
000d6e   0000     nop                      	nop
000d70   0000     nop                      	nop
000d72   0000     nop                      	nop
000d74   0000     nop                      	nop
000d76   0000     nop                      	nop
000d78   0000     nop                      	nop
000d7a   0000     nop                      	nop
000d7c   0000     nop                      	nop
                                           	
                                           ;	.line	2751; meter_logger.c	PWM_PIN = 0;
000d7e   9282     bcf     0x82, 0x1, 0     	BCF	_PORTCbits, 1
000d80   0000     nop                      	nop
000d82   0000     nop                      	nop
000d84   0000     nop                      	nop
000d86   0000     nop                      	nop
000d88   0000     nop                      	nop
000d8a   0000     nop                      	nop
000d8c   0000     nop                      	nop
000d8e   0000     nop                      	nop
000d90   0000     nop                      	nop
000d92   0000     nop                      	nop
000d94   0000     nop                      	nop
000d96   0000     nop                      	nop
000d98   0000     nop                      	nop
000d9a   0000     nop                      	nop
000d9c   0000     nop                      	nop
000d9e   0000     nop                      	nop
000da0   0000     nop                      	nop
000da2   0000     nop                      	nop
000da4   0000     nop                      	nop
000da6   0000     nop                      	nop
000da8   0000     nop                      	nop
000daa   0000     nop                      	nop
000dac   0000     nop                      	nop
000dae   0000     nop                      	nop
000db0   0000     nop                      	nop
000db2   0000     nop                      	nop
000db4   0000     nop                      	nop
000db6   0000     nop                      	nop
000db8   0000     nop                      	nop
000dba   0000     nop                      	nop
000dbc   0000     nop                      	nop
000dbe   0000     nop                      	nop
000dc0   0000     nop                      	nop
000dc2   0000     nop                      	nop
000dc4   0000     nop                      	nop
000dc6   0000     nop                      	nop
000dc8   0000     nop                      	nop
000dca   0000     nop                      	nop
000dcc   0000     nop                      	nop
000dce   0000     nop                      	nop
000dd0   0000     nop                      	nop
000dd2   0000     nop                      	nop
000dd4   0000     nop                      	nop
000dd6   0000     nop                      	nop
000dd8   0000     nop                      	nop
000dda   0000     nop                      	nop
000ddc   0000     nop                      	nop
000dde   0000     nop                      	nop
000de0   0000     nop                      	nop
000de2   0000     nop                      	nop
000de4   0000     nop                      	nop
000de6   0000     nop                      	nop
000de8   0000     nop                      	nop
000dea   0000     nop                      	nop
000dec   0000     nop                      	nop
000dee   0000     nop                      	nop
000df0   0000     nop                      	nop
000df2   0000     nop                      	nop
000df4   0000     nop                      	nop
000df6   0000     nop                      	nop
000df8   0000     nop                      	nop
000dfa   0000     nop                      	nop
000dfc   0000     nop                      	nop
000dfe   0000     nop                      	nop
000e00   0000     nop                      	nop
000e02   0000     nop                      	nop
000e04   0000     nop                      	nop
000e06   0000     nop                      	nop
000e08   0000     nop                      	nop
000e0a   0000     nop                      	nop
000e0c   0000     nop                      	nop
000e0e   0000     nop                      	nop
000e10   0000     nop                      	nop
000e12   0000     nop                      	nop
000e14   0000     nop                      	nop
000e16   0000     nop                      	nop
000e18   0000     nop                      	nop
000e1a   0000     nop                      	nop
000e1c   0000     nop                      	nop
000e1e   0000     nop                      	nop
000e20   0000     nop                      	nop
000e22   0000     nop                      	nop
000e24   0000     nop                      	nop
000e26   0000     nop                      	nop
000e28   0000     nop                      	nop
000e2a   0000     nop                      	nop
000e2c   0000     nop                      	nop
000e2e   0000     nop                      	nop
000e30   0000     nop                      	nop
000e32   0000     nop                      	nop
000e34   0000     nop                      	nop
000e36   0000     nop                      	nop
000e38   0000     nop                      	nop
000e3a   0000     nop                      	nop
000e3c   0000     nop                      	nop
000e3e   0000     nop                      	nop
000e40   0000     nop                      	nop
000e42   0000     nop                      	nop
000e44   0000     nop                      	nop
000e46   0000     nop                      	nop
000e48   0000     nop                      	nop
000e4a   0000     nop                      	nop
000e4c   0000     nop                      	nop
000e4e   0000     nop                      	nop
000e50   0000     nop                      	nop
000e52   0000     nop                      	nop
000e54   0000     nop                      	nop
000e56   0000     nop                      	nop
000e58   0000     nop                      	nop
000e5a   0000     nop                      	nop
000e5c   0000     nop                      	nop
000e5e   0000     nop                      	nop
000e60   0000     nop                      	nop
000e62   0000     nop                      	nop
000e64   0000     nop                      	nop
000e66   0000     nop                      	nop
000e68   0000     nop                      	nop
000e6a   0000     nop                      	nop
000e6c   0000     nop                      	nop
000e6e   0000     nop                      	nop
000e70   0000     nop                      	nop
000e72   0000     nop                      	nop
000e74   0000     nop                      	nop
000e76   0000     nop                      	nop
000e78   0000     nop                      	nop
000e7a   0000     nop                      	nop
000e7c   0000     nop                      	nop
000e7e   0000     nop                      	nop
000e80   0000     nop                      	nop
000e82   0000     nop                      	nop
000e84   0000     nop                      	nop
000e86   0000     nop                      	nop
000e88   0000     nop                      	nop
000e8a   0000     nop                      	nop
000e8c   0000     nop                      	nop
000e8e   0000     nop                      	nop
000e90   0000     nop                      	nop
000e92   0000     nop                      	nop
000e94   0000     nop                      	nop
000e96   0000     nop                      	nop
000e98   0000     nop                      	nop
000e9a   0000     nop                      	nop
000e9c   0000     nop                      	nop
000e9e   0000     nop                      	nop
000ea0   0000     nop                      	nop
000ea2   0000     nop                      	nop
000ea4   0000     nop                      	nop
000ea6   0000     nop                      	nop
000ea8   0000     nop                      	nop
000eaa   0000     nop                      	nop
000eac   0000     nop                      	nop
000eae   0000     nop                      	nop
000eb0   0000     nop                      	nop
000eb2   0000     nop                      	nop
000eb4   0000     nop                      	nop
000eb6   0000     nop                      	nop
000eb8   0000     nop                      	nop
000eba   0000     nop                      	nop
000ebc   0000     nop                      	nop
000ebe   0000     nop                      	nop
000ec0   0000     nop                      	nop
000ec2   0000     nop                      	nop
000ec4   0000     nop                      	nop
000ec6   0000     nop                      	nop
000ec8   0000     nop                      	nop
000eca   0000     nop                      	nop
000ecc   0000     nop                      	nop
000ece   0000     nop                      	nop
000ed0   0000     nop                      	nop
000ed2   0000     nop                      	nop
000ed4   0000     nop                      	nop
000ed6   0000     nop                      	nop
000ed8   0000     nop                      	nop
000eda   0000     nop                      	nop
000edc   0000     nop                      	nop
000ede   0000     nop                      	nop
000ee0   0000     nop                      	nop
000ee2   0000     nop                      	nop
000ee4   0000     nop                      	nop
000ee6   0000     nop                      	nop
000ee8   0000     nop                      	nop
000eea   0000     nop                      	nop
000eec   0000     nop                      	nop
000eee   0000     nop                      	nop
000ef0   0000     nop                      	nop
000ef2   0000     nop                      	nop
000ef4   0000     nop                      	nop
000ef6   0000     nop                      	nop
000ef8   0000     nop                      	nop
000efa   0000     nop                      	nop
000efc   0000     nop                      	nop
000efe   0000     nop                      	nop
000f00   0000     nop                      	nop
000f02   0000     nop                      	nop
000f04   0000     nop                      	nop
000f06   0000     nop                      	nop
000f08   0000     nop                      	nop
000f0a   0000     nop                      	nop
000f0c   0000     nop                      	nop
000f0e   0000     nop                      	nop
000f10   0000     nop                      	nop
000f12   0000     nop                      	nop
000f14   0000     nop                      	nop
000f16   0000     nop                      	nop
                                           	
                                           ;	.line	2958; meter_logger.c	PWM_PIN = 1;
000f18   8282     bsf     0x82, 0x1, 0     	BSF	_PORTCbits, 1
000f1a   0000     nop                      	nop
000f1c   0000     nop                      	nop
000f1e   0000     nop                      	nop
000f20   0000     nop                      	nop
000f22   0000     nop                      	nop
000f24   0000     nop                      	nop
000f26   0000     nop                      	nop
000f28   0000     nop                      	nop
000f2a   0000     nop                      	nop
000f2c   0000     nop                      	nop
000f2e   0000     nop                      	nop
000f30   0000     nop                      	nop
000f32   0000     nop                      	nop
000f34   0000     nop                      	nop
000f36   0000     nop                      	nop
000f38   0000     nop                      	nop
000f3a   0000     nop                      	nop
000f3c   0000     nop                      	nop
000f3e   0000     nop                      	nop
000f40   0000     nop                      	nop
000f42   0000     nop                      	nop
000f44   0000     nop                      	nop
000f46   0000     nop                      	nop
000f48   0000     nop                      	nop
000f4a   0000     nop                      	nop
000f4c   0000     nop                      	nop
000f4e   0000     nop                      	nop
000f50   0000     nop                      	nop
000f52   0000     nop                      	nop
000f54   0000     nop                      	nop
000f56   0000     nop                      	nop
000f58   0000     nop                      	nop
000f5a   0000     nop                      	nop
000f5c   0000     nop                      	nop
000f5e   0000     nop                      	nop
000f60   0000     nop                      	nop
000f62   0000     nop                      	nop
000f64   0000     nop                      	nop
000f66   0000     nop                      	nop
000f68   0000     nop                      	nop
000f6a   0000     nop                      	nop
000f6c   0000     nop                      	nop
000f6e   0000     nop                      	nop
000f70   0000     nop                      	nop
000f72   0000     nop                      	nop
000f74   0000     nop                      	nop
000f76   0000     nop                      	nop
000f78   0000     nop                      	nop
000f7a   0000     nop                      	nop
000f7c   0000     nop                      	nop
000f7e   0000     nop                      	nop
000f80   0000     nop                      	nop
000f82   0000     nop                      	nop
000f84   0000     nop                      	nop
000f86   0000     nop                      	nop
000f88   0000     nop                      	nop
000f8a   0000     nop                      	nop
000f8c   0000     nop                      	nop
000f8e   0000     nop                      	nop
000f90   0000     nop                      	nop
000f92   0000     nop                      	nop
000f94   0000     nop                      	nop
000f96   0000     nop                      	nop
000f98   0000     nop                      	nop
000f9a   0000     nop                      	nop
000f9c   0000     nop                      	nop
000f9e   0000     nop                      	nop
000fa0   0000     nop                      	nop
000fa2   0000     nop                      	nop
000fa4   0000     nop                      	nop
000fa6   0000     nop                      	nop
000fa8   0000     nop                      	nop
000faa   0000     nop                      	nop
000fac   0000     nop                      	nop
000fae   0000     nop                      	nop
000fb0   0000     nop                      	nop
000fb2   0000     nop                      	nop
000fb4   0000     nop                      	nop
000fb6   0000     nop                      	nop
000fb8   0000     nop                      	nop
000fba   0000     nop                      	nop
000fbc   0000     nop                      	nop
000fbe   0000     nop                      	nop
000fc0   0000     nop                      	nop
000fc2   0000     nop                      	nop
000fc4   0000     nop                      	nop
000fc6   0000     nop                      	nop
000fc8   0000     nop                      	nop
000fca   0000     nop                      	nop
000fcc   0000     nop                      	nop
000fce   0000     nop                      	nop
000fd0   0000     nop                      	nop
000fd2   0000     nop                      	nop
000fd4   0000     nop                      	nop
000fd6   0000     nop                      	nop
000fd8   0000     nop                      	nop
000fda   0000     nop                      	nop
000fdc   0000     nop                      	nop
000fde   0000     nop                      	nop
000fe0   0000     nop                      	nop
000fe2   0000     nop                      	nop
000fe4   0000     nop                      	nop
000fe6   0000     nop                      	nop
000fe8   0000     nop                      	nop
000fea   0000     nop                      	nop
000fec   0000     nop                      	nop
000fee   0000     nop                      	nop
000ff0   0000     nop                      	nop
000ff2   0000     nop                      	nop
000ff4   0000     nop                      	nop
000ff6   0000     nop                      	nop
000ff8   0000     nop                      	nop
000ffa   0000     nop                      	nop
000ffc   0000     nop                      	nop
000ffe   0000     nop                      	nop
001000   0000     nop                      	nop
001002   0000     nop                      	nop
001004   0000     nop                      	nop
001006   0000     nop                      	nop
001008   0000     nop                      	nop
00100a   0000     nop                      	nop
00100c   0000     nop                      	nop
00100e   0000     nop                      	nop
001010   0000     nop                      	nop
001012   0000     nop                      	nop
001014   0000     nop                      	nop
001016   0000     nop                      	nop
001018   0000     nop                      	nop
00101a   0000     nop                      	nop
00101c   0000     nop                      	nop
00101e   0000     nop                      	nop
001020   0000     nop                      	nop
001022   0000     nop                      	nop
001024   0000     nop                      	nop
001026   0000     nop                      	nop
001028   0000     nop                      	nop
00102a   0000     nop                      	nop
00102c   0000     nop                      	nop
00102e   0000     nop                      	nop
001030   0000     nop                      	nop
001032   0000     nop                      	nop
001034   0000     nop                      	nop
001036   0000     nop                      	nop
001038   0000     nop                      	nop
00103a   0000     nop                      	nop
00103c   0000     nop                      	nop
00103e   0000     nop                      	nop
001040   0000     nop                      	nop
001042   0000     nop                      	nop
001044   0000     nop                      	nop
001046   0000     nop                      	nop
001048   0000     nop                      	nop
00104a   0000     nop                      	nop
00104c   0000     nop                      	nop
00104e   0000     nop                      	nop
001050   0000     nop                      	nop
001052   0000     nop                      	nop
001054   0000     nop                      	nop
001056   0000     nop                      	nop
001058   0000     nop                      	nop
00105a   0000     nop                      	nop
00105c   0000     nop                      	nop
00105e   0000     nop                      	nop
001060   0000     nop                      	nop
001062   0000     nop                      	nop
001064   0000     nop                      	nop
001066   0000     nop                      	nop
001068   0000     nop                      	nop
00106a   0000     nop                      	nop
00106c   0000     nop                      	nop
00106e   0000     nop                      	nop
001070   0000     nop                      	nop
001072   0000     nop                      	nop
001074   0000     nop                      	nop
001076   0000     nop                      	nop
001078   0000     nop                      	nop
00107a   0000     nop                      	nop
00107c   0000     nop                      	nop
00107e   0000     nop                      	nop
001080   0000     nop                      	nop
001082   0000     nop                      	nop
001084   0000     nop                      	nop
001086   0000     nop                      	nop
001088   0000     nop                      	nop
00108a   0000     nop                      	nop
00108c   0000     nop                      	nop
00108e   0000     nop                      	nop
001090   0000     nop                      	nop
001092   0000     nop                      	nop
001094   0000     nop                      	nop
001096   0000     nop                      	nop
001098   0000     nop                      	nop
00109a   0000     nop                      	nop
00109c   0000     nop                      	nop
00109e   0000     nop                      	nop
0010a0   0000     nop                      	nop
0010a2   0000     nop                      	nop
0010a4   0000     nop                      	nop
0010a6   0000     nop                      	nop
0010a8   0000     nop                      	nop
0010aa   0000     nop                      	nop
0010ac   0000     nop                      	nop
0010ae   0000     nop                      	nop
0010b0   0000     nop                      	nop
                                           	
                                           ;	.line	3165; meter_logger.c	PWM_PIN = 0;
0010b2   9282     bcf     0x82, 0x1, 0     	BCF	_PORTCbits, 1
0010b4   0000     nop                      	nop
0010b6   0000     nop                      	nop
0010b8   0000     nop                      	nop
0010ba   0000     nop                      	nop
0010bc   0000     nop                      	nop
0010be   0000     nop                      	nop
0010c0   0000     nop                      	nop
0010c2   0000     nop                      	nop
0010c4   0000     nop                      	nop
0010c6   0000     nop                      	nop
0010c8   0000     nop                      	nop
0010ca   0000     nop                      	nop
0010cc   0000     nop                      	nop
0010ce   0000     nop                      	nop
0010d0   0000     nop                      	nop
0010d2   0000     nop                      	nop
0010d4   0000     nop                      	nop
0010d6   0000     nop                      	nop
0010d8   0000     nop                      	nop
0010da   0000     nop                      	nop
0010dc   0000     nop                      	nop
0010de   0000     nop                      	nop
0010e0   0000     nop                      	nop
0010e2   0000     nop                      	nop
0010e4   0000     nop                      	nop
0010e6   0000     nop                      	nop
0010e8   0000     nop                      	nop
0010ea   0000     nop                      	nop
0010ec   0000     nop                      	nop
0010ee   0000     nop                      	nop
0010f0   0000     nop                      	nop
0010f2   0000     nop                      	nop
0010f4   0000     nop                      	nop
0010f6   0000     nop                      	nop
0010f8   0000     nop                      	nop
0010fa   0000     nop                      	nop
0010fc   0000     nop                      	nop
0010fe   0000     nop                      	nop
001100   0000     nop                      	nop
001102   0000     nop                      	nop
001104   0000     nop                      	nop
001106   0000     nop                      	nop
001108   0000     nop                      	nop
00110a   0000     nop                      	nop
00110c   0000     nop                      	nop
00110e   0000     nop                      	nop
001110   0000     nop                      	nop
001112   0000     nop                      	nop
001114   0000     nop                      	nop
001116   0000     nop                      	nop
001118   0000     nop                      	nop
00111a   0000     nop                      	nop
00111c   0000     nop                      	nop
00111e   0000     nop                      	nop
001120   0000     nop                      	nop
001122   0000     nop                      	nop
001124   0000     nop                      	nop
001126   0000     nop                      	nop
001128   0000     nop                      	nop
00112a   0000     nop                      	nop
00112c   0000     nop                      	nop
00112e   0000     nop                      	nop
001130   0000     nop                      	nop
001132   0000     nop                      	nop
001134   0000     nop                      	nop
001136   0000     nop                      	nop
001138   0000     nop                      	nop
00113a   0000     nop                      	nop
00113c   0000     nop                      	nop
00113e   0000     nop                      	nop
001140   0000     nop                      	nop
001142   0000     nop                      	nop
001144   0000     nop                      	nop
001146   0000     nop                      	nop
001148   0000     nop                      	nop
00114a   0000     nop                      	nop
00114c   0000     nop                      	nop
00114e   0000     nop                      	nop
001150   0000     nop                      	nop
001152   0000     nop                      	nop
001154   0000     nop                      	nop
001156   0000     nop                      	nop
001158   0000     nop                      	nop
00115a   0000     nop                      	nop
00115c   0000     nop                      	nop
00115e   0000     nop                      	nop
001160   0000     nop                      	nop
001162   0000     nop                      	nop
001164   0000     nop                      	nop
001166   0000     nop                      	nop
001168   0000     nop                      	nop
00116a   0000     nop                      	nop
00116c   0000     nop                      	nop
00116e   0000     nop                      	nop
001170   0000     nop                      	nop
001172   0000     nop                      	nop
001174   0000     nop                      	nop
001176   0000     nop                      	nop
001178   0000     nop                      	nop
00117a   0000     nop                      	nop
00117c   0000     nop                      	nop
00117e   0000     nop                      	nop
001180   0000     nop                      	nop
001182   0000     nop                      	nop
001184   0000     nop                      	nop
001186   0000     nop                      	nop
001188   0000     nop                      	nop
00118a   0000     nop                      	nop
00118c   0000     nop                      	nop
00118e   0000     nop                      	nop
001190   0000     nop                      	nop
001192   0000     nop                      	nop
001194   0000     nop                      	nop
001196   0000     nop                      	nop
001198   0000     nop                      	nop
00119a   0000     nop                      	nop
00119c   0000     nop                      	nop
00119e   0000     nop                      	nop
0011a0   0000     nop                      	nop
0011a2   0000     nop                      	nop
0011a4   0000     nop                      	nop
0011a6   0000     nop                      	nop
0011a8   0000     nop                      	nop
0011aa   0000     nop                      	nop
0011ac   0000     nop                      	nop
0011ae   0000     nop                      	nop
0011b0   0000     nop                      	nop
0011b2   0000     nop                      	nop
0011b4   0000     nop                      	nop
0011b6   0000     nop                      	nop
0011b8   0000     nop                      	nop
0011ba   0000     nop                      	nop
0011bc   0000     nop                      	nop
0011be   0000     nop                      	nop
0011c0   0000     nop                      	nop
0011c2   0000     nop                      	nop
0011c4   0000     nop                      	nop
0011c6   0000     nop                      	nop
0011c8   0000     nop                      	nop
0011ca   0000     nop                      	nop
0011cc   0000     nop                      	nop
0011ce   0000     nop                      	nop
0011d0   0000     nop                      	nop
0011d2   0000     nop                      	nop
0011d4   0000     nop                      	nop
0011d6   0000     nop                      	nop
0011d8   0000     nop                      	nop
0011da   0000     nop                      	nop
0011dc   0000     nop                      	nop
0011de   0000     nop                      	nop
0011e0   0000     nop                      	nop
0011e2   0000     nop                      	nop
0011e4   0000     nop                      	nop
0011e6   0000     nop                      	nop
0011e8   0000     nop                      	nop
0011ea   0000     nop                      	nop
0011ec   0000     nop                      	nop
0011ee   0000     nop                      	nop
0011f0   0000     nop                      	nop
0011f2   0000     nop                      	nop
0011f4   0000     nop                      	nop
0011f6   0000     nop                      	nop
0011f8   0000     nop                      	nop
0011fa   0000     nop                      	nop
0011fc   0000     nop                      	nop
0011fe   0000     nop                      	nop
001200   0000     nop                      	nop
001202   0000     nop                      	nop
001204   0000     nop                      	nop
001206   0000     nop                      	nop
001208   0000     nop                      	nop
00120a   0000     nop                      	nop
00120c   0000     nop                      	nop
00120e   0000     nop                      	nop
001210   0000     nop                      	nop
001212   0000     nop                      	nop
001214   0000     nop                      	nop
001216   0000     nop                      	nop
001218   0000     nop                      	nop
00121a   0000     nop                      	nop
00121c   0000     nop                      	nop
00121e   0000     nop                      	nop
001220   0000     nop                      	nop
001222   0000     nop                      	nop
001224   0000     nop                      	nop
001226   0000     nop                      	nop
001228   0000     nop                      	nop
00122a   0000     nop                      	nop
00122c   0000     nop                      	nop
00122e   0000     nop                      	nop
001230   0000     nop                      	nop
001232   0000     nop                      	nop
001234   0000     nop                      	nop
001236   0000     nop                      	nop
001238   0000     nop                      	nop
00123a   0000     nop                      	nop
00123c   0000     nop                      	nop
00123e   0000     nop                      	nop
001240   0000     nop                      	nop
001242   0000     nop                      	nop
001244   0000     nop                      	nop
001246   0000     nop                      	nop
001248   0000     nop                      	nop
00124a   0000     nop                      	nop
                                           	
                                           ;	.line	3372; meter_logger.c	PWM_PIN = 1;
00124c   8282     bsf     0x82, 0x1, 0     	BSF	_PORTCbits, 1
00124e   0000     nop                      	nop
001250   0000     nop                      	nop
001252   0000     nop                      	nop
001254   0000     nop                      	nop
001256   0000     nop                      	nop
001258   0000     nop                      	nop
00125a   0000     nop                      	nop
00125c   0000     nop                      	nop
00125e   0000     nop                      	nop
001260   0000     nop                      	nop
001262   0000     nop                      	nop
001264   0000     nop                      	nop
001266   0000     nop                      	nop
001268   0000     nop                      	nop
00126a   0000     nop                      	nop
00126c   0000     nop                      	nop
00126e   0000     nop                      	nop
001270   0000     nop                      	nop
001272   0000     nop                      	nop
001274   0000     nop                      	nop
001276   0000     nop                      	nop
001278   0000     nop                      	nop
00127a   0000     nop                      	nop
00127c   0000     nop                      	nop
00127e   0000     nop                      	nop
001280   0000     nop                      	nop
001282   0000     nop                      	nop
001284   0000     nop                      	nop
001286   0000     nop                      	nop
001288   0000     nop                      	nop
00128a   0000     nop                      	nop
00128c   0000     nop                      	nop
00128e   0000     nop                      	nop
001290   0000     nop                      	nop
001292   0000     nop                      	nop
001294   0000     nop                      	nop
001296   0000     nop                      	nop
001298   0000     nop                      	nop
00129a   0000     nop                      	nop
00129c   0000     nop                      	nop
00129e   0000     nop                      	nop
0012a0   0000     nop                      	nop
0012a2   0000     nop                      	nop
0012a4   0000     nop                      	nop
0012a6   0000     nop                      	nop
0012a8   0000     nop                      	nop
0012aa   0000     nop                      	nop
0012ac   0000     nop                      	nop
0012ae   0000     nop                      	nop
0012b0   0000     nop                      	nop
0012b2   0000     nop                      	nop
0012b4   0000     nop                      	nop
0012b6   0000     nop                      	nop
0012b8   0000     nop                      	nop
0012ba   0000     nop                      	nop
0012bc   0000     nop                      	nop
0012be   0000     nop                      	nop
0012c0   0000     nop                      	nop
0012c2   0000     nop                      	nop
0012c4   0000     nop                      	nop
0012c6   0000     nop                      	nop
0012c8   0000     nop                      	nop
0012ca   0000     nop                      	nop
0012cc   0000     nop                      	nop
0012ce   0000     nop                      	nop
0012d0   0000     nop                      	nop
0012d2   0000     nop                      	nop
0012d4   0000     nop                      	nop
0012d6   0000     nop                      	nop
0012d8   0000     nop                      	nop
0012da   0000     nop                      	nop
0012dc   0000     nop                      	nop
0012de   0000     nop                      	nop
0012e0   0000     nop                      	nop
0012e2   0000     nop                      	nop
0012e4   0000     nop                      	nop
0012e6   0000     nop                      	nop
0012e8   0000     nop                      	nop
0012ea   0000     nop                      	nop
0012ec   0000     nop                      	nop
0012ee   0000     nop                      	nop
0012f0   0000     nop                      	nop
0012f2   0000     nop                      	nop
0012f4   0000     nop                      	nop
0012f6   0000     nop                      	nop
0012f8   0000     nop                      	nop
0012fa   0000     nop                      	nop
0012fc   0000     nop                      	nop
0012fe   0000     nop                      	nop
001300   0000     nop                      	nop
001302   0000     nop                      	nop
001304   0000     nop                      	nop
001306   0000     nop                      	nop
001308   0000     nop                      	nop
00130a   0000     nop                      	nop
00130c   0000     nop                      	nop
00130e   0000     nop                      	nop
001310   0000     nop                      	nop
001312   0000     nop                      	nop
001314   0000     nop                      	nop
001316   0000     nop                      	nop
001318   0000     nop                      	nop
00131a   0000     nop                      	nop
00131c   0000     nop                      	nop
00131e   0000     nop                      	nop
001320   0000     nop                      	nop
001322   0000     nop                      	nop
001324   0000     nop                      	nop
001326   0000     nop                      	nop
001328   0000     nop                      	nop
00132a   0000     nop                      	nop
00132c   0000     nop                      	nop
00132e   0000     nop                      	nop
001330   0000     nop                      	nop
001332   0000     nop                      	nop
001334   0000     nop                      	nop
001336   0000     nop                      	nop
001338   0000     nop                      	nop
00133a   0000     nop                      	nop
00133c   0000     nop                      	nop
00133e   0000     nop                      	nop
001340   0000     nop                      	nop
001342   0000     nop                      	nop
001344   0000     nop                      	nop
001346   0000     nop                      	nop
001348   0000     nop                      	nop
00134a   0000     nop                      	nop
00134c   0000     nop                      	nop
00134e   0000     nop                      	nop
001350   0000     nop                      	nop
001352   0000     nop                      	nop
001354   0000     nop                      	nop
001356   0000     nop                      	nop
001358   0000     nop                      	nop
00135a   0000     nop                      	nop
00135c   0000     nop                      	nop
00135e   0000     nop                      	nop
001360   0000     nop                      	nop
001362   0000     nop                      	nop
001364   0000     nop                      	nop
001366   0000     nop                      	nop
001368   0000     nop                      	nop
00136a   0000     nop                      	nop
00136c   0000     nop                      	nop
00136e   0000     nop                      	nop
001370   0000     nop                      	nop
001372   0000     nop                      	nop
001374   0000     nop                      	nop
001376   0000     nop                      	nop
001378   0000     nop                      	nop
00137a   0000     nop                      	nop
00137c   0000     nop                      	nop
00137e   0000     nop                      	nop
001380   0000     nop                      	nop
001382   0000     nop                      	nop
001384   0000     nop                      	nop
001386   0000     nop                      	nop
001388   0000     nop                      	nop
00138a   0000     nop                      	nop
00138c   0000     nop                      	nop
00138e   0000     nop                      	nop
001390   0000     nop                      	nop
001392   0000     nop                      	nop
001394   0000     nop                      	nop
001396   0000     nop                      	nop
001398   0000     nop                      	nop
00139a   0000     nop                      	nop
00139c   0000     nop                      	nop
00139e   0000     nop                      	nop
0013a0   0000     nop                      	nop
0013a2   0000     nop                      	nop
0013a4   0000     nop                      	nop
0013a6   0000     nop                      	nop
0013a8   0000     nop                      	nop
0013aa   0000     nop                      	nop
0013ac   0000     nop                      	nop
0013ae   0000     nop                      	nop
0013b0   0000     nop                      	nop
0013b2   0000     nop                      	nop
0013b4   0000     nop                      	nop
0013b6   0000     nop                      	nop
0013b8   0000     nop                      	nop
0013ba   0000     nop                      	nop
0013bc   0000     nop                      	nop
0013be   0000     nop                      	nop
0013c0   0000     nop                      	nop
0013c2   0000     nop                      	nop
0013c4   0000     nop                      	nop
0013c6   0000     nop                      	nop
0013c8   0000     nop                      	nop
0013ca   0000     nop                      	nop
0013cc   0000     nop                      	nop
0013ce   0000     nop                      	nop
0013d0   0000     nop                      	nop
0013d2   0000     nop                      	nop
0013d4   0000     nop                      	nop
0013d6   0000     nop                      	nop
0013d8   0000     nop                      	nop
0013da   0000     nop                      	nop
0013dc   0000     nop                      	nop
0013de   0000     nop                      	nop
0013e0   0000     nop                      	nop
0013e2   0000     nop                      	nop
0013e4   0000     nop                      	nop
                                           	
                                           ;	.line	3579; meter_logger.c	PWM_PIN = 0;
0013e6   9282     bcf     0x82, 0x1, 0     	BCF	_PORTCbits, 1
0013e8   0000     nop                      	nop
0013ea   0000     nop                      	nop
0013ec   0000     nop                      	nop
0013ee   0000     nop                      	nop
0013f0   0000     nop                      	nop
0013f2   0000     nop                      	nop
0013f4   0000     nop                      	nop
0013f6   0000     nop                      	nop
0013f8   0000     nop                      	nop
0013fa   0000     nop                      	nop
0013fc   0000     nop                      	nop
0013fe   0000     nop                      	nop
001400   0000     nop                      	nop
001402   0000     nop                      	nop
001404   0000     nop                      	nop
001406   0000     nop                      	nop
001408   0000     nop                      	nop
00140a   0000     nop                      	nop
00140c   0000     nop                      	nop
00140e   0000     nop                      	nop
001410   0000     nop                      	nop
001412   0000     nop                      	nop
001414   0000     nop                      	nop
001416   0000     nop                      	nop
001418   0000     nop                      	nop
00141a   0000     nop                      	nop
00141c   0000     nop                      	nop
00141e   0000     nop                      	nop
001420   0000     nop                      	nop
001422   0000     nop                      	nop
001424   0000     nop                      	nop
001426   0000     nop                      	nop
001428   0000     nop                      	nop
00142a   0000     nop                      	nop
00142c   0000     nop                      	nop
00142e   0000     nop                      	nop
001430   0000     nop                      	nop
001432   0000     nop                      	nop
001434   0000     nop                      	nop
001436   0000     nop                      	nop
001438   0000     nop                      	nop
00143a   0000     nop                      	nop
00143c   0000     nop                      	nop
00143e   0000     nop                      	nop
001440   0000     nop                      	nop
001442   0000     nop                      	nop
001444   0000     nop                      	nop
001446   0000     nop                      	nop
001448   0000     nop                      	nop
00144a   0000     nop                      	nop
00144c   0000     nop                      	nop
00144e   0000     nop                      	nop
001450   0000     nop                      	nop
001452   0000     nop                      	nop
001454   0000     nop                      	nop
001456   0000     nop                      	nop
001458   0000     nop                      	nop
00145a   0000     nop                      	nop
00145c   0000     nop                      	nop
00145e   0000     nop                      	nop
001460   0000     nop                      	nop
001462   0000     nop                      	nop
001464   0000     nop                      	nop
001466   0000     nop                      	nop
001468   0000     nop                      	nop
00146a   0000     nop                      	nop
00146c   0000     nop                      	nop
00146e   0000     nop                      	nop
001470   0000     nop                      	nop
001472   0000     nop                      	nop
001474   0000     nop                      	nop
001476   0000     nop                      	nop
001478   0000     nop                      	nop
00147a   0000     nop                      	nop
00147c   0000     nop                      	nop
00147e   0000     nop                      	nop
001480   0000     nop                      	nop
001482   0000     nop                      	nop
001484   0000     nop                      	nop
001486   0000     nop                      	nop
001488   0000     nop                      	nop
00148a   0000     nop                      	nop
00148c   0000     nop                      	nop
00148e   0000     nop                      	nop
001490   0000     nop                      	nop
001492   0000     nop                      	nop
001494   0000     nop                      	nop
001496   0000     nop                      	nop
001498   0000     nop                      	nop
00149a   0000     nop                      	nop
00149c   0000     nop                      	nop
00149e   0000     nop                      	nop
0014a0   0000     nop                      	nop
0014a2   0000     nop                      	nop
0014a4   0000     nop                      	nop
0014a6   0000     nop                      	nop
0014a8   0000     nop                      	nop
0014aa   0000     nop                      	nop
0014ac   0000     nop                      	nop
0014ae   0000     nop                      	nop
0014b0   0000     nop                      	nop
0014b2   0000     nop                      	nop
0014b4   0000     nop                      	nop
0014b6   0000     nop                      	nop
0014b8   0000     nop                      	nop
0014ba   0000     nop                      	nop
0014bc   0000     nop                      	nop
0014be   0000     nop                      	nop
0014c0   0000     nop                      	nop
0014c2   0000     nop                      	nop
0014c4   0000     nop                      	nop
0014c6   0000     nop                      	nop
0014c8   0000     nop                      	nop
0014ca   0000     nop                      	nop
0014cc   0000     nop                      	nop
0014ce   0000     nop                      	nop
0014d0   0000     nop                      	nop
0014d2   0000     nop                      	nop
0014d4   0000     nop                      	nop
0014d6   0000     nop                      	nop
0014d8   0000     nop                      	nop
0014da   0000     nop                      	nop
0014dc   0000     nop                      	nop
0014de   0000     nop                      	nop
0014e0   0000     nop                      	nop
0014e2   0000     nop                      	nop
0014e4   0000     nop                      	nop
0014e6   0000     nop                      	nop
0014e8   0000     nop                      	nop
0014ea   0000     nop                      	nop
0014ec   0000     nop                      	nop
0014ee   0000     nop                      	nop
0014f0   0000     nop                      	nop
0014f2   0000     nop                      	nop
0014f4   0000     nop                      	nop
0014f6   0000     nop                      	nop
0014f8   0000     nop                      	nop
0014fa   0000     nop                      	nop
0014fc   0000     nop                      	nop
0014fe   0000     nop                      	nop
001500   0000     nop                      	nop
001502   0000     nop                      	nop
001504   0000     nop                      	nop
001506   0000     nop                      	nop
001508   0000     nop                      	nop
00150a   0000     nop                      	nop
00150c   0000     nop                      	nop
00150e   0000     nop                      	nop
001510   0000     nop                      	nop
001512   0000     nop                      	nop
001514   0000     nop                      	nop
001516   0000     nop                      	nop
001518   0000     nop                      	nop
00151a   0000     nop                      	nop
00151c   0000     nop                      	nop
00151e   0000     nop                      	nop
001520   0000     nop                      	nop
001522   0000     nop                      	nop
001524   0000     nop                      	nop
001526   0000     nop                      	nop
001528   0000     nop                      	nop
00152a   0000     nop                      	nop
00152c   0000     nop                      	nop
00152e   0000     nop                      	nop
001530   0000     nop                      	nop
001532   0000     nop                      	nop
001534   0000     nop                      	nop
001536   0000     nop                      	nop
001538   0000     nop                      	nop
00153a   0000     nop                      	nop
00153c   0000     nop                      	nop
00153e   0000     nop                      	nop
001540   0000     nop                      	nop
001542   0000     nop                      	nop
001544   0000     nop                      	nop
001546   0000     nop                      	nop
001548   0000     nop                      	nop
00154a   0000     nop                      	nop
00154c   0000     nop                      	nop
00154e   0000     nop                      	nop
001550   0000     nop                      	nop
001552   0000     nop                      	nop
001554   0000     nop                      	nop
001556   0000     nop                      	nop
001558   0000     nop                      	nop
00155a   0000     nop                      	nop
00155c   0000     nop                      	nop
00155e   0000     nop                      	nop
001560   0000     nop                      	nop
001562   0000     nop                      	nop
001564   0000     nop                      	nop
001566   0000     nop                      	nop
001568   0000     nop                      	nop
00156a   0000     nop                      	nop
00156c   0000     nop                      	nop
00156e   0000     nop                      	nop
001570   0000     nop                      	nop
001572   0000     nop                      	nop
001574   0000     nop                      	nop
001576   0000     nop                      	nop
001578   0000     nop                      	nop
00157a   0000     nop                      	nop
00157c   0000     nop                      	nop
00157e   0000     nop                      	nop
                                           	
                                           ;	.line	3786; meter_logger.c	PWM_PIN = 1;
001580   8282     bsf     0x82, 0x1, 0     	BSF	_PORTCbits, 1
001582   0000     nop                      	nop
001584   0000     nop                      	nop
001586   0000     nop                      	nop
001588   0000     nop                      	nop
00158a   0000     nop                      	nop
00158c   0000     nop                      	nop
00158e   0000     nop                      	nop
001590   0000     nop                      	nop
001592   0000     nop                      	nop
001594   0000     nop                      	nop
001596   0000     nop                      	nop
001598   0000     nop                      	nop
00159a   0000     nop                      	nop
00159c   0000     nop                      	nop
00159e   0000     nop                      	nop
0015a0   0000     nop                      	nop
0015a2   0000     nop                      	nop
0015a4   0000     nop                      	nop
0015a6   0000     nop                      	nop
0015a8   0000     nop                      	nop
0015aa   0000     nop                      	nop
0015ac   0000     nop                      	nop
0015ae   0000     nop                      	nop
0015b0   0000     nop                      	nop
0015b2   0000     nop                      	nop
0015b4   0000     nop                      	nop
0015b6   0000     nop                      	nop
0015b8   0000     nop                      	nop
0015ba   0000     nop                      	nop
0015bc   0000     nop                      	nop
0015be   0000     nop                      	nop
0015c0   0000     nop                      	nop
0015c2   0000     nop                      	nop
0015c4   0000     nop                      	nop
0015c6   0000     nop                      	nop
0015c8   0000     nop                      	nop
0015ca   0000     nop                      	nop
0015cc   0000     nop                      	nop
0015ce   0000     nop                      	nop
0015d0   0000     nop                      	nop
0015d2   0000     nop                      	nop
0015d4   0000     nop                      	nop
0015d6   0000     nop                      	nop
0015d8   0000     nop                      	nop
0015da   0000     nop                      	nop
0015dc   0000     nop                      	nop
0015de   0000     nop                      	nop
0015e0   0000     nop                      	nop
0015e2   0000     nop                      	nop
0015e4   0000     nop                      	nop
0015e6   0000     nop                      	nop
0015e8   0000     nop                      	nop
0015ea   0000     nop                      	nop
0015ec   0000     nop                      	nop
0015ee   0000     nop                      	nop
0015f0   0000     nop                      	nop
0015f2   0000     nop                      	nop
0015f4   0000     nop                      	nop
0015f6   0000     nop                      	nop
0015f8   0000     nop                      	nop
0015fa   0000     nop                      	nop
0015fc   0000     nop                      	nop
0015fe   0000     nop                      	nop
001600   0000     nop                      	nop
001602   0000     nop                      	nop
001604   0000     nop                      	nop
001606   0000     nop                      	nop
001608   0000     nop                      	nop
00160a   0000     nop                      	nop
00160c   0000     nop                      	nop
00160e   0000     nop                      	nop
001610   0000     nop                      	nop
001612   0000     nop                      	nop
001614   0000     nop                      	nop
001616   0000     nop                      	nop
001618   0000     nop                      	nop
00161a   0000     nop                      	nop
00161c   0000     nop                      	nop
00161e   0000     nop                      	nop
001620   0000     nop                      	nop
001622   0000     nop                      	nop
001624   0000     nop                      	nop
001626   0000     nop                      	nop
001628   0000     nop                      	nop
00162a   0000     nop                      	nop
00162c   0000     nop                      	nop
00162e   0000     nop                      	nop
001630   0000     nop                      	nop
001632   0000     nop                      	nop
001634   0000     nop                      	nop
001636   0000     nop                      	nop
001638   0000     nop                      	nop
00163a   0000     nop                      	nop
00163c   0000     nop                      	nop
00163e   0000     nop                      	nop
001640   0000     nop                      	nop
001642   0000     nop                      	nop
001644   0000     nop                      	nop
001646   0000     nop                      	nop
001648   0000     nop                      	nop
00164a   0000     nop                      	nop
00164c   0000     nop                      	nop
00164e   0000     nop                      	nop
001650   0000     nop                      	nop
001652   0000     nop                      	nop
001654   0000     nop                      	nop
001656   0000     nop                      	nop
001658   0000     nop                      	nop
00165a   0000     nop                      	nop
00165c   0000     nop                      	nop
00165e   0000     nop                      	nop
001660   0000     nop                      	nop
001662   0000     nop                      	nop
001664   0000     nop                      	nop
001666   0000     nop                      	nop
001668   0000     nop                      	nop
00166a   0000     nop                      	nop
00166c   0000     nop                      	nop
00166e   0000     nop                      	nop
001670   0000     nop                      	nop
001672   0000     nop                      	nop
001674   0000     nop                      	nop
001676   0000     nop                      	nop
001678   0000     nop                      	nop
00167a   0000     nop                      	nop
00167c   0000     nop                      	nop
00167e   0000     nop                      	nop
001680   0000     nop                      	nop
001682   0000     nop                      	nop
001684   0000     nop                      	nop
001686   0000     nop                      	nop
001688   0000     nop                      	nop
00168a   0000     nop                      	nop
00168c   0000     nop                      	nop
00168e   0000     nop                      	nop
001690   0000     nop                      	nop
001692   0000     nop                      	nop
001694   0000     nop                      	nop
001696   0000     nop                      	nop
001698   0000     nop                      	nop
00169a   0000     nop                      	nop
00169c   0000     nop                      	nop
00169e   0000     nop                      	nop
0016a0   0000     nop                      	nop
0016a2   0000     nop                      	nop
0016a4   0000     nop                      	nop
0016a6   0000     nop                      	nop
0016a8   0000     nop                      	nop
0016aa   0000     nop                      	nop
0016ac   0000     nop                      	nop
0016ae   0000     nop                      	nop
0016b0   0000     nop                      	nop
0016b2   0000     nop                      	nop
0016b4   0000     nop                      	nop
0016b6   0000     nop                      	nop
0016b8   0000     nop                      	nop
0016ba   0000     nop                      	nop
0016bc   0000     nop                      	nop
0016be   0000     nop                      	nop
0016c0   0000     nop                      	nop
0016c2   0000     nop                      	nop
0016c4   0000     nop                      	nop
0016c6   0000     nop                      	nop
0016c8   0000     nop                      	nop
0016ca   0000     nop                      	nop
0016cc   0000     nop                      	nop
0016ce   0000     nop                      	nop
0016d0   0000     nop                      	nop
0016d2   0000     nop                      	nop
0016d4   0000     nop                      	nop
0016d6   0000     nop                      	nop
0016d8   0000     nop                      	nop
0016da   0000     nop                      	nop
0016dc   0000     nop                      	nop
0016de   0000     nop                      	nop
0016e0   0000     nop                      	nop
0016e2   0000     nop                      	nop
0016e4   0000     nop                      	nop
0016e6   0000     nop                      	nop
0016e8   0000     nop                      	nop
0016ea   0000     nop                      	nop
0016ec   0000     nop                      	nop
0016ee   0000     nop                      	nop
0016f0   0000     nop                      	nop
0016f2   0000     nop                      	nop
0016f4   0000     nop                      	nop
0016f6   0000     nop                      	nop
0016f8   0000     nop                      	nop
0016fa   0000     nop                      	nop
0016fc   0000     nop                      	nop
0016fe   0000     nop                      	nop
001700   0000     nop                      	nop
001702   0000     nop                      	nop
001704   0000     nop                      	nop
001706   0000     nop                      	nop
001708   0000     nop                      	nop
00170a   0000     nop                      	nop
00170c   0000     nop                      	nop
00170e   0000     nop                      	nop
001710   0000     nop                      	nop
001712   0000     nop                      	nop
001714   0000     nop                      	nop
001716   0000     nop                      	nop
001718   0000     nop                      	nop
                                           	
                                           ;	.line	3993; meter_logger.c	PWM_PIN = 0;
00171a   9282     bcf     0x82, 0x1, 0     	BCF	_PORTCbits, 1
00171c   cfe4     movff   0xfe4, 0xfd9     	MOVFF	PREINC1, FSR2L
00171e   ffd9
001720   0012     return  0                	RETURN	
                                           
                                           ; ; Starting pCode block
                                           S_meter_logger__send_fsk_high	code
                                           _send_fsk_high:
                                           ;	.line	1021; meter_logger.c	void send_fsk_high(void) {
00001c   cfd9     movff   0xfd9, 0xfe5     	MOVFF	FSR2L, POSTDEC1
00001e   ffe5
000020   cfe1     movff   0xfe1, 0xfd9     	MOVFF	FSR1L, FSR2L
000022   ffd9
                                           ;	.line	1022; meter_logger.c	PWM_PIN = 1;
000024   8282     bsf     0x82, 0x1, 0     	BSF	_PORTCbits, 1
000026   0000     nop                      	nop
000028   0000     nop                      	nop
00002a   0000     nop                      	nop
00002c   0000     nop                      	nop
00002e   0000     nop                      	nop
000030   0000     nop                      	nop
000032   0000     nop                      	nop
000034   0000     nop                      	nop
000036   0000     nop                      	nop
000038   0000     nop                      	nop
00003a   0000     nop                      	nop
00003c   0000     nop                      	nop
00003e   0000     nop                      	nop
000040   0000     nop                      	nop
000042   0000     nop                      	nop
000044   0000     nop                      	nop
000046   0000     nop                      	nop
000048   0000     nop                      	nop
00004a   0000     nop                      	nop
00004c   0000     nop                      	nop
00004e   0000     nop                      	nop
000050   0000     nop                      	nop
000052   0000     nop                      	nop
000054   0000     nop                      	nop
000056   0000     nop                      	nop
000058   0000     nop                      	nop
00005a   0000     nop                      	nop
00005c   0000     nop                      	nop
00005e   0000     nop                      	nop
000060   0000     nop                      	nop
000062   0000     nop                      	nop
000064   0000     nop                      	nop
000066   0000     nop                      	nop
000068   0000     nop                      	nop
00006a   0000     nop                      	nop
00006c   0000     nop                      	nop
00006e   0000     nop                      	nop
000070   0000     nop                      	nop
000072   0000     nop                      	nop
000074   0000     nop                      	nop
000076   0000     nop                      	nop
000078   0000     nop                      	nop
00007a   0000     nop                      	nop
00007c   0000     nop                      	nop
00007e   0000     nop                      	nop
000080   0000     nop                      	nop
000082   0000     nop                      	nop
000084   0000     nop                      	nop
000086   0000     nop                      	nop
000088   0000     nop                      	nop
00008a   0000     nop                      	nop
00008c   0000     nop                      	nop
00008e   0000     nop                      	nop
000090   0000     nop                      	nop
000092   0000     nop                      	nop
000094   0000     nop                      	nop
000096   0000     nop                      	nop
000098   0000     nop                      	nop
00009a   0000     nop                      	nop
00009c   0000     nop                      	nop
00009e   0000     nop                      	nop
0000a0   0000     nop                      	nop
0000a2   0000     nop                      	nop
0000a4   0000     nop                      	nop
0000a6   0000     nop                      	nop
0000a8   0000     nop                      	nop
0000aa   0000     nop                      	nop
0000ac   0000     nop                      	nop
0000ae   0000     nop                      	nop
0000b0   0000     nop                      	nop
0000b2   0000     nop                      	nop
0000b4   0000     nop                      	nop
0000b6   0000     nop                      	nop
0000b8   0000     nop                      	nop
0000ba   0000     nop                      	nop
0000bc   0000     nop                      	nop
0000be   0000     nop                      	nop
0000c0   0000     nop                      	nop
0000c2   0000     nop                      	nop
0000c4   0000     nop                      	nop
0000c6   0000     nop                      	nop
0000c8   0000     nop                      	nop
0000ca   0000     nop                      	nop
0000cc   0000     nop                      	nop
0000ce   0000     nop                      	nop
0000d0   0000     nop                      	nop
0000d2   0000     nop                      	nop
0000d4   0000     nop                      	nop
0000d6   0000     nop                      	nop
0000d8   0000     nop                      	nop
0000da   0000     nop                      	nop
0000dc   0000     nop                      	nop
0000de   0000     nop                      	nop
0000e0   0000     nop                      	nop
0000e2   0000     nop                      	nop
0000e4   0000     nop                      	nop
0000e6   0000     nop                      	nop
0000e8   0000     nop                      	nop
0000ea   0000     nop                      	nop
0000ec   0000     nop                      	nop
0000ee   0000     nop                      	nop
0000f0   0000     nop                      	nop
0000f2   0000     nop                      	nop
0000f4   0000     nop                      	nop
0000f6   0000     nop                      	nop
0000f8   0000     nop                      	nop
0000fa   0000     nop                      	nop
0000fc   0000     nop                      	nop
0000fe   0000     nop                      	nop
000100   0000     nop                      	nop
000102   0000     nop                      	nop
000104   0000     nop                      	nop
000106   0000     nop                      	nop
000108   0000     nop                      	nop
00010a   0000     nop                      	nop
00010c   0000     nop                      	nop
00010e   0000     nop                      	nop
000110   0000     nop                      	nop
000112   0000     nop                      	nop
000114   0000     nop                      	nop
000116   0000     nop                      	nop
000118   0000     nop                      	nop
00011a   0000     nop                      	nop
00011c   0000     nop                      	nop
00011e   0000     nop                      	nop
000120   0000     nop                      	nop
000122   0000     nop                      	nop
000124   0000     nop                      	nop
000126   0000     nop                      	nop
000128   0000     nop                      	nop
00012a   0000     nop                      	nop
00012c   0000     nop                      	nop
00012e   0000     nop                      	nop
000130   0000     nop                      	nop
000132   0000     nop                      	nop
                                           	
                                           ;	.line	1160; meter_logger.c	PWM_PIN = 0;
000134   9282     bcf     0x82, 0x1, 0     	BCF	_PORTCbits, 1
000136   0000     nop                      	nop
000138   0000     nop                      	nop
00013a   0000     nop                      	nop
00013c   0000     nop                      	nop
00013e   0000     nop                      	nop
000140   0000     nop                      	nop
000142   0000     nop                      	nop
000144   0000     nop                      	nop
000146   0000     nop                      	nop
000148   0000     nop                      	nop
00014a   0000     nop                      	nop
00014c   0000     nop                      	nop
00014e   0000     nop                      	nop
000150   0000     nop                      	nop
000152   0000     nop                      	nop
000154   0000     nop                      	nop
000156   0000     nop                      	nop
000158   0000     nop                      	nop
00015a   0000     nop                      	nop
00015c   0000     nop                      	nop
00015e   0000     nop                      	nop
000160   0000     nop                      	nop
000162   0000     nop                      	nop
000164   0000     nop                      	nop
000166   0000     nop                      	nop
000168   0000     nop                      	nop
00016a   0000     nop                      	nop
00016c   0000     nop                      	nop
00016e   0000     nop                      	nop
000170   0000     nop                      	nop
000172   0000     nop                      	nop
000174   0000     nop                      	nop
000176   0000     nop                      	nop
000178   0000     nop                      	nop
00017a   0000     nop                      	nop
00017c   0000     nop                      	nop
00017e   0000     nop                      	nop
000180   0000     nop                      	nop
000182   0000     nop                      	nop
000184   0000     nop                      	nop
000186   0000     nop                      	nop
000188   0000     nop                      	nop
00018a   0000     nop                      	nop
00018c   0000     nop                      	nop
00018e   0000     nop                      	nop
000190   0000     nop                      	nop
000192   0000     nop                      	nop
000194   0000     nop                      	nop
000196   0000     nop                      	nop
000198   0000     nop                      	nop
00019a   0000     nop                      	nop
00019c   0000     nop                      	nop
00019e   0000     nop                      	nop
0001a0   0000     nop                      	nop
0001a2   0000     nop                      	nop
0001a4   0000     nop                      	nop
0001a6   0000     nop                      	nop
0001a8   0000     nop                      	nop
0001aa   0000     nop                      	nop
0001ac   0000     nop                      	nop
0001ae   0000     nop                      	nop
0001b0   0000     nop                      	nop
0001b2   0000     nop                      	nop
0001b4   0000     nop                      	nop
0001b6   0000     nop                      	nop
0001b8   0000     nop                      	nop
0001ba   0000     nop                      	nop
0001bc   0000     nop                      	nop
0001be   0000     nop                      	nop
0001c0   0000     nop                      	nop
0001c2   0000     nop                      	nop
0001c4   0000     nop                      	nop
0001c6   0000     nop                      	nop
0001c8   0000     nop                      	nop
0001ca   0000     nop                      	nop
0001cc   0000     nop                      	nop
0001ce   0000     nop                      	nop
0001d0   0000     nop                      	nop
0001d2   0000     nop                      	nop
0001d4   0000     nop                      	nop
0001d6   0000     nop                      	nop
0001d8   0000     nop                      	nop
0001da   0000     nop                      	nop
0001dc   0000     nop                      	nop
0001de   0000     nop                      	nop
0001e0   0000     nop                      	nop
0001e2   0000     nop                      	nop
0001e4   0000     nop                      	nop
0001e6   0000     nop                      	nop
0001e8   0000     nop                      	nop
0001ea   0000     nop                      	nop
0001ec   0000     nop                      	nop
0001ee   0000     nop                      	nop
0001f0   0000     nop                      	nop
0001f2   0000     nop                      	nop
0001f4   0000     nop                      	nop
0001f6   0000     nop                      	nop
0001f8   0000     nop                      	nop
0001fa   0000     nop                      	nop
0001fc   0000     nop                      	nop
0001fe   0000     nop                      	nop
000200   0000     nop                      	nop
000202   0000     nop                      	nop
000204   0000     nop                      	nop
000206   0000     nop                      	nop
000208   0000     nop                      	nop
00020a   0000     nop                      	nop
00020c   0000     nop                      	nop
00020e   0000     nop                      	nop
000210   0000     nop                      	nop
000212   0000     nop                      	nop
000214   0000     nop                      	nop
000216   0000     nop                      	nop
000218   0000     nop                      	nop
00021a   0000     nop                      	nop
00021c   0000     nop                      	nop
00021e   0000     nop                      	nop
000220   0000     nop                      	nop
000222   0000     nop                      	nop
000224   0000     nop                      	nop
000226   0000     nop                      	nop
000228   0000     nop                      	nop
00022a   0000     nop                      	nop
00022c   0000     nop                      	nop
00022e   0000     nop                      	nop
000230   0000     nop                      	nop
000232   0000     nop                      	nop
000234   0000     nop                      	nop
000236   0000     nop                      	nop
000238   0000     nop                      	nop
00023a   0000     nop                      	nop
00023c   0000     nop                      	nop
00023e   0000     nop                      	nop
000240   0000     nop                      	nop
000242   0000     nop                      	nop
                                           	
                                           ;	.line	1298; meter_logger.c	PWM_PIN = 1;
000244   8282     bsf     0x82, 0x1, 0     	BSF	_PORTCbits, 1
000246   0000     nop                      	nop
000248   0000     nop                      	nop
00024a   0000     nop                      	nop
00024c   0000     nop                      	nop
00024e   0000     nop                      	nop
000250   0000     nop                      	nop
000252   0000     nop                      	nop
000254   0000     nop                      	nop
000256   0000     nop                      	nop
000258   0000     nop                      	nop
00025a   0000     nop                      	nop
00025c   0000     nop                      	nop
00025e   0000     nop                      	nop
000260   0000     nop                      	nop
000262   0000     nop                      	nop
000264   0000     nop                      	nop
000266   0000     nop                      	nop
000268   0000     nop                      	nop
00026a   0000     nop                      	nop
00026c   0000     nop                      	nop
00026e   0000     nop                      	nop
000270   0000     nop                      	nop
000272   0000     nop                      	nop
000274   0000     nop                      	nop
000276   0000     nop                      	nop
000278   0000     nop                      	nop
00027a   0000     nop                      	nop
00027c   0000     nop                      	nop
00027e   0000     nop                      	nop
000280   0000     nop                      	nop
000282   0000     nop                      	nop
000284   0000     nop                      	nop
000286   0000     nop                      	nop
000288   0000     nop                      	nop
00028a   0000     nop                      	nop
00028c   0000     nop                      	nop
00028e   0000     nop                      	nop
000290   0000     nop                      	nop
000292   0000     nop                      	nop
000294   0000     nop                      	nop
000296   0000     nop                      	nop
000298   0000     nop                      	nop
00029a   0000     nop                      	nop
00029c   0000     nop                      	nop
00029e   0000     nop                      	nop
0002a0   0000     nop                      	nop
0002a2   0000     nop                      	nop
0002a4   0000     nop                      	nop
0002a6   0000     nop                      	nop
0002a8   0000     nop                      	nop
0002aa   0000     nop                      	nop
0002ac   0000     nop                      	nop
0002ae   0000     nop                      	nop
0002b0   0000     nop                      	nop
0002b2   0000     nop                      	nop
0002b4   0000     nop                      	nop
0002b6   0000     nop                      	nop
0002b8   0000     nop                      	nop
0002ba   0000     nop                      	nop
0002bc   0000     nop                      	nop
0002be   0000     nop                      	nop
0002c0   0000     nop                      	nop
0002c2   0000     nop                      	nop
0002c4   0000     nop                      	nop
0002c6   0000     nop                      	nop
0002c8   0000     nop                      	nop
0002ca   0000     nop                      	nop
0002cc   0000     nop                      	nop
0002ce   0000     nop                      	nop
0002d0   0000     nop                      	nop
0002d2   0000     nop                      	nop
0002d4   0000     nop                      	nop
0002d6   0000     nop                      	nop
0002d8   0000     nop                      	nop
0002da   0000     nop                      	nop
0002dc   0000     nop                      	nop
0002de   0000     nop                      	nop
0002e0   0000     nop                      	nop
0002e2   0000     nop                      	nop
0002e4   0000     nop                      	nop
0002e6   0000     nop                      	nop
0002e8   0000     nop                      	nop
0002ea   0000     nop                      	nop
0002ec   0000     nop                      	nop
0002ee   0000     nop                      	nop
0002f0   0000     nop                      	nop
0002f2   0000     nop                      	nop
0002f4   0000     nop                      	nop
0002f6   0000     nop                      	nop
0002f8   0000     nop                      	nop
0002fa   0000     nop                      	nop
0002fc   0000     nop                      	nop
0002fe   0000     nop                      	nop
000300   0000     nop                      	nop
000302   0000     nop                      	nop
000304   0000     nop                      	nop
000306   0000     nop                      	nop
000308   0000     nop                      	nop
00030a   0000     nop                      	nop
00030c   0000     nop                      	nop
00030e   0000     nop                      	nop
000310   0000     nop                      	nop
000312   0000     nop                      	nop
000314   0000     nop                      	nop
000316   0000     nop                      	nop
000318   0000     nop                      	nop
00031a   0000     nop                      	nop
00031c   0000     nop                      	nop
00031e   0000     nop                      	nop
000320   0000     nop                      	nop
000322   0000     nop                      	nop
000324   0000     nop                      	nop
000326   0000     nop                      	nop
000328   0000     nop                      	nop
00032a   0000     nop                      	nop
00032c   0000     nop                      	nop
00032e   0000     nop                      	nop
000330   0000     nop                      	nop
000332   0000     nop                      	nop
000334   0000     nop                      	nop
000336   0000     nop                      	nop
000338   0000     nop                      	nop
00033a   0000     nop                      	nop
00033c   0000     nop                      	nop
00033e   0000     nop                      	nop
000340   0000     nop                      	nop
000342   0000     nop                      	nop
000344   0000     nop                      	nop
000346   0000     nop                      	nop
000348   0000     nop                      	nop
00034a   0000     nop                      	nop
00034c   0000     nop                      	nop
00034e   0000     nop                      	nop
000350   0000     nop                      	nop
000352   0000     nop                      	nop
                                           	
                                           ;	.line	1436; meter_logger.c	PWM_PIN = 0;
000354   9282     bcf     0x82, 0x1, 0     	BCF	_PORTCbits, 1
000356   0000     nop                      	nop
000358   0000     nop                      	nop
00035a   0000     nop                      	nop
00035c   0000     nop                      	nop
00035e   0000     nop                      	nop
000360   0000     nop                      	nop
000362   0000     nop                      	nop
000364   0000     nop                      	nop
000366   0000     nop                      	nop
000368   0000     nop                      	nop
00036a   0000     nop                      	nop
00036c   0000     nop                      	nop
00036e   0000     nop                      	nop
000370   0000     nop                      	nop
000372   0000     nop                      	nop
000374   0000     nop                      	nop
000376   0000     nop                      	nop
000378   0000     nop                      	nop
00037a   0000     nop                      	nop
00037c   0000     nop                      	nop
00037e   0000     nop                      	nop
000380   0000     nop                      	nop
000382   0000     nop                      	nop
000384   0000     nop                      	nop
000386   0000     nop                      	nop
000388   0000     nop                      	nop
00038a   0000     nop                      	nop
00038c   0000     nop                      	nop
00038e   0000     nop                      	nop
000390   0000     nop                      	nop
000392   0000     nop                      	nop
000394   0000     nop                      	nop
000396   0000     nop                      	nop
000398   0000     nop                      	nop
00039a   0000     nop                      	nop
00039c   0000     nop                      	nop
00039e   0000     nop                      	nop
0003a0   0000     nop                      	nop
0003a2   0000     nop                      	nop
0003a4   0000     nop                      	nop
0003a6   0000     nop                      	nop
0003a8   0000     nop                      	nop
0003aa   0000     nop                      	nop
0003ac   0000     nop                      	nop
0003ae   0000     nop                      	nop
0003b0   0000     nop                      	nop
0003b2   0000     nop                      	nop
0003b4   0000     nop                      	nop
0003b6   0000     nop                      	nop
0003b8   0000     nop                      	nop
0003ba   0000     nop                      	nop
0003bc   0000     nop                      	nop
0003be   0000     nop                      	nop
0003c0   0000     nop                      	nop
0003c2   0000     nop                      	nop
0003c4   0000     nop                      	nop
0003c6   0000     nop                      	nop
0003c8   0000     nop                      	nop
0003ca   0000     nop                      	nop
0003cc   0000     nop                      	nop
0003ce   0000     nop                      	nop
0003d0   0000     nop                      	nop
0003d2   0000     nop                      	nop
0003d4   0000     nop                      	nop
0003d6   0000     nop                      	nop
0003d8   0000     nop                      	nop
0003da   0000     nop                      	nop
0003dc   0000     nop                      	nop
0003de   0000     nop                      	nop
0003e0   0000     nop                      	nop
0003e2   0000     nop                      	nop
0003e4   0000     nop                      	nop
0003e6   0000     nop                      	nop
0003e8   0000     nop                      	nop
0003ea   0000     nop                      	nop
0003ec   0000     nop                      	nop
0003ee   0000     nop                      	nop
0003f0   0000     nop                      	nop
0003f2   0000     nop                      	nop
0003f4   0000     nop                      	nop
0003f6   0000     nop                      	nop
0003f8   0000     nop                      	nop
0003fa   0000     nop                      	nop
0003fc   0000     nop                      	nop
0003fe   0000     nop                      	nop
000400   0000     nop                      	nop
000402   0000     nop                      	nop
000404   0000     nop                      	nop
000406   0000     nop                      	nop
000408   0000     nop                      	nop
00040a   0000     nop                      	nop
00040c   0000     nop                      	nop
00040e   0000     nop                      	nop
000410   0000     nop                      	nop
000412   0000     nop                      	nop
000414   0000     nop                      	nop
000416   0000     nop                      	nop
000418   0000     nop                      	nop
00041a   0000     nop                      	nop
00041c   0000     nop                      	nop
00041e   0000     nop                      	nop
000420   0000     nop                      	nop
000422   0000     nop                      	nop
000424   0000     nop                      	nop
000426   0000     nop                      	nop
000428   0000     nop                      	nop
00042a   0000     nop                      	nop
00042c   0000     nop                      	nop
00042e   0000     nop                      	nop
000430   0000     nop                      	nop
000432   0000     nop                      	nop
000434   0000     nop                      	nop
000436   0000     nop                      	nop
000438   0000     nop                      	nop
00043a   0000     nop                      	nop
00043c   0000     nop                      	nop
00043e   0000     nop                      	nop
000440   0000     nop                      	nop
000442   0000     nop                      	nop
000444   0000     nop                      	nop
000446   0000     nop                      	nop
000448   0000     nop                      	nop
00044a   0000     nop                      	nop
00044c   0000     nop                      	nop
00044e   0000     nop                      	nop
000450   0000     nop                      	nop
000452   0000     nop                      	nop
000454   0000     nop                      	nop
000456   0000     nop                      	nop
000458   0000     nop                      	nop
00045a   0000     nop                      	nop
00045c   0000     nop                      	nop
00045e   0000     nop                      	nop
000460   0000     nop                      	nop
000462   0000     nop                      	nop
                                           	
                                           ;	.line	1574; meter_logger.c	PWM_PIN = 1;
000464   8282     bsf     0x82, 0x1, 0     	BSF	_PORTCbits, 1
000466   0000     nop                      	nop
000468   0000     nop                      	nop
00046a   0000     nop                      	nop
00046c   0000     nop                      	nop
00046e   0000     nop                      	nop
000470   0000     nop                      	nop
000472   0000     nop                      	nop
000474   0000     nop                      	nop
000476   0000     nop                      	nop
000478   0000     nop                      	nop
00047a   0000     nop                      	nop
00047c   0000     nop                      	nop
00047e   0000     nop                      	nop
000480   0000     nop                      	nop
000482   0000     nop                      	nop
000484   0000     nop                      	nop
000486   0000     nop                      	nop
000488   0000     nop                      	nop
00048a   0000     nop                      	nop
00048c   0000     nop                      	nop
00048e   0000     nop                      	nop
000490   0000     nop                      	nop
000492   0000     nop                      	nop
000494   0000     nop                      	nop
000496   0000     nop                      	nop
000498   0000     nop                      	nop
00049a   0000     nop                      	nop
00049c   0000     nop                      	nop
00049e   0000     nop                      	nop
0004a0   0000     nop                      	nop
0004a2   0000     nop                      	nop
0004a4   0000     nop                      	nop
0004a6   0000     nop                      	nop
0004a8   0000     nop                      	nop
0004aa   0000     nop                      	nop
0004ac   0000     nop                      	nop
0004ae   0000     nop                      	nop
0004b0   0000     nop                      	nop
0004b2   0000     nop                      	nop
0004b4   0000     nop                      	nop
0004b6   0000     nop                      	nop
0004b8   0000     nop                      	nop
0004ba   0000     nop                      	nop
0004bc   0000     nop                      	nop
0004be   0000     nop                      	nop
0004c0   0000     nop                      	nop
0004c2   0000     nop                      	nop
0004c4   0000     nop                      	nop
0004c6   0000     nop                      	nop
0004c8   0000     nop                      	nop
0004ca   0000     nop                      	nop
0004cc   0000     nop                      	nop
0004ce   0000     nop                      	nop
0004d0   0000     nop                      	nop
0004d2   0000     nop                      	nop
0004d4   0000     nop                      	nop
0004d6   0000     nop                      	nop
0004d8   0000     nop                      	nop
0004da   0000     nop                      	nop
0004dc   0000     nop                      	nop
0004de   0000     nop                      	nop
0004e0   0000     nop                      	nop
0004e2   0000     nop                      	nop
0004e4   0000     nop                      	nop
0004e6   0000     nop                      	nop
0004e8   0000     nop                      	nop
0004ea   0000     nop                      	nop
0004ec   0000     nop                      	nop
0004ee   0000     nop                      	nop
0004f0   0000     nop                      	nop
0004f2   0000     nop                      	nop
0004f4   0000     nop                      	nop
0004f6   0000     nop                      	nop
0004f8   0000     nop                      	nop
0004fa   0000     nop                      	nop
0004fc   0000     nop                      	nop
0004fe   0000     nop                      	nop
000500   0000     nop                      	nop
000502   0000     nop                      	nop
000504   0000     nop                      	nop
000506   0000     nop                      	nop
000508   0000     nop                      	nop
00050a   0000     nop                      	nop
00050c   0000     nop                      	nop
00050e   0000     nop                      	nop
000510   0000     nop                      	nop
000512   0000     nop                      	nop
000514   0000     nop                      	nop
000516   0000     nop                      	nop
000518   0000     nop                      	nop
00051a   0000     nop                      	nop
00051c   0000     nop                      	nop
00051e   0000     nop                      	nop
000520   0000     nop                      	nop
000522   0000     nop                      	nop
000524   0000     nop                      	nop
000526   0000     nop                      	nop
000528   0000     nop                      	nop
00052a   0000     nop                      	nop
00052c   0000     nop                      	nop
00052e   0000     nop                      	nop
000530   0000     nop                      	nop
000532   0000     nop                      	nop
000534   0000     nop                      	nop
000536   0000     nop                      	nop
000538   0000     nop                      	nop
00053a   0000     nop                      	nop
00053c   0000     nop                      	nop
00053e   0000     nop                      	nop
000540   0000     nop                      	nop
000542   0000     nop                      	nop
000544   0000     nop                      	nop
000546   0000     nop                      	nop
000548   0000     nop                      	nop
00054a   0000     nop                      	nop
00054c   0000     nop                      	nop
00054e   0000     nop                      	nop
000550   0000     nop                      	nop
000552   0000     nop                      	nop
000554   0000     nop                      	nop
000556   0000     nop                      	nop
000558   0000     nop                      	nop
00055a   0000     nop                      	nop
00055c   0000     nop                      	nop
00055e   0000     nop                      	nop
000560   0000     nop                      	nop
000562   0000     nop                      	nop
000564   0000     nop                      	nop
000566   0000     nop                      	nop
000568   0000     nop                      	nop
00056a   0000     nop                      	nop
00056c   0000     nop                      	nop
00056e   0000     nop                      	nop
000570   0000     nop                      	nop
000572   0000     nop                      	nop
                                           	
                                           ;	.line	1712; meter_logger.c	PWM_PIN = 0;
000574   9282     bcf     0x82, 0x1, 0     	BCF	_PORTCbits, 1
000576   0000     nop                      	nop
000578   0000     nop                      	nop
00057a   0000     nop                      	nop
00057c   0000     nop                      	nop
00057e   0000     nop                      	nop
000580   0000     nop                      	nop
000582   0000     nop                      	nop
000584   0000     nop                      	nop
000586   0000     nop                      	nop
000588   0000     nop                      	nop
00058a   0000     nop                      	nop
00058c   0000     nop                      	nop
00058e   0000     nop                      	nop
000590   0000     nop                      	nop
000592   0000     nop                      	nop
000594   0000     nop                      	nop
000596   0000     nop                      	nop
000598   0000     nop                      	nop
00059a   0000     nop                      	nop
00059c   0000     nop                      	nop
00059e   0000     nop                      	nop
0005a0   0000     nop                      	nop
0005a2   0000     nop                      	nop
0005a4   0000     nop                      	nop
0005a6   0000     nop                      	nop
0005a8   0000     nop                      	nop
0005aa   0000     nop                      	nop
0005ac   0000     nop                      	nop
0005ae   0000     nop                      	nop
0005b0   0000     nop                      	nop
0005b2   0000     nop                      	nop
0005b4   0000     nop                      	nop
0005b6   0000     nop                      	nop
0005b8   0000     nop                      	nop
0005ba   0000     nop                      	nop
0005bc   0000     nop                      	nop
0005be   0000     nop                      	nop
0005c0   0000     nop                      	nop
0005c2   0000     nop                      	nop
0005c4   0000     nop                      	nop
0005c6   0000     nop                      	nop
0005c8   0000     nop                      	nop
0005ca   0000     nop                      	nop
0005cc   0000     nop                      	nop
0005ce   0000     nop                      	nop
0005d0   0000     nop                      	nop
0005d2   0000     nop                      	nop
0005d4   0000     nop                      	nop
0005d6   0000     nop                      	nop
0005d8   0000     nop                      	nop
0005da   0000     nop                      	nop
0005dc   0000     nop                      	nop
0005de   0000     nop                      	nop
0005e0   0000     nop                      	nop
0005e2   0000     nop                      	nop
0005e4   0000     nop                      	nop
0005e6   0000     nop                      	nop
0005e8   0000     nop                      	nop
0005ea   0000     nop                      	nop
0005ec   0000     nop                      	nop
0005ee   0000     nop                      	nop
0005f0   0000     nop                      	nop
0005f2   0000     nop                      	nop
0005f4   0000     nop                      	nop
0005f6   0000     nop                      	nop
0005f8   0000     nop                      	nop
0005fa   0000     nop                      	nop
0005fc   0000     nop                      	nop
0005fe   0000     nop                      	nop
000600   0000     nop                      	nop
000602   0000     nop                      	nop
000604   0000     nop                      	nop
000606   0000     nop                      	nop
000608   0000     nop                      	nop
00060a   0000     nop                      	nop
00060c   0000     nop                      	nop
00060e   0000     nop                      	nop
000610   0000     nop                      	nop
000612   0000     nop                      	nop
000614   0000     nop                      	nop
000616   0000     nop                      	nop
000618   0000     nop                      	nop
00061a   0000     nop                      	nop
00061c   0000     nop                      	nop
00061e   0000     nop                      	nop
000620   0000     nop                      	nop
000622   0000     nop                      	nop
000624   0000     nop                      	nop
000626   0000     nop                      	nop
000628   0000     nop                      	nop
00062a   0000     nop                      	nop
00062c   0000     nop                      	nop
00062e   0000     nop                      	nop
000630   0000     nop                      	nop
000632   0000     nop                      	nop
000634   0000     nop                      	nop
000636   0000     nop                      	nop
000638   0000     nop                      	nop
00063a   0000     nop                      	nop
00063c   0000     nop                      	nop
00063e   0000     nop                      	nop
000640   0000     nop                      	nop
000642   0000     nop                      	nop
000644   0000     nop                      	nop
000646   0000     nop                      	nop
000648   0000     nop                      	nop
00064a   0000     nop                      	nop
00064c   0000     nop                      	nop
00064e   0000     nop                      	nop
000650   0000     nop                      	nop
000652   0000     nop                      	nop
000654   0000     nop                      	nop
000656   0000     nop                      	nop
000658   0000     nop                      	nop
00065a   0000     nop                      	nop
00065c   0000     nop                      	nop
00065e   0000     nop                      	nop
000660   0000     nop                      	nop
000662   0000     nop                      	nop
000664   0000     nop                      	nop
000666   0000     nop                      	nop
000668   0000     nop                      	nop
00066a   0000     nop                      	nop
00066c   0000     nop                      	nop
00066e   0000     nop                      	nop
000670   0000     nop                      	nop
000672   0000     nop                      	nop
000674   0000     nop                      	nop
000676   0000     nop                      	nop
000678   0000     nop                      	nop
00067a   0000     nop                      	nop
00067c   0000     nop                      	nop
00067e   0000     nop                      	nop
000680   0000     nop                      	nop
000682   0000     nop                      	nop
                                           	
                                           ;	.line	1850; meter_logger.c	PWM_PIN = 1;
000684   8282     bsf     0x82, 0x1, 0     	BSF	_PORTCbits, 1
000686   0000     nop                      	nop
000688   0000     nop                      	nop
00068a   0000     nop                      	nop
00068c   0000     nop                      	nop
00068e   0000     nop                      	nop
000690   0000     nop                      	nop
000692   0000     nop                      	nop
000694   0000     nop                      	nop
000696   0000     nop                      	nop
000698   0000     nop                      	nop
00069a   0000     nop                      	nop
00069c   0000     nop                      	nop
00069e   0000     nop                      	nop
0006a0   0000     nop                      	nop
0006a2   0000     nop                      	nop
0006a4   0000     nop                      	nop
0006a6   0000     nop                      	nop
0006a8   0000     nop                      	nop
0006aa   0000     nop                      	nop
0006ac   0000     nop                      	nop
0006ae   0000     nop                      	nop
0006b0   0000     nop                      	nop
0006b2   0000     nop                      	nop
0006b4   0000     nop                      	nop
0006b6   0000     nop                      	nop
0006b8   0000     nop                      	nop
0006ba   0000     nop                      	nop
0006bc   0000     nop                      	nop
0006be   0000     nop                      	nop
0006c0   0000     nop                      	nop
0006c2   0000     nop                      	nop
0006c4   0000     nop                      	nop
0006c6   0000     nop                      	nop
0006c8   0000     nop                      	nop
0006ca   0000     nop                      	nop
0006cc   0000     nop                      	nop
0006ce   0000     nop                      	nop
0006d0   0000     nop                      	nop
0006d2   0000     nop                      	nop
0006d4   0000     nop                      	nop
0006d6   0000     nop                      	nop
0006d8   0000     nop                      	nop
0006da   0000     nop                      	nop
0006dc   0000     nop                      	nop
0006de   0000     nop                      	nop
0006e0   0000     nop                      	nop
0006e2   0000     nop                      	nop
0006e4   0000     nop                      	nop
0006e6   0000     nop                      	nop
0006e8   0000     nop                      	nop
0006ea   0000     nop                      	nop
0006ec   0000     nop                      	nop
0006ee   0000     nop                      	nop
0006f0   0000     nop                      	nop
0006f2   0000     nop                      	nop
0006f4   0000     nop                      	nop
0006f6   0000     nop                      	nop
0006f8   0000     nop                      	nop
0006fa   0000     nop                      	nop
0006fc   0000     nop                      	nop
0006fe   0000     nop                      	nop
000700   0000     nop                      	nop
000702   0000     nop                      	nop
000704   0000     nop                      	nop
000706   0000     nop                      	nop
000708   0000     nop                      	nop
00070a   0000     nop                      	nop
00070c   0000     nop                      	nop
00070e   0000     nop                      	nop
000710   0000     nop                      	nop
000712   0000     nop                      	nop
000714   0000     nop                      	nop
000716   0000     nop                      	nop
000718   0000     nop                      	nop
00071a   0000     nop                      	nop
00071c   0000     nop                      	nop
00071e   0000     nop                      	nop
000720   0000     nop                      	nop
000722   0000     nop                      	nop
000724   0000     nop                      	nop
000726   0000     nop                      	nop
000728   0000     nop                      	nop
00072a   0000     nop                      	nop
00072c   0000     nop                      	nop
00072e   0000     nop                      	nop
000730   0000     nop                      	nop
000732   0000     nop                      	nop
000734   0000     nop                      	nop
000736   0000     nop                      	nop
000738   0000     nop                      	nop
00073a   0000     nop                      	nop
00073c   0000     nop                      	nop
00073e   0000     nop                      	nop
000740   0000     nop                      	nop
000742   0000     nop                      	nop
000744   0000     nop                      	nop
000746   0000     nop                      	nop
000748   0000     nop                      	nop
00074a   0000     nop                      	nop
00074c   0000     nop                      	nop
00074e   0000     nop                      	nop
000750   0000     nop                      	nop
000752   0000     nop                      	nop
000754   0000     nop                      	nop
000756   0000     nop                      	nop
000758   0000     nop                      	nop
00075a   0000     nop                      	nop
00075c   0000     nop                      	nop
00075e   0000     nop                      	nop
000760   0000     nop                      	nop
000762   0000     nop                      	nop
000764   0000     nop                      	nop
000766   0000     nop                      	nop
000768   0000     nop                      	nop
00076a   0000     nop                      	nop
00076c   0000     nop                      	nop
00076e   0000     nop                      	nop
000770   0000     nop                      	nop
000772   0000     nop                      	nop
000774   0000     nop                      	nop
000776   0000     nop                      	nop
000778   0000     nop                      	nop
00077a   0000     nop                      	nop
00077c   0000     nop                      	nop
00077e   0000     nop                      	nop
000780   0000     nop                      	nop
000782   0000     nop                      	nop
000784   0000     nop                      	nop
000786   0000     nop                      	nop
000788   0000     nop                      	nop
00078a   0000     nop                      	nop
00078c   0000     nop                      	nop
00078e   0000     nop                      	nop
000790   0000     nop                      	nop
000792   0000     nop                      	nop
                                           	
                                           ;	.line	1988; meter_logger.c	PWM_PIN = 0;
000794   9282     bcf     0x82, 0x1, 0     	BCF	_PORTCbits, 1
000796   0000     nop                      	nop
000798   0000     nop                      	nop
00079a   0000     nop                      	nop
00079c   0000     nop                      	nop
00079e   0000     nop                      	nop
0007a0   0000     nop                      	nop
0007a2   0000     nop                      	nop
0007a4   0000     nop                      	nop
0007a6   0000     nop                      	nop
0007a8   0000     nop                      	nop
0007aa   0000     nop                      	nop
0007ac   0000     nop                      	nop
0007ae   0000     nop                      	nop
0007b0   0000     nop                      	nop
0007b2   0000     nop                      	nop
0007b4   0000     nop                      	nop
0007b6   0000     nop                      	nop
0007b8   0000     nop                      	nop
0007ba   0000     nop                      	nop
0007bc   0000     nop                      	nop
0007be   0000     nop                      	nop
0007c0   0000     nop                      	nop
0007c2   0000     nop                      	nop
0007c4   0000     nop                      	nop
0007c6   0000     nop                      	nop
0007c8   0000     nop                      	nop
0007ca   0000     nop                      	nop
0007cc   0000     nop                      	nop
0007ce   0000     nop                      	nop
0007d0   0000     nop                      	nop
0007d2   0000     nop                      	nop
0007d4   0000     nop                      	nop
0007d6   0000     nop                      	nop
0007d8   0000     nop                      	nop
0007da   0000     nop                      	nop
0007dc   0000     nop                      	nop
0007de   0000     nop                      	nop
0007e0   0000     nop                      	nop
0007e2   0000     nop                      	nop
0007e4   0000     nop                      	nop
0007e6   0000     nop                      	nop
0007e8   0000     nop                      	nop
0007ea   0000     nop                      	nop
0007ec   0000     nop                      	nop
0007ee   0000     nop                      	nop
0007f0   0000     nop                      	nop
0007f2   0000     nop                      	nop
0007f4   0000     nop                      	nop
0007f6   0000     nop                      	nop
0007f8   0000     nop                      	nop
0007fa   0000     nop                      	nop
0007fc   0000     nop                      	nop
0007fe   0000     nop                      	nop
000800   0000     nop                      	nop
000802   0000     nop                      	nop
000804   0000     nop                      	nop
000806   0000     nop                      	nop
000808   0000     nop                      	nop
00080a   0000     nop                      	nop
00080c   0000     nop                      	nop
00080e   0000     nop                      	nop
000810   0000     nop                      	nop
000812   0000     nop                      	nop
000814   0000     nop                      	nop
000816   0000     nop                      	nop
000818   0000     nop                      	nop
00081a   0000     nop                      	nop
00081c   0000     nop                      	nop
00081e   0000     nop                      	nop
000820   0000     nop                      	nop
000822   0000     nop                      	nop
000824   0000     nop                      	nop
000826   0000     nop                      	nop
000828   0000     nop                      	nop
00082a   0000     nop                      	nop
00082c   0000     nop                      	nop
00082e   0000     nop                      	nop
000830   0000     nop                      	nop
000832   0000     nop                      	nop
000834   0000     nop                      	nop
000836   0000     nop                      	nop
000838   0000     nop                      	nop
00083a   0000     nop                      	nop
00083c   0000     nop                      	nop
00083e   0000     nop                      	nop
000840   0000     nop                      	nop
000842   0000     nop                      	nop
000844   0000     nop                      	nop
000846   0000     nop                      	nop
000848   0000     nop                      	nop
00084a   0000     nop                      	nop
00084c   0000     nop                      	nop
00084e   0000     nop                      	nop
000850   0000     nop                      	nop
000852   0000     nop                      	nop
000854   0000     nop                      	nop
000856   0000     nop                      	nop
000858   0000     nop                      	nop
00085a   0000     nop                      	nop
00085c   0000     nop                      	nop
00085e   0000     nop                      	nop
000860   0000     nop                      	nop
000862   0000     nop                      	nop
000864   0000     nop                      	nop
000866   0000     nop                      	nop
000868   0000     nop                      	nop
00086a   0000     nop                      	nop
00086c   0000     nop                      	nop
00086e   0000     nop                      	nop
000870   0000     nop                      	nop
000872   0000     nop                      	nop
000874   0000     nop                      	nop
000876   0000     nop                      	nop
000878   0000     nop                      	nop
00087a   0000     nop                      	nop
00087c   0000     nop                      	nop
00087e   0000     nop                      	nop
000880   0000     nop                      	nop
000882   0000     nop                      	nop
000884   0000     nop                      	nop
000886   0000     nop                      	nop
000888   0000     nop                      	nop
00088a   0000     nop                      	nop
00088c   0000     nop                      	nop
00088e   0000     nop                      	nop
000890   0000     nop                      	nop
000892   0000     nop                      	nop
000894   0000     nop                      	nop
000896   0000     nop                      	nop
000898   0000     nop                      	nop
00089a   0000     nop                      	nop
00089c   0000     nop                      	nop
00089e   0000     nop                      	nop
0008a0   0000     nop                      	nop
0008a2   0000     nop                      	nop
                                           	
                                           ;	.line	2126; meter_logger.c	PWM_PIN = 1;
0008a4   8282     bsf     0x82, 0x1, 0     	BSF	_PORTCbits, 1
0008a6   0000     nop                      	nop
0008a8   0000     nop                      	nop
0008aa   0000     nop                      	nop
0008ac   0000     nop                      	nop
0008ae   0000     nop                      	nop
0008b0   0000     nop                      	nop
0008b2   0000     nop                      	nop
0008b4   0000     nop                      	nop
0008b6   0000     nop                      	nop
0008b8   0000     nop                      	nop
0008ba   0000     nop                      	nop
0008bc   0000     nop                      	nop
0008be   0000     nop                      	nop
0008c0   0000     nop                      	nop
0008c2   0000     nop                      	nop
0008c4   0000     nop                      	nop
0008c6   0000     nop                      	nop
0008c8   0000     nop                      	nop
0008ca   0000     nop                      	nop
0008cc   0000     nop                      	nop
0008ce   0000     nop                      	nop
0008d0   0000     nop                      	nop
0008d2   0000     nop                      	nop
0008d4   0000     nop                      	nop
0008d6   0000     nop                      	nop
0008d8   0000     nop                      	nop
0008da   0000     nop                      	nop
0008dc   0000     nop                      	nop
0008de   0000     nop                      	nop
0008e0   0000     nop                      	nop
0008e2   0000     nop                      	nop
0008e4   0000     nop                      	nop
0008e6   0000     nop                      	nop
0008e8   0000     nop                      	nop
0008ea   0000     nop                      	nop
0008ec   0000     nop                      	nop
0008ee   0000     nop                      	nop
0008f0   0000     nop                      	nop
0008f2   0000     nop                      	nop
0008f4   0000     nop                      	nop
0008f6   0000     nop                      	nop
0008f8   0000     nop                      	nop
0008fa   0000     nop                      	nop
0008fc   0000     nop                      	nop
0008fe   0000     nop                      	nop
000900   0000     nop                      	nop
000902   0000     nop                      	nop
000904   0000     nop                      	nop
000906   0000     nop                      	nop
000908   0000     nop                      	nop
00090a   0000     nop                      	nop
00090c   0000     nop                      	nop
00090e   0000     nop                      	nop
000910   0000     nop                      	nop
000912   0000     nop                      	nop
000914   0000     nop                      	nop
000916   0000     nop                      	nop
000918   0000     nop                      	nop
00091a   0000     nop                      	nop
00091c   0000     nop                      	nop
00091e   0000     nop                      	nop
000920   0000     nop                      	nop
000922   0000     nop                      	nop
000924   0000     nop                      	nop
000926   0000     nop                      	nop
000928   0000     nop                      	nop
00092a   0000     nop                      	nop
00092c   0000     nop                      	nop
00092e   0000     nop                      	nop
000930   0000     nop                      	nop
000932   0000     nop                      	nop
000934   0000     nop                      	nop
000936   0000     nop                      	nop
000938   0000     nop                      	nop
00093a   0000     nop                      	nop
00093c   0000     nop                      	nop
00093e   0000     nop                      	nop
000940   0000     nop                      	nop
000942   0000     nop                      	nop
000944   0000     nop                      	nop
000946   0000     nop                      	nop
000948   0000     nop                      	nop
00094a   0000     nop                      	nop
00094c   0000     nop                      	nop
00094e   0000     nop                      	nop
000950   0000     nop                      	nop
000952   0000     nop                      	nop
000954   0000     nop                      	nop
000956   0000     nop                      	nop
000958   0000     nop                      	nop
00095a   0000     nop                      	nop
00095c   0000     nop                      	nop
00095e   0000     nop                      	nop
000960   0000     nop                      	nop
000962   0000     nop                      	nop
000964   0000     nop                      	nop
000966   0000     nop                      	nop
000968   0000     nop                      	nop
00096a   0000     nop                      	nop
00096c   0000     nop                      	nop
00096e   0000     nop                      	nop
000970   0000     nop                      	nop
000972   0000     nop                      	nop
000974   0000     nop                      	nop
000976   0000     nop                      	nop
000978   0000     nop                      	nop
00097a   0000     nop                      	nop
00097c   0000     nop                      	nop
00097e   0000     nop                      	nop
000980   0000     nop                      	nop
000982   0000     nop                      	nop
000984   0000     nop                      	nop
000986   0000     nop                      	nop
000988   0000     nop                      	nop
00098a   0000     nop                      	nop
00098c   0000     nop                      	nop
00098e   0000     nop                      	nop
000990   0000     nop                      	nop
000992   0000     nop                      	nop
000994   0000     nop                      	nop
000996   0000     nop                      	nop
000998   0000     nop                      	nop
00099a   0000     nop                      	nop
00099c   0000     nop                      	nop
00099e   0000     nop                      	nop
0009a0   0000     nop                      	nop
0009a2   0000     nop                      	nop
0009a4   0000     nop                      	nop
0009a6   0000     nop                      	nop
0009a8   0000     nop                      	nop
0009aa   0000     nop                      	nop
0009ac   0000     nop                      	nop
0009ae   0000     nop                      	nop
0009b0   0000     nop                      	nop
0009b2   0000     nop                      	nop
                                           	
                                           ;	.line	2264; meter_logger.c	PWM_PIN = 0;
0009b4   9282     bcf     0x82, 0x1, 0     	BCF	_PORTCbits, 1
0009b6   0000     nop                      	nop
0009b8   0000     nop                      	nop
0009ba   0000     nop                      	nop
0009bc   0000     nop                      	nop
0009be   0000     nop                      	nop
0009c0   0000     nop                      	nop
0009c2   0000     nop                      	nop
0009c4   0000     nop                      	nop
0009c6   0000     nop                      	nop
0009c8   0000     nop                      	nop
0009ca   0000     nop                      	nop
0009cc   0000     nop                      	nop
0009ce   0000     nop                      	nop
0009d0   0000     nop                      	nop
0009d2   0000     nop                      	nop
0009d4   0000     nop                      	nop
0009d6   0000     nop                      	nop
0009d8   0000     nop                      	nop
0009da   0000     nop                      	nop
0009dc   0000     nop                      	nop
0009de   0000     nop                      	nop
0009e0   0000     nop                      	nop
0009e2   0000     nop                      	nop
0009e4   0000     nop                      	nop
0009e6   0000     nop                      	nop
0009e8   0000     nop                      	nop
0009ea   0000     nop                      	nop
0009ec   0000     nop                      	nop
0009ee   0000     nop                      	nop
0009f0   0000     nop                      	nop
0009f2   0000     nop                      	nop
0009f4   0000     nop                      	nop
0009f6   0000     nop                      	nop
0009f8   0000     nop                      	nop
0009fa   0000     nop                      	nop
0009fc   0000     nop                      	nop
0009fe   0000     nop                      	nop
000a00   0000     nop                      	nop
000a02   0000     nop                      	nop
000a04   0000     nop                      	nop
000a06   0000     nop                      	nop
000a08   0000     nop                      	nop
000a0a   0000     nop                      	nop
000a0c   0000     nop                      	nop
000a0e   0000     nop                      	nop
000a10   0000     nop                      	nop
000a12   0000     nop                      	nop
000a14   0000     nop                      	nop
000a16   0000     nop                      	nop
000a18   0000     nop                      	nop
000a1a   0000     nop                      	nop
000a1c   0000     nop                      	nop
000a1e   0000     nop                      	nop
000a20   0000     nop                      	nop
000a22   0000     nop                      	nop
000a24   0000     nop                      	nop
000a26   0000     nop                      	nop
000a28   0000     nop                      	nop
000a2a   0000     nop                      	nop
000a2c   0000     nop                      	nop
000a2e   0000     nop                      	nop
000a30   0000     nop                      	nop
000a32   0000     nop                      	nop
000a34   0000     nop                      	nop
000a36   0000     nop                      	nop
000a38   0000     nop                      	nop
000a3a   0000     nop                      	nop
000a3c   0000     nop                      	nop
000a3e   0000     nop                      	nop
000a40   0000     nop                      	nop
000a42   0000     nop                      	nop
000a44   0000     nop                      	nop
000a46   0000     nop                      	nop
000a48   0000     nop                      	nop
000a4a   0000     nop                      	nop
000a4c   0000     nop                      	nop
000a4e   0000     nop                      	nop
000a50   0000     nop                      	nop
000a52   0000     nop                      	nop
000a54   0000     nop                      	nop
000a56   0000     nop                      	nop
000a58   0000     nop                      	nop
000a5a   0000     nop                      	nop
000a5c   0000     nop                      	nop
000a5e   0000     nop                      	nop
000a60   0000     nop                      	nop
000a62   0000     nop                      	nop
000a64   0000     nop                      	nop
000a66   0000     nop                      	nop
000a68   0000     nop                      	nop
000a6a   0000     nop                      	nop
000a6c   0000     nop                      	nop
000a6e   0000     nop                      	nop
000a70   0000     nop                      	nop
000a72   0000     nop                      	nop
000a74   0000     nop                      	nop
000a76   0000     nop                      	nop
000a78   0000     nop                      	nop
000a7a   0000     nop                      	nop
000a7c   0000     nop                      	nop
000a7e   0000     nop                      	nop
000a80   0000     nop                      	nop
000a82   0000     nop                      	nop
000a84   0000     nop                      	nop
000a86   0000     nop                      	nop
000a88   0000     nop                      	nop
000a8a   0000     nop                      	nop
000a8c   0000     nop                      	nop
000a8e   0000     nop                      	nop
000a90   0000     nop                      	nop
000a92   0000     nop                      	nop
000a94   0000     nop                      	nop
000a96   0000     nop                      	nop
000a98   0000     nop                      	nop
000a9a   0000     nop                      	nop
000a9c   0000     nop                      	nop
000a9e   0000     nop                      	nop
000aa0   0000     nop                      	nop
000aa2   0000     nop                      	nop
000aa4   0000     nop                      	nop
000aa6   0000     nop                      	nop
000aa8   0000     nop                      	nop
000aaa   0000     nop                      	nop
000aac   0000     nop                      	nop
000aae   0000     nop                      	nop
000ab0   0000     nop                      	nop
000ab2   0000     nop                      	nop
000ab4   0000     nop                      	nop
000ab6   0000     nop                      	nop
000ab8   0000     nop                      	nop
000aba   0000     nop                      	nop
000abc   0000     nop                      	nop
000abe   0000     nop                      	nop
000ac0   0000     nop                      	nop
000ac2   0000     nop                      	nop
                                           	
                                           ;	.line	2402; meter_logger.c	PWM_PIN = 1;
000ac4   8282     bsf     0x82, 0x1, 0     	BSF	_PORTCbits, 1
000ac6   0000     nop                      	nop
000ac8   0000     nop                      	nop
000aca   0000     nop                      	nop
000acc   0000     nop                      	nop
000ace   0000     nop                      	nop
000ad0   0000     nop                      	nop
000ad2   0000     nop                      	nop
000ad4   0000     nop                      	nop
000ad6   0000     nop                      	nop
000ad8   0000     nop                      	nop
000ada   0000     nop                      	nop
000adc   0000     nop                      	nop
000ade   0000     nop                      	nop
000ae0   0000     nop                      	nop
000ae2   0000     nop                      	nop
000ae4   0000     nop                      	nop
000ae6   0000     nop                      	nop
000ae8   0000     nop                      	nop
000aea   0000     nop                      	nop
000aec   0000     nop                      	nop
000aee   0000     nop                      	nop
000af0   0000     nop                      	nop
000af2   0000     nop                      	nop
000af4   0000     nop                      	nop
000af6   0000     nop                      	nop
000af8   0000     nop                      	nop
000afa   0000     nop                      	nop
000afc   0000     nop                      	nop
000afe   0000     nop                      	nop
000b00   0000     nop                      	nop
000b02   0000     nop                      	nop
000b04   0000     nop                      	nop
000b06   0000     nop                      	nop
000b08   0000     nop                      	nop
000b0a   0000     nop                      	nop
000b0c   0000     nop                      	nop
000b0e   0000     nop                      	nop
000b10   0000     nop                      	nop
000b12   0000     nop                      	nop
000b14   0000     nop                      	nop
000b16   0000     nop                      	nop
000b18   0000     nop                      	nop
000b1a   0000     nop                      	nop
000b1c   0000     nop                      	nop
000b1e   0000     nop                      	nop
000b20   0000     nop                      	nop
000b22   0000     nop                      	nop
000b24   0000     nop                      	nop
000b26   0000     nop                      	nop
000b28   0000     nop                      	nop
000b2a   0000     nop                      	nop
000b2c   0000     nop                      	nop
000b2e   0000     nop                      	nop
000b30   0000     nop                      	nop
000b32   0000     nop                      	nop
000b34   0000     nop                      	nop
000b36   0000     nop                      	nop
000b38   0000     nop                      	nop
000b3a   0000     nop                      	nop
000b3c   0000     nop                      	nop
000b3e   0000     nop                      	nop
000b40   0000     nop                      	nop
000b42   0000     nop                      	nop
000b44   0000     nop                      	nop
000b46   0000     nop                      	nop
000b48   0000     nop                      	nop
000b4a   0000     nop                      	nop
000b4c   0000     nop                      	nop
000b4e   0000     nop                      	nop
000b50   0000     nop                      	nop
000b52   0000     nop                      	nop
000b54   0000     nop                      	nop
000b56   0000     nop                      	nop
000b58   0000     nop                      	nop
000b5a   0000     nop                      	nop
000b5c   0000     nop                      	nop
000b5e   0000     nop                      	nop
000b60   0000     nop                      	nop
000b62   0000     nop                      	nop
000b64   0000     nop                      	nop
000b66   0000     nop                      	nop
000b68   0000     nop                      	nop
000b6a   0000     nop                      	nop
000b6c   0000     nop                      	nop
000b6e   0000     nop                      	nop
000b70   0000     nop                      	nop
000b72   0000     nop                      	nop
000b74   0000     nop                      	nop
000b76   0000     nop                      	nop
000b78   0000     nop                      	nop
000b7a   0000     nop                      	nop
000b7c   0000     nop                      	nop
000b7e   0000     nop                      	nop
000b80   0000     nop                      	nop
000b82   0000     nop                      	nop
000b84   0000     nop                      	nop
000b86   0000     nop                      	nop
000b88   0000     nop                      	nop
000b8a   0000     nop                      	nop
000b8c   0000     nop                      	nop
000b8e   0000     nop                      	nop
000b90   0000     nop                      	nop
000b92   0000     nop                      	nop
000b94   0000     nop                      	nop
000b96   0000     nop                      	nop
000b98   0000     nop                      	nop
000b9a   0000     nop                      	nop
000b9c   0000     nop                      	nop
000b9e   0000     nop                      	nop
000ba0   0000     nop                      	nop
000ba2   0000     nop                      	nop
000ba4   0000     nop                      	nop
000ba6   0000     nop                      	nop
000ba8   0000     nop                      	nop
000baa   0000     nop                      	nop
000bac   0000     nop                      	nop
000bae   0000     nop                      	nop
000bb0   0000     nop                      	nop
000bb2   0000     nop                      	nop
000bb4   0000     nop                      	nop
000bb6   0000     nop                      	nop
000bb8   0000     nop                      	nop
000bba   0000     nop                      	nop
000bbc   0000     nop                      	nop
000bbe   0000     nop                      	nop
000bc0   0000     nop                      	nop
000bc2   0000     nop                      	nop
000bc4   0000     nop                      	nop
000bc6   0000     nop                      	nop
000bc8   0000     nop                      	nop
000bca   0000     nop                      	nop
000bcc   0000     nop                      	nop
000bce   0000     nop                      	nop
000bd0   0000     nop                      	nop
000bd2   0000     nop                      	nop
                                           	
                                           ;	.line	2540; meter_logger.c	PWM_PIN = 0;
000bd4   9282     bcf     0x82, 0x1, 0     	BCF	_PORTCbits, 1
000bd6   cfe4     movff   0xfe4, 0xfd9     	MOVFF	PREINC1, FSR2L
000bd8   ffd9
000bda   0012     return  0                	RETURN	
                                           
                                           ; ; Starting pCode block
                                           S_meter_logger__fsk_rx_disable	code
                                           _fsk_rx_disable:
                                           ;	.line	1016; meter_logger.c	void fsk_rx_disable() {
003456   cfd9     movff   0xfd9, 0xfe5     	MOVFF	FSR2L, POSTDEC1
003458   ffe5
00345a   cfe1     movff   0xfe1, 0xfd9     	MOVFF	FSR1L, FSR2L
00345c   ffd9
                                           ;	.line	1017; meter_logger.c	PIE2bits.CMIE = 0;		// Disable comparator interrupt
00345e   9ca0     bcf     0xa0, 0x6, 0     	BCF	_PIE2bits, 6
003460   0105     movlb   0x5              	BANKSEL	_codec_type
                                           ;	.line	1018; meter_logger.c	codec_type = NONE;
003462   6b23     clrf    0x23, 0x1        	CLRF	_codec_type, B
003464   cfe4     movff   0xfe4, 0xfd9     	MOVFF	PREINC1, FSR2L
003466   ffd9
003468   0012     return  0                	RETURN	
                                           
                                           ; ; Starting pCode block
                                           S_meter_logger__fsk_rx_enable	code
                                           _fsk_rx_enable:
                                           ;	.line	980; meter_logger.c	void fsk_rx_enable() {
00310c   cfd9     movff   0xfd9, 0xfe5     	MOVFF	FSR2L, POSTDEC1
00310e   ffe5
003110   cfe1     movff   0xfe1, 0xfd9     	MOVFF	FSR1L, FSR2L
003112   ffd9
                                           ;	.line	981; meter_logger.c	fsk_proto.state = START_BIT_WAIT;
003114   0e02     movlw   0x2              	MOVLW	0x02
003116   0100     movlb   0                	BANKSEL	_fsk_proto
003118   6fe0     movwf   0xe0, 0x1        	MOVWF	_fsk_proto, B
                                           ; removed redundant BANKSEL
                                           ;	.line	982; meter_logger.c	fsk_proto.start_bit_time = 0;
00311a   6bea     clrf    0xea, 0x1        	CLRF	(_fsk_proto + 10), B
                                           ; removed redundant BANKSEL
00311c   6beb     clrf    0xeb, 0x1        	CLRF	(_fsk_proto + 11), B
                                           ;	.line	984; meter_logger.c	timer0_reload = TIMER0_FSK;
00311e   0e9f     movlw   0x9f             	MOVLW	0x9f
003120   0105     movlb   0x5              	BANKSEL	_timer0_reload
003122   6f1a     movwf   0x1a, 0x1        	MOVWF	_timer0_reload, B
003124   0ef9     movlw   0xf9             	MOVLW	0xf9
                                           ; removed redundant BANKSEL
003126   6f1b     movwf   0x1b, 0x1        	MOVWF	(_timer0_reload + 1), B
                                           ;	.line	986; meter_logger.c	codec_type = FSK_RX;
003128   0e04     movlw   0x4              	MOVLW	0x04
00312a   0105     movlb   0x5              	BANKSEL	_codec_type
00312c   6f23     movwf   0x23, 0x1        	MOVWF	_codec_type, B
                                           ;	.line	989; meter_logger.c	T0CONbits.TMR0ON = 1;
00312e   8ed5     bsf     0xd5, 0x7, 0     	BSF	_T0CONbits, 7
                                           ;	.line	990; meter_logger.c	T0CONbits.T0PS0 = 0;
003130   90d5     bcf     0xd5, 0, 0       	BCF	_T0CONbits, 0
                                           ;	.line	991; meter_logger.c	T0CONbits.T0PS1 = 0;
003132   92d5     bcf     0xd5, 0x1, 0     	BCF	_T0CONbits, 1
                                           ;	.line	992; meter_logger.c	T0CONbits.T0PS2 = 0;		// prescaler 1:2
003134   94d5     bcf     0xd5, 0x2, 0     	BCF	_T0CONbits, 2
                                           ;	.line	993; meter_logger.c	T0CONbits.T08BIT = 0;		// use timer0 16-bit counter
003136   9cd5     bcf     0xd5, 0x6, 0     	BCF	_T0CONbits, 6
                                           ;	.line	994; meter_logger.c	T0CONbits.T0CS = 0;			// internal clock source
003138   9ad5     bcf     0xd5, 0x5, 0     	BCF	_T0CONbits, 5
                                           ;	.line	995; meter_logger.c	T0CONbits.PSA = 1;			// disable timer0 prescaler
00313a   86d5     bsf     0xd5, 0x3, 0     	BSF	_T0CONbits, 3
                                           ;	.line	996; meter_logger.c	INTCON2bits.TMR0IP = 1;		// high priority
00313c   84f1     bsf     0xf1, 0x2, 0     	BSF	_INTCON2bits, 2
                                           ;	.line	997; meter_logger.c	INTCONbits.TMR0IE = 0;		// Dont enable TMR0 Interrupt
00313e   9af2     bcf     0xf2, 0x5, 0     	BCF	_INTCONbits, 5
                                           ;	.line	1000; meter_logger.c	CVRCONbits.CVREF = 0xf;	// 0V
003140   88b5     bsf     0xb5, 0x4, 0     	BSF	_CVRCONbits, 4
                                           ;	.line	1002; meter_logger.c	CVRCONbits.CVRSS = 0;	// VDD  VSS
003142   98b5     bcf     0xb5, 0x4, 0     	BCF	_CVRCONbits, 4
                                           ;	.line	1003; meter_logger.c	CVRCONbits.CVRR = 0;	// high range, 0.25 CVRSRC to 0.75 CVRSRC, with CVRSRC/32 step size
003144   9ab5     bcf     0xb5, 0x5, 0     	BCF	_CVRCONbits, 5
                                           ;	.line	1004; meter_logger.c	CVRCONbits.CVR = 9;		// 2,65625 V
003146   50b5     movf    0xb5, 0, 0       	MOVF	_CVRCONbits, W
003148   0bf0     andlw   0xf0             	ANDLW	0xf0
00314a   0909     iorlw   0x9              	IORLW	0x09
00314c   6eb5     movwf   0xb5, 0          	MOVWF	_CVRCONbits
                                           ;	.line	1005; meter_logger.c	CVRCONbits.CVROE = 0;	// Comparator VREF Output disabled, CVREF voltage is disconnected from the RA2/AN2/VREF-/CVREF pin
00314e   9cb5     bcf     0xb5, 0x6, 0     	BCF	_CVRCONbits, 6
                                           ;	.line	1006; meter_logger.c	CVRCONbits.CVREN = 1;	// Comparator Voltage Reference Enable bit
003150   8eb5     bsf     0xb5, 0x7, 0     	BSF	_CVRCONbits, 7
                                           ;	.line	1008; meter_logger.c	CMCONbits.CM = 0x6;		// four inputs multiplexed to two comparators
003152   50b4     movf    0xb4, 0, 0       	MOVF	_CMCONbits, W
003154   0bf8     andlw   0xf8             	ANDLW	0xf8
003156   0906     iorlw   0x6              	IORLW	0x06
003158   6eb4     movwf   0xb4, 0          	MOVWF	_CMCONbits
                                           ;	.line	1009; meter_logger.c	CMCONbits.CIS = 0;		// multiplexed to RA0/AN0 and RA1/AN1
00315a   96b4     bcf     0xb4, 0x3, 0     	BCF	_CMCONbits, 3
                                           ;	.line	1010; meter_logger.c	CMCONbits.C1INV = 1;	// inverted output, C1 VIN+ < C1 VIN-
00315c   88b4     bsf     0xb4, 0x4, 0     	BSF	_CMCONbits, 4
                                           ;	.line	1012; meter_logger.c	IPR2bits.CMIP = 1;		// high priority
00315e   8ca2     bsf     0xa2, 0x6, 0     	BSF	_IPR2bits, 6
                                           ;	.line	1013; meter_logger.c	PIE2bits.CMIE = 1;		// Enable comparator interrupt
003160   8ca0     bsf     0xa0, 0x6, 0     	BSF	_PIE2bits, 6
003162   cfe4     movff   0xfe4, 0xfd9     	MOVFF	PREINC1, FSR2L
003164   ffd9
003166   0012     return  0                	RETURN	
                                           
                                           ; ; Starting pCode block
                                           S_meter_logger__fsk_tx_disable	code
                                           _fsk_tx_disable:
                                           ;	.line	974; meter_logger.c	void fsk_tx_disable() {
0033fe   cfd9     movff   0xfd9, 0xfe5     	MOVFF	FSR2L, POSTDEC1
003400   ffe5
003402   cfe1     movff   0xfe1, 0xfd9     	MOVFF	FSR1L, FSR2L
003404   ffd9
003406   0105     movlb   0x5              	BANKSEL	_codec_type
                                           ;	.line	975; meter_logger.c	codec_type = NONE;
003408   6b23     clrf    0x23, 0x1        	CLRF	_codec_type, B
                                           ;	.line	976; meter_logger.c	T0CONbits.TMR0ON = 0;	// Disable TMR0 
00340a   9ed5     bcf     0xd5, 0x7, 0     	BCF	_T0CONbits, 7
                                           ;	.line	977; meter_logger.c	PIE2bits.CMIE = 1;		// Disable comparator interrupt
00340c   8ca0     bsf     0xa0, 0x6, 0     	BSF	_PIE2bits, 6
00340e   cfe4     movff   0xfe4, 0xfd9     	MOVFF	PREINC1, FSR2L
003410   ffd9
003412   0012     return  0                	RETURN	
                                           
                                           ; ; Starting pCode block
                                           S_meter_logger__fsk_tx_enable	code
                                           _fsk_tx_enable:
                                           ;	.line	956; meter_logger.c	void fsk_tx_enable() {
0032aa   cfd9     movff   0xfd9, 0xfe5     	MOVFF	FSR2L, POSTDEC1
0032ac   ffe5
0032ae   cfe1     movff   0xfe1, 0xfd9     	MOVFF	FSR1L, FSR2L
0032b0   ffd9
                                           ;	.line	957; meter_logger.c	timer0_reload = TIMER0_FSK;
0032b2   0e9f     movlw   0x9f             	MOVLW	0x9f
0032b4   0105     movlb   0x5              	BANKSEL	_timer0_reload
0032b6   6f1a     movwf   0x1a, 0x1        	MOVWF	_timer0_reload, B
0032b8   0ef9     movlw   0xf9             	MOVLW	0xf9
                                           ; removed redundant BANKSEL
0032ba   6f1b     movwf   0x1b, 0x1        	MOVWF	(_timer0_reload + 1), B
0032bc   0100     movlb   0                	BANKSEL	_fsk_proto
                                           ;	.line	959; meter_logger.c	fsk_proto.state = INIT_STATE;
0032be   6be0     clrf    0xe0, 0x1        	CLRF	_fsk_proto, B
                                           ;	.line	960; meter_logger.c	codec_type = FSK_TX;
0032c0   0e05     movlw   0x5              	MOVLW	0x05
0032c2   0105     movlb   0x5              	BANKSEL	_codec_type
0032c4   6f23     movwf   0x23, 0x1        	MOVWF	_codec_type, B
                                           ;	.line	963; meter_logger.c	T0CONbits.TMR0ON = 1;
0032c6   8ed5     bsf     0xd5, 0x7, 0     	BSF	_T0CONbits, 7
                                           ;	.line	964; meter_logger.c	T0CONbits.T0PS0 = 0;
0032c8   90d5     bcf     0xd5, 0, 0       	BCF	_T0CONbits, 0
                                           ;	.line	965; meter_logger.c	T0CONbits.T0PS1 = 0;
0032ca   92d5     bcf     0xd5, 0x1, 0     	BCF	_T0CONbits, 1
                                           ;	.line	966; meter_logger.c	T0CONbits.T0PS2 = 0;		// prescaler 1:2
0032cc   94d5     bcf     0xd5, 0x2, 0     	BCF	_T0CONbits, 2
                                           ;	.line	967; meter_logger.c	T0CONbits.T08BIT = 0;		// use timer0 16-bit counter
0032ce   9cd5     bcf     0xd5, 0x6, 0     	BCF	_T0CONbits, 6
                                           ;	.line	968; meter_logger.c	T0CONbits.T0CS = 0;			// internal clock source
0032d0   9ad5     bcf     0xd5, 0x5, 0     	BCF	_T0CONbits, 5
                                           ;	.line	969; meter_logger.c	T0CONbits.PSA = 1;			// disable timer0 prescaler
0032d2   86d5     bsf     0xd5, 0x3, 0     	BSF	_T0CONbits, 3
                                           ;	.line	970; meter_logger.c	INTCON2bits.TMR0IP = 1;		// high priority
0032d4   84f1     bsf     0xf1, 0x2, 0     	BSF	_INTCON2bits, 2
                                           ;	.line	971; meter_logger.c	INTCONbits.TMR0IE = 1;		// Enable TMR0 Interrupt
0032d6   8af2     bsf     0xf2, 0x5, 0     	BSF	_INTCONbits, 5
0032d8   cfe4     movff   0xfe4, 0xfd9     	MOVFF	PREINC1, FSR2L
0032da   ffd9
0032dc   0012     return  0                	RETURN	
                                           
                                           ; ; Starting pCode block
                                           S_meter_logger__rs232_tx_byte	code
                                           _rs232_tx_byte:
                                           ;	.line	949; meter_logger.c	void rs232_tx_byte(unsigned char c) {
0032de   cfd9     movff   0xfd9, 0xfe5     	MOVFF	FSR2L, POSTDEC1
0032e0   ffe5
0032e2   cfe1     movff   0xfe1, 0xfd9     	MOVFF	FSR1L, FSR2L
0032e4   ffd9
0032e6   c000     movff   0, 0xfe5         	MOVFF	r0x00, POSTDEC1
0032e8   ffe5
0032ea   0e02     movlw   0x2              	MOVLW	0x02
0032ec   cfdb     movff   0xfdb, 0         	MOVFF	PLUSW2, r0x00
0032ee   f000
                                           ;	.line	950; meter_logger.c	rs232_proto.data = c;
0032f0   5000     movf    0, 0, 0          	MOVF	r0x00, W
0032f2   0100     movlb   0                	BANKSEL	(_rs232_proto + 2)
0032f4   6ff8     movwf   0xf8, 0x1        	MOVWF	(_rs232_proto + 2), B
                                           ;	.line	951; meter_logger.c	rs232_proto.data_len = 8;
0032f6   0e08     movlw   0x8              	MOVLW	0x08
                                           ; removed redundant BANKSEL
0032f8   6ff9     movwf   0xf9, 0x1        	MOVWF	(_rs232_proto + 3), B
                                           ;	.line	952; meter_logger.c	T0CONbits.TMR0ON = 1;		// start timer 0
0032fa   8ed5     bsf     0xd5, 0x7, 0     	BSF	_T0CONbits, 7
                                           ;	.line	953; meter_logger.c	INTCONbits.TMR0IF = 1;		// enter timer interrupt handler now
0032fc   84f2     bsf     0xf2, 0x2, 0     	BSF	_INTCONbits, 2
0032fe   cfe4     movff   0xfe4, 0         	MOVFF	PREINC1, r0x00
003300   f000
003302   cfe4     movff   0xfe4, 0xfd9     	MOVFF	PREINC1, FSR2L
003304   ffd9
003306   0012     return  0                	RETURN	
                                           
                                           ; ; Starting pCode block
                                           S_meter_logger__rs232_rx_disable	code
                                           _rs232_rx_disable:
                                           ;	.line	943; meter_logger.c	void rs232_rx_disable() {
003414   cfd9     movff   0xfd9, 0xfe5     	MOVFF	FSR2L, POSTDEC1
003416   ffe5
003418   cfe1     movff   0xfe1, 0xfd9     	MOVFF	FSR1L, FSR2L
00341a   ffd9
                                           ;	.line	944; meter_logger.c	INTCONbits.INT0IE = 0;		// disable ext int
00341c   98f2     bcf     0xf2, 0x4, 0     	BCF	_INTCONbits, 4
00341e   0105     movlb   0x5              	BANKSEL	_codec_type
                                           ;	.line	945; meter_logger.c	codec_type = NONE;
003420   6b23     clrf    0x23, 0x1        	CLRF	_codec_type, B
                                           ;	.line	946; meter_logger.c	T0CONbits.TMR0ON = 0;
003422   9ed5     bcf     0xd5, 0x7, 0     	BCF	_T0CONbits, 7
003424   cfe4     movff   0xfe4, 0xfd9     	MOVFF	PREINC1, FSR2L
003426   ffd9
003428   0012     return  0                	RETURN	
                                           
                                           ; ; Starting pCode block
                                           S_meter_logger__rs232_rx_enable	code
                                           _rs232_rx_enable:
                                           ;	.line	919; meter_logger.c	void rs232_rx_enable() {
0031bc   cfd9     movff   0xfd9, 0xfe5     	MOVFF	FSR2L, POSTDEC1
0031be   ffe5
0031c0   cfe1     movff   0xfe1, 0xfd9     	MOVFF	FSR1L, FSR2L
0031c2   ffd9
                                           ;	.line	920; meter_logger.c	rs232_proto.state = START_BIT_WAIT;
0031c4   0e02     movlw   0x2              	MOVLW	0x02
0031c6   0100     movlb   0                	BANKSEL	_rs232_proto
0031c8   6ff6     movwf   0xf6, 0x1        	MOVWF	_rs232_proto, B
                                           ; removed redundant BANKSEL
                                           ;	.line	921; meter_logger.c	rs232_proto.data_len = 0;
0031ca   6bf9     clrf    0xf9, 0x1        	CLRF	(_rs232_proto + 3), B
                                           ;	.line	923; meter_logger.c	timer0_reload = TIMER0_RS232_1200;
0031cc   0eae     movlw   0xae             	MOVLW	0xae
0031ce   0105     movlb   0x5              	BANKSEL	_timer0_reload
0031d0   6f1a     movwf   0x1a, 0x1        	MOVWF	_timer0_reload, B
0031d2   0ef9     movlw   0xf9             	MOVLW	0xf9
                                           ; removed redundant BANKSEL
0031d4   6f1b     movwf   0x1b, 0x1        	MOVWF	(_timer0_reload + 1), B
                                           ;	.line	925; meter_logger.c	codec_type = RS232_RX;
0031d6   0e02     movlw   0x2              	MOVLW	0x02
0031d8   0105     movlb   0x5              	BANKSEL	_codec_type
0031da   6f23     movwf   0x23, 0x1        	MOVWF	_codec_type, B
                                           ;	.line	928; meter_logger.c	T0CONbits.TMR0ON = 0;
0031dc   9ed5     bcf     0xd5, 0x7, 0     	BCF	_T0CONbits, 7
                                           ;	.line	929; meter_logger.c	T0CONbits.T0PS0 = 0;
0031de   90d5     bcf     0xd5, 0, 0       	BCF	_T0CONbits, 0
                                           ;	.line	930; meter_logger.c	T0CONbits.T0PS1 = 0;
0031e0   92d5     bcf     0xd5, 0x1, 0     	BCF	_T0CONbits, 1
                                           ;	.line	931; meter_logger.c	T0CONbits.T0PS2 = 0;		// prescaler 1:2
0031e2   94d5     bcf     0xd5, 0x2, 0     	BCF	_T0CONbits, 2
                                           ;	.line	932; meter_logger.c	T0CONbits.T08BIT = 0;		// use timer0 16-bit counter
0031e4   9cd5     bcf     0xd5, 0x6, 0     	BCF	_T0CONbits, 6
                                           ;	.line	933; meter_logger.c	T0CONbits.T0CS = 0;			// internal clock source
0031e6   9ad5     bcf     0xd5, 0x5, 0     	BCF	_T0CONbits, 5
                                           ;	.line	934; meter_logger.c	T0CONbits.PSA = 1;			// disable timer0 prescaler
0031e8   86d5     bsf     0xd5, 0x3, 0     	BSF	_T0CONbits, 3
                                           ;	.line	935; meter_logger.c	INTCON2bits.TMR0IP = 1;		// high priority
0031ea   84f1     bsf     0xf1, 0x2, 0     	BSF	_INTCON2bits, 2
                                           ;	.line	936; meter_logger.c	INTCONbits.TMR0IE = 1;		// Enable TMR0 Interrupt
0031ec   8af2     bsf     0xf2, 0x5, 0     	BSF	_INTCONbits, 5
                                           ;	.line	937; meter_logger.c	INTCONbits.TMR0IF = 0;
0031ee   94f2     bcf     0xf2, 0x2, 0     	BCF	_INTCONbits, 2
                                           ;	.line	939; meter_logger.c	INTCONbits.INT0IE = 1;		// enable ext int
0031f0   88f2     bsf     0xf2, 0x4, 0     	BSF	_INTCONbits, 4
                                           ;	.line	940; meter_logger.c	INTCON2bits.INTEDG0 = 1;	// rising edge
0031f2   8cf1     bsf     0xf1, 0x6, 0     	BSF	_INTCON2bits, 6
0031f4   cfe4     movff   0xfe4, 0xfd9     	MOVFF	PREINC1, FSR2L
0031f6   ffd9
0031f8   0012     return  0                	RETURN	
                                           
                                           ; ; Starting pCode block
                                           S_meter_logger__rs232_tx_disable	code
                                           _rs232_tx_disable:
                                           ;	.line	913; meter_logger.c	void rs232_tx_disable() {
00342a   cfd9     movff   0xfd9, 0xfe5     	MOVFF	FSR2L, POSTDEC1
00342c   ffe5
00342e   cfe1     movff   0xfe1, 0xfd9     	MOVFF	FSR1L, FSR2L
003430   ffd9
003432   0105     movlb   0x5              	BANKSEL	_codec_type
                                           ;	.line	914; meter_logger.c	codec_type = NONE;
003434   6b23     clrf    0x23, 0x1        	CLRF	_codec_type, B
                                           ;	.line	915; meter_logger.c	IR_LED_PIN = 0;				// no need to set it to inverted idle
003436   9281     bcf     0x81, 0x1, 0     	BCF	_PORTBbits, 1
                                           ;	.line	916; meter_logger.c	T0CONbits.TMR0ON = 0;
003438   9ed5     bcf     0xd5, 0x7, 0     	BCF	_T0CONbits, 7
00343a   cfe4     movff   0xfe4, 0xfd9     	MOVFF	PREINC1, FSR2L
00343c   ffd9
00343e   0012     return  0                	RETURN	
                                           
                                           ; ; Starting pCode block
                                           S_meter_logger__rs232_tx_enable	code
                                           _rs232_tx_enable:
                                           ;	.line	887; meter_logger.c	void rs232_tx_enable() {
0031fa   cfd9     movff   0xfd9, 0xfe5     	MOVFF	FSR2L, POSTDEC1
0031fc   ffe5
0031fe   cfe1     movff   0xfe1, 0xfd9     	MOVFF	FSR1L, FSR2L
003200   ffd9
                                           ;	.line	888; meter_logger.c	timer0_reload = TIMER0_RS232_1200;
003202   0eae     movlw   0xae             	MOVLW	0xae
003204   0105     movlb   0x5              	BANKSEL	_timer0_reload
003206   6f1a     movwf   0x1a, 0x1        	MOVWF	_timer0_reload, B
003208   0ef9     movlw   0xf9             	MOVLW	0xf9
                                           ; removed redundant BANKSEL
00320a   6f1b     movwf   0x1b, 0x1        	MOVWF	(_timer0_reload + 1), B
00320c   0100     movlb   0                	BANKSEL	_rs232_proto
                                           ;	.line	890; meter_logger.c	rs232_proto.state = INIT_STATE;
00320e   6bf6     clrf    0xf6, 0x1        	CLRF	_rs232_proto, B
                                           ; removed redundant BANKSEL
                                           ;	.line	891; meter_logger.c	rs232_proto.data_len = 0;
003210   6bf9     clrf    0xf9, 0x1        	CLRF	(_rs232_proto + 3), B
                                           ;	.line	893; meter_logger.c	IR_LED_PIN = 0;				// inverted rs232 output on ir, idle = no ir light
003212   9281     bcf     0x81, 0x1, 0     	BCF	_PORTBbits, 1
                                           ;	.line	895; meter_logger.c	codec_type = RS232_TX;
003214   0e03     movlw   0x3              	MOVLW	0x03
003216   0105     movlb   0x5              	BANKSEL	_codec_type
003218   6f23     movwf   0x23, 0x1        	MOVWF	_codec_type, B
                                           ;	.line	898; meter_logger.c	T0CONbits.TMR0ON = 0;
00321a   9ed5     bcf     0xd5, 0x7, 0     	BCF	_T0CONbits, 7
                                           ;	.line	899; meter_logger.c	T0CONbits.T0PS0 = 0;
00321c   90d5     bcf     0xd5, 0, 0       	BCF	_T0CONbits, 0
                                           ;	.line	900; meter_logger.c	T0CONbits.T0PS1 = 0;
00321e   92d5     bcf     0xd5, 0x1, 0     	BCF	_T0CONbits, 1
                                           ;	.line	901; meter_logger.c	T0CONbits.T0PS2 = 0;		// prescaler 1:2
003220   94d5     bcf     0xd5, 0x2, 0     	BCF	_T0CONbits, 2
                                           ;	.line	902; meter_logger.c	T0CONbits.T08BIT = 0;		// use timer0 16-bit counter
003222   9cd5     bcf     0xd5, 0x6, 0     	BCF	_T0CONbits, 6
                                           ;	.line	903; meter_logger.c	T0CONbits.T0CS = 0;			// internal clock source
003224   9ad5     bcf     0xd5, 0x5, 0     	BCF	_T0CONbits, 5
                                           ;	.line	904; meter_logger.c	T0CONbits.PSA = 1;			// disable timer0 prescaler
003226   86d5     bsf     0xd5, 0x3, 0     	BSF	_T0CONbits, 3
                                           ;	.line	905; meter_logger.c	INTCON2bits.TMR0IP = 1;		// high priority
003228   84f1     bsf     0xf1, 0x2, 0     	BSF	_INTCON2bits, 2
                                           ;	.line	906; meter_logger.c	INTCONbits.TMR0IE = 1;		// Enable TMR0 Interrupt
00322a   8af2     bsf     0xf2, 0x5, 0     	BSF	_INTCONbits, 5
                                           ;	.line	907; meter_logger.c	INTCONbits.TMR0IF = 0;
00322c   94f2     bcf     0xf2, 0x2, 0     	BCF	_INTCONbits, 2
                                           ;	.line	910; meter_logger.c	T0CONbits.TMR0ON = 0;		// timer 0 started in rs232_tx_byte()
00322e   9ed5     bcf     0xd5, 0x7, 0     	BCF	_T0CONbits, 7
003230   cfe4     movff   0xfe4, 0xfd9     	MOVFF	PREINC1, FSR2L
003232   ffd9
003234   0012     return  0                	RETURN	
                                           
                                           ; ; Starting pCode block
                                           S_meter_logger__testo_ir_disable	code
                                           _testo_ir_disable:
                                           ;	.line	882; meter_logger.c	void testo_ir_disable() {
00346a   cfd9     movff   0xfd9, 0xfe5     	MOVFF	FSR2L, POSTDEC1
00346c   ffe5
00346e   cfe1     movff   0xfe1, 0xfd9     	MOVFF	FSR1L, FSR2L
003470   ffd9
003472   0105     movlb   0x5              	BANKSEL	_codec_type
                                           ;	.line	883; meter_logger.c	codec_type = NONE;
003474   6b23     clrf    0x23, 0x1        	CLRF	_codec_type, B
                                           ;	.line	884; meter_logger.c	INTCONbits.INT0IE = 0;		// disable ext int
003476   98f2     bcf     0xf2, 0x4, 0     	BCF	_INTCONbits, 4
003478   cfe4     movff   0xfe4, 0xfd9     	MOVFF	PREINC1, FSR2L
00347a   ffd9
00347c   0012     return  0                	RETURN	
                                           
                                           ; ; Starting pCode block
                                           S_meter_logger__testo_ir_enable	code
                                           _testo_ir_enable:
                                           ;	.line	858; meter_logger.c	void testo_ir_enable() {
003236   cfd9     movff   0xfd9, 0xfe5     	MOVFF	FSR2L, POSTDEC1
003238   ffe5
00323a   cfe1     movff   0xfe1, 0xfd9     	MOVFF	FSR1L, FSR2L
00323c   ffd9
00323e   0100     movlb   0                	BANKSEL	_testo_ir_proto
                                           ;	.line	859; meter_logger.c	testo_ir_proto.state = INIT_STATE;
003240   6bf0     clrf    0xf0, 0x1        	CLRF	_testo_ir_proto, B
                                           ; removed redundant BANKSEL
                                           ;	.line	860; meter_logger.c	testo_ir_proto.start_bit_len = 0;
003242   6bf2     clrf    0xf2, 0x1        	CLRF	(_testo_ir_proto + 2), B
                                           ;	.line	862; meter_logger.c	timer0_reload = TIMER0_TESTO;
003244   0e23     movlw   0x23             	MOVLW	0x23
003246   0105     movlb   0x5              	BANKSEL	_timer0_reload
003248   6f1a     movwf   0x1a, 0x1        	MOVWF	_timer0_reload, B
00324a   0ef3     movlw   0xf3             	MOVLW	0xf3
                                           ; removed redundant BANKSEL
00324c   6f1b     movwf   0x1b, 0x1        	MOVWF	(_timer0_reload + 1), B
                                           ;	.line	864; meter_logger.c	codec_type = TESTO;
00324e   0e01     movlw   0x1              	MOVLW	0x01
003250   0105     movlb   0x5              	BANKSEL	_codec_type
003252   6f23     movwf   0x23, 0x1        	MOVWF	_codec_type, B
                                           ;	.line	867; meter_logger.c	T0CONbits.TMR0ON = 0;
003254   9ed5     bcf     0xd5, 0x7, 0     	BCF	_T0CONbits, 7
                                           ;	.line	868; meter_logger.c	T0CONbits.T0PS0 = 0;
003256   90d5     bcf     0xd5, 0, 0       	BCF	_T0CONbits, 0
                                           ;	.line	869; meter_logger.c	T0CONbits.T0PS1 = 0;
003258   92d5     bcf     0xd5, 0x1, 0     	BCF	_T0CONbits, 1
                                           ;	.line	870; meter_logger.c	T0CONbits.T0PS2 = 0;		// prescaler 1:2
00325a   94d5     bcf     0xd5, 0x2, 0     	BCF	_T0CONbits, 2
                                           ;	.line	871; meter_logger.c	T0CONbits.T08BIT = 0;		// use timer0 16-bit counter
00325c   9cd5     bcf     0xd5, 0x6, 0     	BCF	_T0CONbits, 6
                                           ;	.line	872; meter_logger.c	T0CONbits.T0CS = 0;			// internal clock source
00325e   9ad5     bcf     0xd5, 0x5, 0     	BCF	_T0CONbits, 5
                                           ;	.line	873; meter_logger.c	T0CONbits.PSA = 1;			// disable timer0 prescaler
003260   86d5     bsf     0xd5, 0x3, 0     	BSF	_T0CONbits, 3
                                           ;	.line	874; meter_logger.c	INTCON2bits.TMR0IP = 1;		// high priority
003262   84f1     bsf     0xf1, 0x2, 0     	BSF	_INTCON2bits, 2
                                           ;	.line	875; meter_logger.c	INTCONbits.TMR0IE = 1;		// Enable TMR0 Interrupt
003264   8af2     bsf     0xf2, 0x5, 0     	BSF	_INTCONbits, 5
                                           ;	.line	876; meter_logger.c	INTCONbits.TMR0IF = 0;
003266   94f2     bcf     0xf2, 0x2, 0     	BCF	_INTCONbits, 2
                                           ;	.line	878; meter_logger.c	INTCONbits.INT0IE = 1;		// enable ext int
003268   88f2     bsf     0xf2, 0x4, 0     	BSF	_INTCONbits, 4
                                           ;	.line	879; meter_logger.c	INTCON2bits.INTEDG0 = 1;	// rising edge
00326a   8cf1     bsf     0xf1, 0x6, 0     	BSF	_INTCON2bits, 6
00326c   cfe4     movff   0xfe4, 0xfd9     	MOVFF	PREINC1, FSR2L
00326e   ffd9
003270   0012     return  0                	RETURN	
                                           
                                           ; ; Starting pCode block
                                           S_meter_logger__testo_valid_err_corr	code
                                           _testo_valid_err_corr:
                                           ;	.line	803; meter_logger.c	unsigned char testo_valid_err_corr(unsigned int c) {
00262a   cfd9     movff   0xfd9, 0xfe5     	MOVFF	FSR2L, POSTDEC1
00262c   ffe5
00262e   cfe1     movff   0xfe1, 0xfd9     	MOVFF	FSR1L, FSR2L
002630   ffd9
002632   c000     movff   0, 0xfe5         	MOVFF	r0x00, POSTDEC1
002634   ffe5
002636   c001     movff   0x1, 0xfe5       	MOVFF	r0x01, POSTDEC1
002638   ffe5
00263a   c002     movff   0x2, 0xfe5       	MOVFF	r0x02, POSTDEC1
00263c   ffe5
00263e   c003     movff   0x3, 0xfe5       	MOVFF	r0x03, POSTDEC1
002640   ffe5
002642   c004     movff   0x4, 0xfe5       	MOVFF	r0x04, POSTDEC1
002644   ffe5
002646   c005     movff   0x5, 0xfe5       	MOVFF	r0x05, POSTDEC1
002648   ffe5
00264a   c006     movff   0x6, 0xfe5       	MOVFF	r0x06, POSTDEC1
00264c   ffe5
00264e   c007     movff   0x7, 0xfe5       	MOVFF	r0x07, POSTDEC1
002650   ffe5
002652   c008     movff   0x8, 0xfe5       	MOVFF	r0x08, POSTDEC1
002654   ffe5
002656   0e02     movlw   0x2              	MOVLW	0x02
002658   cfdb     movff   0xfdb, 0         	MOVFF	PLUSW2, r0x00
00265a   f000
00265c   0e03     movlw   0x3              	MOVLW	0x03
00265e   cfdb     movff   0xfdb, 0x1       	MOVFF	PLUSW2, r0x01
002660   f001
                                           ;	.line	810; meter_logger.c	calculated_err_corr_bit = 0;
002662   6a02     clrf    0x2, 0           	CLRF	r0x02
                                           ;	.line	811; meter_logger.c	for (i = 0; i < 8; i++) {
002664   0e78     movlw   0x78             	MOVLW	0x78
002666   1400     andwf   0, 0, 0          	ANDWF	r0x00, W
002668   6e03     movwf   0x3, 0           	MOVWF	r0x03
00266a   6a04     clrf    0x4, 0           	CLRF	r0x04
00266c   6a05     clrf    0x5, 0           	CLRF	r0x05
                                           _00658_DS_:
                                           ;	.line	812; meter_logger.c	calculated_err_corr_bit ^= (((c & 0x78) & (1 << i)) != 0);   // 0b01111000
00266e   0e01     movlw   0x1              	MOVLW	0x01
002670   6e06     movwf   0x6, 0           	MOVWF	r0x06
002672   0e00     movlw   0                	MOVLW	0x00
002674   6e07     movwf   0x7, 0           	MOVWF	r0x07
002676   5005     movf    0x5, 0, 0        	MOVF	r0x05, W
002678   e006     bz      0x2686           	BZ	_00700_DS_
00267a   6ce8     negf    0xe8, 0          	NEGF	WREG
00267c   90d8     bcf     0xd8, 0, 0       	BCF	STATUS, 0
                                           _00701_DS_:
00267e   3606     rlcf    0x6, 0x1, 0      	RLCF	r0x06, F
002680   3607     rlcf    0x7, 0x1, 0      	RLCF	r0x07, F
002682   0f01     addlw   0x1              	ADDLW	0x01
002684   e3fc     bnc     0x267e           	BNC	_00701_DS_
                                           _00700_DS_:
002686   5003     movf    0x3, 0, 0        	MOVF	r0x03, W
002688   1606     andwf   0x6, 0x1, 0      	ANDWF	r0x06, F
00268a   5004     movf    0x4, 0, 0        	MOVF	r0x04, W
00268c   1607     andwf   0x7, 0x1, 0      	ANDWF	r0x07, F
00268e   5006     movf    0x6, 0, 0        	MOVF	r0x06, W
002690   e105     bnz     0x269c           	BNZ	_00703_DS_
002692   5007     movf    0x7, 0, 0        	MOVF	r0x07, W
002694   e103     bnz     0x269c           	BNZ	_00703_DS_
002696   6a06     clrf    0x6, 0           	CLRF	r0x06
002698   2a06     incf    0x6, 0x1, 0      	INCF	r0x06, F
00269a   d001     bra     0x269e           	BRA	_00704_DS_
                                           _00703_DS_:
00269c   6a06     clrf    0x6, 0           	CLRF	r0x06
                                           _00704_DS_:
00269e   5006     movf    0x6, 0, 0        	MOVF	r0x06, W
0026a0   80d8     bsf     0xd8, 0, 0       	BSF	STATUS, 0
0026a2   66e8     tstfsz  0xe8, 0          	TSTFSZ	WREG
0026a4   90d8     bcf     0xd8, 0, 0       	BCF	STATUS, 0
0026a6   6a06     clrf    0x6, 0           	CLRF	r0x06
0026a8   3606     rlcf    0x6, 0x1, 0      	RLCF	r0x06, F
0026aa   5002     movf    0x2, 0, 0        	MOVF	r0x02, W
0026ac   6e07     movwf   0x7, 0           	MOVWF	r0x07
0026ae   5006     movf    0x6, 0, 0        	MOVF	r0x06, W
0026b0   1807     xorwf   0x7, 0, 0        	XORWF	r0x07, W
0026b2   6e02     movwf   0x2, 0           	MOVWF	r0x02
                                           ;	.line	811; meter_logger.c	for (i = 0; i < 8; i++) {
0026b4   2a05     incf    0x5, 0x1, 0      	INCF	r0x05, F
0026b6   0e08     movlw   0x8              	MOVLW	0x08
0026b8   5c05     subwf   0x5, 0, 0        	SUBWF	r0x05, W
0026ba   e3d9     bnc     0x266e           	BNC	_00658_DS_
                                           ;	.line	815; meter_logger.c	calculated_err_corr = calculated_err_corr << 1;
0026bc   4402     rlncf   0x2, 0, 0        	RLNCF	r0x02, W
0026be   0bfe     andlw   0xfe             	ANDLW	0xfe
0026c0   6e03     movwf   0x3, 0           	MOVWF	r0x03
                                           ;	.line	818; meter_logger.c	calculated_err_corr_bit = 0;
0026c2   6a02     clrf    0x2, 0           	CLRF	r0x02
                                           ;	.line	819; meter_logger.c	for (i = 0; i < 8; i++) {
0026c4   0ee6     movlw   0xe6             	MOVLW	0xe6
0026c6   1400     andwf   0, 0, 0          	ANDWF	r0x00, W
0026c8   6e04     movwf   0x4, 0           	MOVWF	r0x04
0026ca   6a05     clrf    0x5, 0           	CLRF	r0x05
0026cc   6a06     clrf    0x6, 0           	CLRF	r0x06
                                           _00660_DS_:
                                           ;	.line	820; meter_logger.c	calculated_err_corr_bit ^= (((c & 0xe6) & (1 << i)) != 0);   // 0b11100110
0026ce   0e01     movlw   0x1              	MOVLW	0x01
0026d0   6e07     movwf   0x7, 0           	MOVWF	r0x07
0026d2   0e00     movlw   0                	MOVLW	0x00
0026d4   6e08     movwf   0x8, 0           	MOVWF	r0x08
0026d6   5006     movf    0x6, 0, 0        	MOVF	r0x06, W
0026d8   e006     bz      0x26e6           	BZ	_00708_DS_
0026da   6ce8     negf    0xe8, 0          	NEGF	WREG
0026dc   90d8     bcf     0xd8, 0, 0       	BCF	STATUS, 0
                                           _00709_DS_:
0026de   3607     rlcf    0x7, 0x1, 0      	RLCF	r0x07, F
0026e0   3608     rlcf    0x8, 0x1, 0      	RLCF	r0x08, F
0026e2   0f01     addlw   0x1              	ADDLW	0x01
0026e4   e3fc     bnc     0x26de           	BNC	_00709_DS_
                                           _00708_DS_:
0026e6   5004     movf    0x4, 0, 0        	MOVF	r0x04, W
0026e8   1607     andwf   0x7, 0x1, 0      	ANDWF	r0x07, F
0026ea   5005     movf    0x5, 0, 0        	MOVF	r0x05, W
0026ec   1608     andwf   0x8, 0x1, 0      	ANDWF	r0x08, F
0026ee   5007     movf    0x7, 0, 0        	MOVF	r0x07, W
0026f0   e105     bnz     0x26fc           	BNZ	_00711_DS_
0026f2   5008     movf    0x8, 0, 0        	MOVF	r0x08, W
0026f4   e103     bnz     0x26fc           	BNZ	_00711_DS_
0026f6   6a07     clrf    0x7, 0           	CLRF	r0x07
0026f8   2a07     incf    0x7, 0x1, 0      	INCF	r0x07, F
0026fa   d001     bra     0x26fe           	BRA	_00712_DS_
                                           _00711_DS_:
0026fc   6a07     clrf    0x7, 0           	CLRF	r0x07
                                           _00712_DS_:
0026fe   5007     movf    0x7, 0, 0        	MOVF	r0x07, W
002700   80d8     bsf     0xd8, 0, 0       	BSF	STATUS, 0
002702   66e8     tstfsz  0xe8, 0          	TSTFSZ	WREG
002704   90d8     bcf     0xd8, 0, 0       	BCF	STATUS, 0
002706   6a07     clrf    0x7, 0           	CLRF	r0x07
002708   3607     rlcf    0x7, 0x1, 0      	RLCF	r0x07, F
00270a   5002     movf    0x2, 0, 0        	MOVF	r0x02, W
00270c   6e08     movwf   0x8, 0           	MOVWF	r0x08
00270e   5007     movf    0x7, 0, 0        	MOVF	r0x07, W
002710   1808     xorwf   0x8, 0, 0        	XORWF	r0x08, W
002712   6e02     movwf   0x2, 0           	MOVWF	r0x02
                                           ;	.line	819; meter_logger.c	for (i = 0; i < 8; i++) {
002714   2a06     incf    0x6, 0x1, 0      	INCF	r0x06, F
002716   0e08     movlw   0x8              	MOVLW	0x08
002718   5c06     subwf   0x6, 0, 0        	SUBWF	r0x06, W
00271a   e3d9     bnc     0x26ce           	BNC	_00660_DS_
                                           ;	.line	822; meter_logger.c	calculated_err_corr |= calculated_err_corr_bit;
00271c   5002     movf    0x2, 0, 0        	MOVF	r0x02, W
00271e   1203     iorwf   0x3, 0x1, 0      	IORWF	r0x03, F
                                           ;	.line	823; meter_logger.c	calculated_err_corr = calculated_err_corr << 1;
002720   90d8     bcf     0xd8, 0, 0       	BCF	STATUS, 0
002722   3603     rlcf    0x3, 0x1, 0      	RLCF	r0x03, F
                                           ;	.line	826; meter_logger.c	calculated_err_corr_bit = 0;
002724   6a02     clrf    0x2, 0           	CLRF	r0x02
                                           ;	.line	827; meter_logger.c	for (i = 0; i < 8; i++) {
002726   0ed5     movlw   0xd5             	MOVLW	0xd5
002728   1400     andwf   0, 0, 0          	ANDWF	r0x00, W
00272a   6e04     movwf   0x4, 0           	MOVWF	r0x04
00272c   6a05     clrf    0x5, 0           	CLRF	r0x05
00272e   6a06     clrf    0x6, 0           	CLRF	r0x06
                                           _00662_DS_:
                                           ;	.line	828; meter_logger.c	calculated_err_corr_bit ^= (((c & 0xd5) & (1 << i)) != 0);   // 0b11010101
002730   0e01     movlw   0x1              	MOVLW	0x01
002732   6e07     movwf   0x7, 0           	MOVWF	r0x07
002734   0e00     movlw   0                	MOVLW	0x00
002736   6e08     movwf   0x8, 0           	MOVWF	r0x08
002738   5006     movf    0x6, 0, 0        	MOVF	r0x06, W
00273a   e006     bz      0x2748           	BZ	_00717_DS_
00273c   6ce8     negf    0xe8, 0          	NEGF	WREG
00273e   90d8     bcf     0xd8, 0, 0       	BCF	STATUS, 0
                                           _00718_DS_:
002740   3607     rlcf    0x7, 0x1, 0      	RLCF	r0x07, F
002742   3608     rlcf    0x8, 0x1, 0      	RLCF	r0x08, F
002744   0f01     addlw   0x1              	ADDLW	0x01
002746   e3fc     bnc     0x2740           	BNC	_00718_DS_
                                           _00717_DS_:
002748   5004     movf    0x4, 0, 0        	MOVF	r0x04, W
00274a   1607     andwf   0x7, 0x1, 0      	ANDWF	r0x07, F
00274c   5005     movf    0x5, 0, 0        	MOVF	r0x05, W
00274e   1608     andwf   0x8, 0x1, 0      	ANDWF	r0x08, F
002750   5007     movf    0x7, 0, 0        	MOVF	r0x07, W
002752   e105     bnz     0x275e           	BNZ	_00720_DS_
002754   5008     movf    0x8, 0, 0        	MOVF	r0x08, W
002756   e103     bnz     0x275e           	BNZ	_00720_DS_
002758   6a07     clrf    0x7, 0           	CLRF	r0x07
00275a   2a07     incf    0x7, 0x1, 0      	INCF	r0x07, F
00275c   d001     bra     0x2760           	BRA	_00721_DS_
                                           _00720_DS_:
00275e   6a07     clrf    0x7, 0           	CLRF	r0x07
                                           _00721_DS_:
002760   5007     movf    0x7, 0, 0        	MOVF	r0x07, W
002762   80d8     bsf     0xd8, 0, 0       	BSF	STATUS, 0
002764   66e8     tstfsz  0xe8, 0          	TSTFSZ	WREG
002766   90d8     bcf     0xd8, 0, 0       	BCF	STATUS, 0
002768   6a07     clrf    0x7, 0           	CLRF	r0x07
00276a   3607     rlcf    0x7, 0x1, 0      	RLCF	r0x07, F
00276c   5002     movf    0x2, 0, 0        	MOVF	r0x02, W
00276e   6e08     movwf   0x8, 0           	MOVWF	r0x08
002770   5007     movf    0x7, 0, 0        	MOVF	r0x07, W
002772   1808     xorwf   0x8, 0, 0        	XORWF	r0x08, W
002774   6e02     movwf   0x2, 0           	MOVWF	r0x02
                                           ;	.line	827; meter_logger.c	for (i = 0; i < 8; i++) {
002776   2a06     incf    0x6, 0x1, 0      	INCF	r0x06, F
002778   0e08     movlw   0x8              	MOVLW	0x08
00277a   5c06     subwf   0x6, 0, 0        	SUBWF	r0x06, W
00277c   e3d9     bnc     0x2730           	BNC	_00662_DS_
                                           ;	.line	830; meter_logger.c	calculated_err_corr |= calculated_err_corr_bit;
00277e   5002     movf    0x2, 0, 0        	MOVF	r0x02, W
002780   1203     iorwf   0x3, 0x1, 0      	IORWF	r0x03, F
                                           ;	.line	831; meter_logger.c	calculated_err_corr = calculated_err_corr << 1;
002782   90d8     bcf     0xd8, 0, 0       	BCF	STATUS, 0
002784   3603     rlcf    0x3, 0x1, 0      	RLCF	r0x03, F
                                           ;	.line	834; meter_logger.c	calculated_err_corr_bit = 0;
002786   6a02     clrf    0x2, 0           	CLRF	r0x02
                                           ;	.line	835; meter_logger.c	for (i = 0; i < 8; i++) {
002788   0e8b     movlw   0x8b             	MOVLW	0x8b
00278a   1400     andwf   0, 0, 0          	ANDWF	r0x00, W
00278c   6e04     movwf   0x4, 0           	MOVWF	r0x04
00278e   6a05     clrf    0x5, 0           	CLRF	r0x05
002790   6a06     clrf    0x6, 0           	CLRF	r0x06
                                           _00664_DS_:
                                           ;	.line	836; meter_logger.c	calculated_err_corr_bit ^= (((c & 0x8b) & (1 << i)) != 0);   // 0b10001011
002792   0e01     movlw   0x1              	MOVLW	0x01
002794   6e07     movwf   0x7, 0           	MOVWF	r0x07
002796   0e00     movlw   0                	MOVLW	0x00
002798   6e08     movwf   0x8, 0           	MOVWF	r0x08
00279a   5006     movf    0x6, 0, 0        	MOVF	r0x06, W
00279c   e006     bz      0x27aa           	BZ	_00726_DS_
00279e   6ce8     negf    0xe8, 0          	NEGF	WREG
0027a0   90d8     bcf     0xd8, 0, 0       	BCF	STATUS, 0
                                           _00727_DS_:
0027a2   3607     rlcf    0x7, 0x1, 0      	RLCF	r0x07, F
0027a4   3608     rlcf    0x8, 0x1, 0      	RLCF	r0x08, F
0027a6   0f01     addlw   0x1              	ADDLW	0x01
0027a8   e3fc     bnc     0x27a2           	BNC	_00727_DS_
                                           _00726_DS_:
0027aa   5004     movf    0x4, 0, 0        	MOVF	r0x04, W
0027ac   1607     andwf   0x7, 0x1, 0      	ANDWF	r0x07, F
0027ae   5005     movf    0x5, 0, 0        	MOVF	r0x05, W
0027b0   1608     andwf   0x8, 0x1, 0      	ANDWF	r0x08, F
0027b2   5007     movf    0x7, 0, 0        	MOVF	r0x07, W
0027b4   e105     bnz     0x27c0           	BNZ	_00729_DS_
0027b6   5008     movf    0x8, 0, 0        	MOVF	r0x08, W
0027b8   e103     bnz     0x27c0           	BNZ	_00729_DS_
0027ba   6a07     clrf    0x7, 0           	CLRF	r0x07
0027bc   2a07     incf    0x7, 0x1, 0      	INCF	r0x07, F
0027be   d001     bra     0x27c2           	BRA	_00730_DS_
                                           _00729_DS_:
0027c0   6a07     clrf    0x7, 0           	CLRF	r0x07
                                           _00730_DS_:
0027c2   5007     movf    0x7, 0, 0        	MOVF	r0x07, W
0027c4   80d8     bsf     0xd8, 0, 0       	BSF	STATUS, 0
0027c6   66e8     tstfsz  0xe8, 0          	TSTFSZ	WREG
0027c8   90d8     bcf     0xd8, 0, 0       	BCF	STATUS, 0
0027ca   6a07     clrf    0x7, 0           	CLRF	r0x07
0027cc   3607     rlcf    0x7, 0x1, 0      	RLCF	r0x07, F
0027ce   5002     movf    0x2, 0, 0        	MOVF	r0x02, W
0027d0   6e08     movwf   0x8, 0           	MOVWF	r0x08
0027d2   5007     movf    0x7, 0, 0        	MOVF	r0x07, W
0027d4   1808     xorwf   0x8, 0, 0        	XORWF	r0x08, W
0027d6   6e02     movwf   0x2, 0           	MOVWF	r0x02
                                           ;	.line	835; meter_logger.c	for (i = 0; i < 8; i++) {
0027d8   2a06     incf    0x6, 0x1, 0      	INCF	r0x06, F
0027da   0e08     movlw   0x8              	MOVLW	0x08
0027dc   5c06     subwf   0x6, 0, 0        	SUBWF	r0x06, W
0027de   e3d9     bnc     0x2792           	BNC	_00664_DS_
                                           ;	.line	838; meter_logger.c	calculated_err_corr |= calculated_err_corr_bit;
0027e0   5002     movf    0x2, 0, 0        	MOVF	r0x02, W
0027e2   1203     iorwf   0x3, 0x1, 0      	IORWF	r0x03, F
                                           ;	.line	849; meter_logger.c	if ((c >> 8) == calculated_err_corr) {
0027e4   5001     movf    0x1, 0, 0        	MOVF	r0x01, W
0027e6   6e00     movwf   0, 0             	MOVWF	r0x00
0027e8   6a01     clrf    0x1, 0           	CLRF	r0x01
0027ea   6a02     clrf    0x2, 0           	CLRF	r0x02
0027ec   5000     movf    0, 0, 0          	MOVF	r0x00, W
0027ee   1803     xorwf   0x3, 0, 0        	XORWF	r0x03, W
0027f0   e103     bnz     0x27f8           	BNZ	_00734_DS_
0027f2   5001     movf    0x1, 0, 0        	MOVF	r0x01, W
0027f4   1802     xorwf   0x2, 0, 0        	XORWF	r0x02, W
0027f6   e001     bz      0x27fa           	BZ	_00735_DS_
                                           _00734_DS_:
0027f8   d002     bra     0x27fe           	BRA	_00656_DS_
                                           _00735_DS_:
                                           ;	.line	850; meter_logger.c	return 1;
0027fa   0e01     movlw   0x1              	MOVLW	0x01
0027fc   d001     bra     0x2800           	BRA	_00666_DS_
                                           _00656_DS_:
                                           ;	.line	853; meter_logger.c	return 0;
0027fe   6ae8     clrf    0xe8, 0          	CLRF	WREG
                                           _00666_DS_:
002800   cfe4     movff   0xfe4, 0x8       	MOVFF	PREINC1, r0x08
002802   f008
002804   cfe4     movff   0xfe4, 0x7       	MOVFF	PREINC1, r0x07
002806   f007
002808   cfe4     movff   0xfe4, 0x6       	MOVFF	PREINC1, r0x06
00280a   f006
00280c   cfe4     movff   0xfe4, 0x5       	MOVFF	PREINC1, r0x05
00280e   f005
002810   cfe4     movff   0xfe4, 0x4       	MOVFF	PREINC1, r0x04
002812   f004
002814   cfe4     movff   0xfe4, 0x3       	MOVFF	PREINC1, r0x03
002816   f003
002818   cfe4     movff   0xfe4, 0x2       	MOVFF	PREINC1, r0x02
00281a   f002
00281c   cfe4     movff   0xfe4, 0x1       	MOVFF	PREINC1, r0x01
00281e   f001
002820   cfe4     movff   0xfe4, 0         	MOVFF	PREINC1, r0x00
002822   f000
002824   cfe4     movff   0xfe4, 0xfd9     	MOVFF	PREINC1, FSR2L
002826   ffd9
002828   0012     return  0                	RETURN	
                                           
                                           ; ; Starting pCode block
                                           S_meter_logger__reverse	code
                                           _reverse:
                                           ;	.line	795; meter_logger.c	unsigned char reverse(unsigned char b) {
003008   cfd9     movff   0xfd9, 0xfe5     	MOVFF	FSR2L, POSTDEC1
00300a   ffe5
00300c   cfe1     movff   0xfe1, 0xfd9     	MOVFF	FSR1L, FSR2L
00300e   ffd9
003010   c000     movff   0, 0xfe5         	MOVFF	r0x00, POSTDEC1
003012   ffe5
003014   c001     movff   0x1, 0xfe5       	MOVFF	r0x01, POSTDEC1
003016   ffe5
003018   c002     movff   0x2, 0xfe5       	MOVFF	r0x02, POSTDEC1
00301a   ffe5
00301c   c003     movff   0x3, 0xfe5       	MOVFF	r0x03, POSTDEC1
00301e   ffe5
003020   0e02     movlw   0x2              	MOVLW	0x02
003022   cfdb     movff   0xfdb, 0         	MOVFF	PLUSW2, r0x00
003024   f000
                                           ;	.line	797; meter_logger.c	c  = ((b >>  1) & 0x55) | ((b <<  1) & 0xaa);
003026   4000     rrncf   0, 0, 0          	RRNCF	r0x00, W
003028   0b7f     andlw   0x7f             	ANDLW	0x7f
00302a   6e01     movwf   0x1, 0           	MOVWF	r0x01
00302c   0e55     movlw   0x55             	MOVLW	0x55
00302e   1601     andwf   0x1, 0x1, 0      	ANDWF	r0x01, F
003030   4400     rlncf   0, 0, 0          	RLNCF	r0x00, W
003032   0bfe     andlw   0xfe             	ANDLW	0xfe
003034   6e02     movwf   0x2, 0           	MOVWF	r0x02
003036   0eaa     movlw   0xaa             	MOVLW	0xaa
003038   1602     andwf   0x2, 0x1, 0      	ANDWF	r0x02, F
00303a   5002     movf    0x2, 0, 0        	MOVF	r0x02, W
00303c   1201     iorwf   0x1, 0x1, 0      	IORWF	r0x01, F
                                           ;	.line	798; meter_logger.c	c |= ((b >>  2) & 0x33) | ((b <<  2) & 0xcc);
00303e   4000     rrncf   0, 0, 0          	RRNCF	r0x00, W
003040   40e8     rrncf   0xe8, 0, 0       	RRNCF	WREG, W
003042   0b3f     andlw   0x3f             	ANDLW	0x3f
003044   6e02     movwf   0x2, 0           	MOVWF	r0x02
003046   0e33     movlw   0x33             	MOVLW	0x33
003048   1602     andwf   0x2, 0x1, 0      	ANDWF	r0x02, F
00304a   4400     rlncf   0, 0, 0          	RLNCF	r0x00, W
00304c   44e8     rlncf   0xe8, 0, 0       	RLNCF	WREG, W
00304e   0bfc     andlw   0xfc             	ANDLW	0xfc
003050   6e03     movwf   0x3, 0           	MOVWF	r0x03
003052   0ecc     movlw   0xcc             	MOVLW	0xcc
003054   1603     andwf   0x3, 0x1, 0      	ANDWF	r0x03, F
003056   5003     movf    0x3, 0, 0        	MOVF	r0x03, W
003058   1202     iorwf   0x2, 0x1, 0      	IORWF	r0x02, F
00305a   5002     movf    0x2, 0, 0        	MOVF	r0x02, W
00305c   1201     iorwf   0x1, 0x1, 0      	IORWF	r0x01, F
                                           ;	.line	799; meter_logger.c	c |= ((b >>  4) & 0x0f) | ((b <<  4) & 0xf0);
00305e   3800     swapf   0, 0, 0          	SWAPF	r0x00, W
003060   0b0f     andlw   0xf              	ANDLW	0x0f
003062   6e02     movwf   0x2, 0           	MOVWF	r0x02
003064   0e0f     movlw   0xf              	MOVLW	0x0f
003066   1602     andwf   0x2, 0x1, 0      	ANDWF	r0x02, F
003068   3800     swapf   0, 0, 0          	SWAPF	r0x00, W
00306a   0bf0     andlw   0xf0             	ANDLW	0xf0
00306c   6e03     movwf   0x3, 0           	MOVWF	r0x03
00306e   0ef0     movlw   0xf0             	MOVLW	0xf0
003070   1403     andwf   0x3, 0, 0        	ANDWF	r0x03, W
003072   6e00     movwf   0, 0             	MOVWF	r0x00
003074   5000     movf    0, 0, 0          	MOVF	r0x00, W
003076   1202     iorwf   0x2, 0x1, 0      	IORWF	r0x02, F
003078   5002     movf    0x2, 0, 0        	MOVF	r0x02, W
00307a   1201     iorwf   0x1, 0x1, 0      	IORWF	r0x01, F
                                           ;	.line	800; meter_logger.c	return(c);
00307c   5001     movf    0x1, 0, 0        	MOVF	r0x01, W
00307e   cfe4     movff   0xfe4, 0x3       	MOVFF	PREINC1, r0x03
003080   f003
003082   cfe4     movff   0xfe4, 0x2       	MOVFF	PREINC1, r0x02
003084   f002
003086   cfe4     movff   0xfe4, 0x1       	MOVFF	PREINC1, r0x01
003088   f001
00308a   cfe4     movff   0xfe4, 0         	MOVFF	PREINC1, r0x00
00308c   f000
00308e   cfe4     movff   0xfe4, 0xfd9     	MOVFF	PREINC1, FSR2L
003090   ffd9
003092   0012     return  0                	RETURN	
                                           
                                           ; ; Starting pCode block
                                           S_meter_logger__my_usart_open	code
                                           _my_usart_open:
                                           ;	.line	765; meter_logger.c	void my_usart_open() {
003308   cfd9     movff   0xfd9, 0xfe5     	MOVFF	FSR2L, POSTDEC1
00330a   ffe5
00330c   cfe1     movff   0xfe1, 0xfd9     	MOVFF	FSR1L, FSR2L
00330e   ffd9
                                           ;	.line	766; meter_logger.c	SPBRG = 103;					// 8MHz => 19230 baud
003310   0e67     movlw   0x67             	MOVLW	0x67
003312   6eaf     movwf   0xaf, 0          	MOVWF	_SPBRG
                                           ;	.line	767; meter_logger.c	TXSTAbits.BRGH = 1;	// (0 = low speed)
003314   84ac     bsf     0xac, 0x2, 0     	BSF	_TXSTAbits, 2
                                           ;	.line	768; meter_logger.c	TXSTAbits.SYNC = 0;	// (0 = asynchronous)
003316   98ac     bcf     0xac, 0x4, 0     	BCF	_TXSTAbits, 4
                                           ;	.line	769; meter_logger.c	BAUDCONbits.BRG16 = 1;
003318   86b8     bsf     0xb8, 0x3, 0     	BSF	_BAUDCONbits, 3
                                           ;	.line	772; meter_logger.c	RCSTAbits.SPEN = 1; // (1 = serial port enabled)
00331a   8eab     bsf     0xab, 0x7, 0     	BSF	_RCSTAbits, 7
                                           ;	.line	775; meter_logger.c	PIE1bits.TXIE = 0; // (1 = enabled)
00331c   989d     bcf     0x9d, 0x4, 0     	BCF	_PIE1bits, 4
                                           ;	.line	776; meter_logger.c	IPR1bits.TXIP = 0; // USART Tx on low priority interrupt
00331e   989f     bcf     0x9f, 0x4, 0     	BCF	_IPR1bits, 4
                                           ;	.line	779; meter_logger.c	PIE1bits.RCIE = 1; // (1 = enabled)
003320   8a9d     bsf     0x9d, 0x5, 0     	BSF	_PIE1bits, 5
                                           ;	.line	780; meter_logger.c	IPR1bits.RCIP = 0; // USART Rx on low priority interrupt
003322   9a9f     bcf     0x9f, 0x5, 0     	BCF	_IPR1bits, 5
                                           ;	.line	783; meter_logger.c	TXSTAbits.TX9 = 0; // (0 = 8-bit transmit)
003324   9cac     bcf     0xac, 0x6, 0     	BCF	_TXSTAbits, 6
                                           ;	.line	786; meter_logger.c	RCSTAbits.RX9 = 0; // (0 = 8-bit reception)
003326   9cab     bcf     0xab, 0x6, 0     	BCF	_RCSTAbits, 6
                                           ;	.line	789; meter_logger.c	RCSTAbits.CREN = 1; // (1 = Enables receiver)
003328   88ab     bsf     0xab, 0x4, 0     	BSF	_RCSTAbits, 4
                                           ;	.line	792; meter_logger.c	TXSTAbits.TXEN = 1; // (1 = transmit enabled)
00332a   8aac     bsf     0xac, 0x5, 0     	BSF	_TXSTAbits, 5
00332c   cfe4     movff   0xfe4, 0xfd9     	MOVFF	PREINC1, FSR2L
00332e   ffd9
003330   0012     return  0                	RETURN	
                                           
                                           ; ; Starting pCode block
                                           S_meter_logger__init_system	code
                                           _init_system:
                                           ;	.line	666; meter_logger.c	void init_system() {
003168   cfd9     movff   0xfd9, 0xfe5     	MOVFF	FSR2L, POSTDEC1
00316a   ffe5
00316c   cfe1     movff   0xfe1, 0xfd9     	MOVFF	FSR1L, FSR2L
00316e   ffd9
                                           ;	.line	668; meter_logger.c	TRIS_COMP1 = INPUT_STATE;		// as input
003170   8092     bsf     0x92, 0, 0       	BSF	_TRISAbits, 0
                                           ;	.line	669; meter_logger.c	TRIS_COMP2 = INPUT_STATE;		// as input
003172   8292     bsf     0x92, 0x1, 0     	BSF	_TRISAbits, 1
                                           ;	.line	671; meter_logger.c	TRIS_IR_PIN = INPUT_STATE;		// as input
003174   8093     bsf     0x93, 0, 0       	BSF	_TRISBbits, 0
                                           ;	.line	673; meter_logger.c	TRIS_LED_PIN = OUTPUT_STATE;	// as output
003176   9893     bcf     0x93, 0x4, 0     	BCF	_TRISBbits, 4
                                           ;	.line	674; meter_logger.c	LED_PIN = 0;					// and clear
003178   9881     bcf     0x81, 0x4, 0     	BCF	_PORTBbits, 4
                                           ;	.line	676; meter_logger.c	TRIS_IR_LED_PIN = OUTPUT_STATE;	// as output
00317a   9293     bcf     0x93, 0x1, 0     	BCF	_TRISBbits, 1
                                           ;	.line	677; meter_logger.c	IR_LED_PIN = 0;					// and clear
00317c   9281     bcf     0x81, 0x1, 0     	BCF	_PORTBbits, 1
                                           ;	.line	679; meter_logger.c	TRIS_DEBUG_PIN = OUTPUT_STATE;	// as output
00317e   9493     bcf     0x93, 0x2, 0     	BCF	_TRISBbits, 2
                                           ;	.line	680; meter_logger.c	DEBUG_PIN = 0;					// and clear
003180   9481     bcf     0x81, 0x2, 0     	BCF	_PORTBbits, 2
                                           ;	.line	682; meter_logger.c	TRIS_DEBUG2_PIN = OUTPUT_STATE;	// as output
003182   9693     bcf     0x93, 0x3, 0     	BCF	_TRISBbits, 3
                                           ;	.line	683; meter_logger.c	DEBUG2_PIN = 0;					// and clear
003184   9681     bcf     0x81, 0x3, 0     	BCF	_PORTBbits, 3
                                           ;	.line	685; meter_logger.c	TRIS_DEBUG3_PIN = OUTPUT_STATE;	// as output
003186   9893     bcf     0x93, 0x4, 0     	BCF	_TRISBbits, 4
                                           ;	.line	686; meter_logger.c	DEBUG3_PIN = 0;					// and clear
003188   9881     bcf     0x81, 0x4, 0     	BCF	_PORTBbits, 4
                                           ;	.line	690; meter_logger.c	TRIS_PWM_PIN = OUTPUT_STATE;	// enable output from pwm module at init
00318a   9294     bcf     0x94, 0x1, 0     	BCF	_TRISCbits, 1
                                           ;	.line	691; meter_logger.c	PWM_PIN = 0;					// and clear
00318c   9282     bcf     0x82, 0x1, 0     	BCF	_PORTCbits, 1
                                           ;	.line	694; meter_logger.c	TRIS_RX_PIN = INPUT_STATE;		// as input
00318e   8e94     bsf     0x94, 0x7, 0     	BSF	_TRISCbits, 7
                                           ;	.line	695; meter_logger.c	TRIS_TX_PIN = OUTPUT_STATE;		// as input
003190   9c94     bcf     0x94, 0x6, 0     	BCF	_TRISCbits, 6
                                           ;	.line	700; meter_logger.c	T1CONbits.TMR1ON = 1;
003192   80cd     bsf     0xcd, 0, 0       	BSF	_T1CONbits, 0
                                           ;	.line	701; meter_logger.c	T1CONbits.RD16 = 1;
003194   8ecd     bsf     0xcd, 0x7, 0     	BSF	_T1CONbits, 7
                                           ;	.line	702; meter_logger.c	T1CONbits.TMR1CS = 0;   // internal clock source
003196   92cd     bcf     0xcd, 0x1, 0     	BCF	_T1CONbits, 1
                                           ;	.line	703; meter_logger.c	T1CONbits.T1OSCEN = 0;  // dont put t1 on pin
003198   96cd     bcf     0xcd, 0x3, 0     	BCF	_T1CONbits, 3
                                           ;	.line	704; meter_logger.c	T1CONbits.T1CKPS0 = 0;
00319a   98cd     bcf     0xcd, 0x4, 0     	BCF	_T1CONbits, 4
                                           ;	.line	705; meter_logger.c	T1CONbits.T1CKPS1 = 0;
00319c   9acd     bcf     0xcd, 0x5, 0     	BCF	_T1CONbits, 5
                                           ;	.line	706; meter_logger.c	IPR1bits.TMR1IP = 0;	// low priority
00319e   909f     bcf     0x9f, 0, 0       	BCF	_IPR1bits, 0
                                           ;	.line	707; meter_logger.c	PIE1bits.TMR1IE = 1;	// Ensure that TMR1 Interrupt is enabled
0031a0   809d     bsf     0x9d, 0, 0       	BSF	_PIE1bits, 0
                                           ;	.line	708; meter_logger.c	PIR1bits.TMR1IF = 1;	// Force Instant entry to Timer 1 Interrupt
0031a2   809e     bsf     0x9e, 0, 0       	BSF	_PIR1bits, 0
                                           ;	.line	739; meter_logger.c	RCONbits.IPEN = 1;
0031a4   8ed0     bsf     0xd0, 0x7, 0     	BSF	_RCONbits, 7
                                           ;	.line	741; meter_logger.c	INTCONbits.INT0IE = 0;		// disable ext int, enabled when ir demodulator is started
0031a6   98f2     bcf     0xf2, 0x4, 0     	BCF	_INTCONbits, 4
                                           ;	.line	742; meter_logger.c	INTCON2bits.INTEDG0 = 1;	// rising edge
0031a8   8cf1     bsf     0xf1, 0x6, 0     	BSF	_INTCON2bits, 6
                                           ;	.line	744; meter_logger.c	INTCONbits.PEIE = 1;
0031aa   8cf2     bsf     0xf2, 0x6, 0     	BSF	_INTCONbits, 6
                                           ;	.line	745; meter_logger.c	INTCONbits.GIE = 1;	/* Enable Global interrupts   */	
0031ac   8ef2     bsf     0xf2, 0x7, 0     	BSF	_INTCONbits, 7
                                           ;	.line	750; meter_logger.c	IPR1bits.RCIP = 0;
0031ae   9a9f     bcf     0x9f, 0x5, 0     	BCF	_IPR1bits, 5
                                           ;	.line	751; meter_logger.c	IPR1bits.TXIP = 0;
0031b0   989f     bcf     0x9f, 0x4, 0     	BCF	_IPR1bits, 4
                                           ;	.line	762; meter_logger.c	my_usart_open();
0031b2   ec84     call    0x3308, 0        	CALL	_my_usart_open
0031b4   f019
0031b6   cfe4     movff   0xfe4, 0xfd9     	MOVFF	PREINC1, FSR2L
0031b8   ffd9
0031ba   0012     return  0                	RETURN	
                                           
                                           ; ; Starting pCode block
                                           S_meter_logger__sleep_ms	code
                                           _sleep_ms:
                                           ;	.line	656; meter_logger.c	void sleep_ms(unsigned long ms) {
002b48   cfd9     movff   0xfd9, 0xfe5     	MOVFF	FSR2L, POSTDEC1
002b4a   ffe5
002b4c   cfe1     movff   0xfe1, 0xfd9     	MOVFF	FSR1L, FSR2L
002b4e   ffd9
002b50   c000     movff   0, 0xfe5         	MOVFF	r0x00, POSTDEC1
002b52   ffe5
002b54   c001     movff   0x1, 0xfe5       	MOVFF	r0x01, POSTDEC1
002b56   ffe5
002b58   c002     movff   0x2, 0xfe5       	MOVFF	r0x02, POSTDEC1
002b5a   ffe5
002b5c   c003     movff   0x3, 0xfe5       	MOVFF	r0x03, POSTDEC1
002b5e   ffe5
002b60   c004     movff   0x4, 0xfe5       	MOVFF	r0x04, POSTDEC1
002b62   ffe5
002b64   c005     movff   0x5, 0xfe5       	MOVFF	r0x05, POSTDEC1
002b66   ffe5
002b68   c006     movff   0x6, 0xfe5       	MOVFF	r0x06, POSTDEC1
002b6a   ffe5
002b6c   c007     movff   0x7, 0xfe5       	MOVFF	r0x07, POSTDEC1
002b6e   ffe5
002b70   c008     movff   0x8, 0xfe5       	MOVFF	r0x08, POSTDEC1
002b72   ffe5
002b74   c009     movff   0x9, 0xfe5       	MOVFF	r0x09, POSTDEC1
002b76   ffe5
002b78   c00a     movff   0xa, 0xfe5       	MOVFF	r0x0a, POSTDEC1
002b7a   ffe5
002b7c   c00b     movff   0xb, 0xfe5       	MOVFF	r0x0b, POSTDEC1
002b7e   ffe5
002b80   c00c     movff   0xc, 0xfe5       	MOVFF	r0x0c, POSTDEC1
002b82   ffe5
002b84   c00d     movff   0xd, 0xfe5       	MOVFF	r0x0d, POSTDEC1
002b86   ffe5
002b88   c00e     movff   0xe, 0xfe5       	MOVFF	r0x0e, POSTDEC1
002b8a   ffe5
002b8c   c00f     movff   0xf, 0xfe5       	MOVFF	r0x0f, POSTDEC1
002b8e   ffe5
002b90   0e02     movlw   0x2              	MOVLW	0x02
002b92   cfdb     movff   0xfdb, 0         	MOVFF	PLUSW2, r0x00
002b94   f000
002b96   0e03     movlw   0x3              	MOVLW	0x03
002b98   cfdb     movff   0xfdb, 0x1       	MOVFF	PLUSW2, r0x01
002b9a   f001
002b9c   0e04     movlw   0x4              	MOVLW	0x04
002b9e   cfdb     movff   0xfdb, 0x2       	MOVFF	PLUSW2, r0x02
002ba0   f002
002ba2   0e05     movlw   0x5              	MOVLW	0x05
002ba4   cfdb     movff   0xfdb, 0x3       	MOVFF	PLUSW2, r0x03
002ba6   f003
                                           ;	.line	658; meter_logger.c	start_timer_1_ms = timer_1_ms;	
002ba8   c0fc     movff   0xfc, 0x4        	MOVFF	_timer_1_ms, r0x04
002baa   f004
002bac   c0fd     movff   0xfd, 0x5        	MOVFF	(_timer_1_ms + 1), r0x05
002bae   f005
002bb0   c0fe     movff   0xfe, 0x6        	MOVFF	(_timer_1_ms + 2), r0x06
002bb2   f006
002bb4   c0ff     movff   0xff, 0x7        	MOVFF	(_timer_1_ms + 3), r0x07
002bb6   f007
                                           _00618_DS_:
                                           ;	.line	661; meter_logger.c	while ( (((signed long)(timer_1_ms - start_timer_1_ms) < 0) ? (-1 * (timer_1_ms - start_timer_1_ms)) : (timer_1_ms - start_timer_1_ms)) < ms) {
002bb8   5004     movf    0x4, 0, 0        	MOVF	r0x04, W
002bba   0100     movlb   0                	BANKSEL	_timer_1_ms
002bbc   5dfc     subwf   0xfc, 0, 0x1     	SUBWF	_timer_1_ms, W, B
002bbe   6e08     movwf   0x8, 0           	MOVWF	r0x08
002bc0   5005     movf    0x5, 0, 0        	MOVF	r0x05, W
                                           ; removed redundant BANKSEL
002bc2   59fd     subwfb  0xfd, 0, 0x1     	SUBWFB	(_timer_1_ms + 1), W, B
002bc4   6e09     movwf   0x9, 0           	MOVWF	r0x09
002bc6   5006     movf    0x6, 0, 0        	MOVF	r0x06, W
                                           ; removed redundant BANKSEL
002bc8   59fe     subwfb  0xfe, 0, 0x1     	SUBWFB	(_timer_1_ms + 2), W, B
002bca   6e0a     movwf   0xa, 0           	MOVWF	r0x0a
002bcc   5007     movf    0x7, 0, 0        	MOVF	r0x07, W
                                           ; removed redundant BANKSEL
002bce   59ff     subwfb  0xff, 0, 0x1     	SUBWFB	(_timer_1_ms + 3), W, B
002bd0   6e0b     movwf   0xb, 0           	MOVWF	r0x0b
002bd2   5008     movf    0x8, 0, 0        	MOVF	r0x08, W
002bd4   6e0c     movwf   0xc, 0           	MOVWF	r0x0c
002bd6   5009     movf    0x9, 0, 0        	MOVF	r0x09, W
002bd8   6e0d     movwf   0xd, 0           	MOVWF	r0x0d
002bda   500a     movf    0xa, 0, 0        	MOVF	r0x0a, W
002bdc   6e0e     movwf   0xe, 0           	MOVWF	r0x0e
002bde   500b     movf    0xb, 0, 0        	MOVF	r0x0b, W
002be0   6e0f     movwf   0xf, 0           	MOVWF	r0x0f
002be2   80d8     bsf     0xd8, 0, 0       	BSF	STATUS, 0
002be4   ae0f     btfss   0xf, 0x7, 0      	BTFSS	r0x0f, 7
002be6   90d8     bcf     0xd8, 0, 0       	BCF	STATUS, 0
002be8   e31c     bnc     0x2c22           	BNC	_00623_DS_
002bea   500b     movf    0xb, 0, 0        	MOVF	r0x0b, W
002bec   6ee5     movwf   0xe5, 0          	MOVWF	POSTDEC1
002bee   500a     movf    0xa, 0, 0        	MOVF	r0x0a, W
002bf0   6ee5     movwf   0xe5, 0          	MOVWF	POSTDEC1
002bf2   5009     movf    0x9, 0, 0        	MOVF	r0x09, W
002bf4   6ee5     movwf   0xe5, 0          	MOVWF	POSTDEC1
002bf6   5008     movf    0x8, 0, 0        	MOVF	r0x08, W
002bf8   6ee5     movwf   0xe5, 0          	MOVWF	POSTDEC1
002bfa   0eff     movlw   0xff             	MOVLW	0xff
002bfc   6ee5     movwf   0xe5, 0          	MOVWF	POSTDEC1
002bfe   0eff     movlw   0xff             	MOVLW	0xff
002c00   6ee5     movwf   0xe5, 0          	MOVWF	POSTDEC1
002c02   0eff     movlw   0xff             	MOVLW	0xff
002c04   6ee5     movwf   0xe5, 0          	MOVWF	POSTDEC1
002c06   0eff     movlw   0xff             	MOVLW	0xff
002c08   6ee5     movwf   0xe5, 0          	MOVWF	POSTDEC1
002c0a   ec0b     call    0x2416, 0        	CALL	__mullong
002c0c   f012
002c0e   6e0c     movwf   0xc, 0           	MOVWF	r0x0c
002c10   cff3     movff   0xff3, 0xd       	MOVFF	PRODL, r0x0d
002c12   f00d
002c14   cff4     movff   0xff4, 0xe       	MOVFF	PRODH, r0x0e
002c16   f00e
002c18   cfe9     movff   0xfe9, 0xf       	MOVFF	FSR0L, r0x0f
002c1a   f00f
002c1c   0e08     movlw   0x8              	MOVLW	0x08
002c1e   26e1     addwf   0xe1, 0x1, 0     	ADDWF	FSR1L, F
002c20   d008     bra     0x2c32           	BRA	_00624_DS_
                                           _00623_DS_:
002c22   c008     movff   0x8, 0xc         	MOVFF	r0x08, r0x0c
002c24   f00c
002c26   c009     movff   0x9, 0xd         	MOVFF	r0x09, r0x0d
002c28   f00d
002c2a   c00a     movff   0xa, 0xe         	MOVFF	r0x0a, r0x0e
002c2c   f00e
002c2e   c00b     movff   0xb, 0xf         	MOVFF	r0x0b, r0x0f
002c30   f00f
                                           _00624_DS_:
002c32   5003     movf    0x3, 0, 0        	MOVF	r0x03, W
002c34   5c0f     subwf   0xf, 0, 0        	SUBWF	r0x0f, W
002c36   e108     bnz     0x2c48           	BNZ	_00631_DS_
002c38   5002     movf    0x2, 0, 0        	MOVF	r0x02, W
002c3a   5c0e     subwf   0xe, 0, 0        	SUBWF	r0x0e, W
002c3c   e105     bnz     0x2c48           	BNZ	_00631_DS_
002c3e   5001     movf    0x1, 0, 0        	MOVF	r0x01, W
002c40   5c0d     subwf   0xd, 0, 0        	SUBWF	r0x0d, W
002c42   e102     bnz     0x2c48           	BNZ	_00631_DS_
002c44   5000     movf    0, 0, 0          	MOVF	r0x00, W
002c46   5c0c     subwf   0xc, 0, 0        	SUBWF	r0x0c, W
                                           _00631_DS_:
002c48   a0d8     btfss   0xd8, 0, 0       	BTFSS	STATUS, 0
002c4a   d7b6     bra     0x2bb8           	BRA	_00618_DS_
002c4c   cfe4     movff   0xfe4, 0xf       	MOVFF	PREINC1, r0x0f
002c4e   f00f
002c50   cfe4     movff   0xfe4, 0xe       	MOVFF	PREINC1, r0x0e
002c52   f00e
002c54   cfe4     movff   0xfe4, 0xd       	MOVFF	PREINC1, r0x0d
002c56   f00d
002c58   cfe4     movff   0xfe4, 0xc       	MOVFF	PREINC1, r0x0c
002c5a   f00c
002c5c   cfe4     movff   0xfe4, 0xb       	MOVFF	PREINC1, r0x0b
002c5e   f00b
002c60   cfe4     movff   0xfe4, 0xa       	MOVFF	PREINC1, r0x0a
002c62   f00a
002c64   cfe4     movff   0xfe4, 0x9       	MOVFF	PREINC1, r0x09
002c66   f009
002c68   cfe4     movff   0xfe4, 0x8       	MOVFF	PREINC1, r0x08
002c6a   f008
002c6c   cfe4     movff   0xfe4, 0x7       	MOVFF	PREINC1, r0x07
002c6e   f007
002c70   cfe4     movff   0xfe4, 0x6       	MOVFF	PREINC1, r0x06
002c72   f006
002c74   cfe4     movff   0xfe4, 0x5       	MOVFF	PREINC1, r0x05
002c76   f005
002c78   cfe4     movff   0xfe4, 0x4       	MOVFF	PREINC1, r0x04
002c7a   f004
002c7c   cfe4     movff   0xfe4, 0x3       	MOVFF	PREINC1, r0x03
002c7e   f003
002c80   cfe4     movff   0xfe4, 0x2       	MOVFF	PREINC1, r0x02
002c82   f002
002c84   cfe4     movff   0xfe4, 0x1       	MOVFF	PREINC1, r0x01
002c86   f001
002c88   cfe4     movff   0xfe4, 0         	MOVFF	PREINC1, r0x00
002c8a   f000
002c8c   cfe4     movff   0xfe4, 0xfd9     	MOVFF	PREINC1, FSR2L
002c8e   ffd9
002c90   0012     return  0                	RETURN	
                                           
                                           ; ; Starting pCode block
                                           S_meter_logger__isr_low_prio	code
                                           _isr_low_prio:
                                           ;	.line	624; meter_logger.c	static void isr_low_prio(void) __interrupt 2 {
002db0   cfd8     movff   0xfd8, 0xfe5     	MOVFF	STATUS, POSTDEC1
002db2   ffe5
002db4   cfe0     movff   0xfe0, 0xfe5     	MOVFF	BSR, POSTDEC1
002db6   ffe5
002db8   6ee5     movwf   0xe5, 0          	MOVWF	POSTDEC1
002dba   cff3     movff   0xff3, 0xfe5     	MOVFF	PRODL, POSTDEC1
002dbc   ffe5
002dbe   cff4     movff   0xff4, 0xfe5     	MOVFF	PRODH, POSTDEC1
002dc0   ffe5
002dc2   cfe9     movff   0xfe9, 0xfe5     	MOVFF	FSR0L, POSTDEC1
002dc4   ffe5
002dc6   cfea     movff   0xfea, 0xfe5     	MOVFF	FSR0H, POSTDEC1
002dc8   ffe5
002dca   cffa     movff   0xffa, 0xfe5     	MOVFF	PCLATH, POSTDEC1
002dcc   ffe5
002dce   cffb     movff   0xffb, 0xfe5     	MOVFF	PCLATU, POSTDEC1
002dd0   ffe5
002dd2   cfd9     movff   0xfd9, 0xfe5     	MOVFF	FSR2L, POSTDEC1
002dd4   ffe5
002dd6   cfe1     movff   0xfe1, 0xfd9     	MOVFF	FSR1L, FSR2L
002dd8   ffd9
002dda   c000     movff   0, 0xfe5         	MOVFF	r0x00, POSTDEC1
002ddc   ffe5
002dde   c001     movff   0x1, 0xfe5       	MOVFF	r0x01, POSTDEC1
002de0   ffe5
                                           ;	.line	627; meter_logger.c	if (PIR1bits.TMR1IF) {
002de2   a09e     btfss   0x9e, 0, 0       	BTFSS	_PIR1bits, 0
002de4   d028     bra     0x2e36           	BRA	_00589_DS_
                                           ;	.line	628; meter_logger.c	TMR1H = (unsigned char)(TIMER1_RELOAD >> 8);    // 262,158ms @ 8MHz
002de6   0ef8     movlw   0xf8             	MOVLW	0xf8
002de8   6ecf     movwf   0xcf, 0          	MOVWF	_TMR1H
                                           ;	.line	629; meter_logger.c	TMR1L = (unsigned char)TIMER1_RELOAD;
002dea   0e53     movlw   0x53             	MOVLW	0x53
002dec   6ece     movwf   0xce, 0          	MOVWF	_TMR1L
                                           ;	.line	631; meter_logger.c	switch (led_flash.state) {
002dee   c51e     movff   0x51e, 0         	MOVFF	_led_flash, r0x00
002df0   f000
002df2   5000     movf    0, 0, 0          	MOVF	r0x00, W
002df4   6e01     movwf   0x1, 0           	MOVWF	r0x01
002df6   5001     movf    0x1, 0, 0        	MOVF	r0x01, W
002df8   e004     bz      0x2e02           	BZ	_00583_DS_
002dfa   5000     movf    0, 0, 0          	MOVF	r0x00, W
002dfc   0a01     xorlw   0x1              	XORLW	0x01
002dfe   e006     bz      0x2e0c           	BZ	_00584_DS_
002e00   d011     bra     0x2e24           	BRA	_00587_DS_
                                           _00583_DS_:
                                           ;	.line	633; meter_logger.c	LED_PIN = 1;
002e02   8881     bsf     0x81, 0x4, 0     	BSF	_PORTBbits, 4
                                           ;	.line	634; meter_logger.c	led_flash.state = LED_FLASH_RUNNING;
002e04   0e01     movlw   0x1              	MOVLW	0x01
002e06   0105     movlb   0x5              	BANKSEL	_led_flash
002e08   6f1e     movwf   0x1e, 0x1        	MOVWF	_led_flash, B
                                           ;	.line	635; meter_logger.c	break;
002e0a   d00c     bra     0x2e24           	BRA	_00587_DS_
                                           _00584_DS_:
                                           ;	.line	637; meter_logger.c	if (led_flash.timer-- == 0) {
002e0c   c51f     movff   0x51f, 0         	MOVFF	(_led_flash + 1), r0x00
002e0e   f000
002e10   0400     decf    0, 0, 0          	DECF	r0x00, W
002e12   6e01     movwf   0x1, 0           	MOVWF	r0x01
002e14   5001     movf    0x1, 0, 0        	MOVF	r0x01, W
002e16   0105     movlb   0x5              	BANKSEL	(_led_flash + 1)
002e18   6f1f     movwf   0x1f, 0x1        	MOVWF	(_led_flash + 1), B
002e1a   5000     movf    0, 0, 0          	MOVF	r0x00, W
002e1c   e103     bnz     0x2e24           	BNZ	_00587_DS_
                                           ;	.line	638; meter_logger.c	LED_PIN = 0;
002e1e   9881     bcf     0x81, 0x4, 0     	BCF	_PORTBbits, 4
                                           ;	.line	639; meter_logger.c	led_flash.state = LED_FLASH_STOPPED;
002e20   0e02     movlw   0x2              	MOVLW	0x02
                                           ; removed redundant BANKSEL
002e22   6f1e     movwf   0x1e, 0x1        	MOVWF	_led_flash, B
                                           _00587_DS_:
002e24   0100     movlb   0                	BANKSEL	_timer_1_ms
                                           ;	.line	643; meter_logger.c	timer_1_ms++;
002e26   2bfc     incf    0xfc, 0x1, 0x1   	INCF	_timer_1_ms, F, B
002e28   e305     bnc     0x2e34           	BNC	_00613_DS_
                                           ; removed redundant BANKSEL
002e2a   2bfd     incf    0xfd, 0x1, 0x1   	INCF	(_timer_1_ms + 1), F, B
002e2c   e303     bnc     0x2e34           	BNC	_00613_DS_
                                           ; removed redundant BANKSEL
002e2e   3ffe     incfsz  0xfe, 0x1, 0x1   	INCFSZ	(_timer_1_ms + 2), F, B
002e30   d001     bra     0x2e34           	BRA	_30918_DS_
                                           ; removed redundant BANKSEL
002e32   2bff     incf    0xff, 0x1, 0x1   	INCF	(_timer_1_ms + 3), F, B
                                           _30918_DS_:
                                           _00613_DS_:
                                           ;	.line	644; meter_logger.c	PIR1bits.TMR1IF = 0;    /* Clear the Timer Flag  */
002e34   909e     bcf     0x9e, 0, 0       	BCF	_PIR1bits, 0
                                           _00589_DS_:
                                           ;	.line	648; meter_logger.c	if (usart_drdy()) {
002e36   ec59     call    0x34b2, 0        	CALL	_usart_drdy
002e38   f01a
002e3a   6e00     movwf   0, 0             	MOVWF	r0x00
002e3c   5000     movf    0, 0, 0          	MOVF	r0x00, W
002e3e   e006     bz      0x2e4c           	BZ	_00592_DS_
                                           ;	.line	650; meter_logger.c	c = usart_getc();
002e40   ec99     call    0x3332, 0        	CALL	_usart_getc
002e42   f019
002e44   6e00     movwf   0, 0             	MOVWF	r0x00
                                           ;	.line	651; meter_logger.c	usart_putc(c);
002e46   5000     movf    0, 0, 0          	MOVF	r0x00, W
002e48   ec49     call    0x3492, 0        	CALL	_usart_putc
002e4a   f01a
                                           _00592_DS_:
002e4c   cfe4     movff   0xfe4, 0x1       	MOVFF	PREINC1, r0x01
002e4e   f001
002e50   cfe4     movff   0xfe4, 0         	MOVFF	PREINC1, r0x00
002e52   f000
002e54   cfe4     movff   0xfe4, 0xfd9     	MOVFF	PREINC1, FSR2L
002e56   ffd9
002e58   cfe4     movff   0xfe4, 0xffb     	MOVFF	PREINC1, PCLATU
002e5a   fffb
002e5c   cfe4     movff   0xfe4, 0xffa     	MOVFF	PREINC1, PCLATH
002e5e   fffa
002e60   cfe4     movff   0xfe4, 0xfea     	MOVFF	PREINC1, FSR0H
002e62   ffea
002e64   cfe4     movff   0xfe4, 0xfe9     	MOVFF	PREINC1, FSR0L
002e66   ffe9
002e68   cfe4     movff   0xfe4, 0xff4     	MOVFF	PREINC1, PRODH
002e6a   fff4
002e6c   cfe4     movff   0xfe4, 0xff3     	MOVFF	PREINC1, PRODL
002e6e   fff3
002e70   50e4     movf    0xe4, 0, 0       	MOVF	PREINC1, W
002e72   cfe4     movff   0xfe4, 0xfe0     	MOVFF	PREINC1, BSR
002e74   ffe0
002e76   cfe4     movff   0xfe4, 0xfd8     	MOVFF	PREINC1, STATUS
002e78   ffd8
002e7a   0010     retfie  0                	RETFIE	
                                           
                                           ; ; Starting pCode block
                                           S_meter_logger__isr_high_prio	code
                                           _isr_high_prio:
                                           ;	.line	263; meter_logger.c	static void isr_high_prio(void) __interrupt 1 {
001722   cfd8     movff   0xfd8, 0xfe5     	MOVFF	STATUS, POSTDEC1
001724   ffe5
001726   cfe0     movff   0xfe0, 0xfe5     	MOVFF	BSR, POSTDEC1
001728   ffe5
00172a   6ee5     movwf   0xe5, 0          	MOVWF	POSTDEC1
00172c   cff3     movff   0xff3, 0xfe5     	MOVFF	PRODL, POSTDEC1
00172e   ffe5
001730   cff4     movff   0xff4, 0xfe5     	MOVFF	PRODH, POSTDEC1
001732   ffe5
001734   cfe9     movff   0xfe9, 0xfe5     	MOVFF	FSR0L, POSTDEC1
001736   ffe5
001738   cfea     movff   0xfea, 0xfe5     	MOVFF	FSR0H, POSTDEC1
00173a   ffe5
00173c   cffa     movff   0xffa, 0xfe5     	MOVFF	PCLATH, POSTDEC1
00173e   ffe5
001740   cffb     movff   0xffb, 0xfe5     	MOVFF	PCLATU, POSTDEC1
001742   ffe5
001744   cfd9     movff   0xfd9, 0xfe5     	MOVFF	FSR2L, POSTDEC1
001746   ffe5
001748   cfe1     movff   0xfe1, 0xfd9     	MOVFF	FSR1L, FSR2L
00174a   ffd9
00174c   c000     movff   0, 0xfe5         	MOVFF	r0x00, POSTDEC1
00174e   ffe5
001750   c001     movff   0x1, 0xfe5       	MOVFF	r0x01, POSTDEC1
001752   ffe5
001754   c002     movff   0x2, 0xfe5       	MOVFF	r0x02, POSTDEC1
001756   ffe5
001758   c003     movff   0x3, 0xfe5       	MOVFF	r0x03, POSTDEC1
00175a   ffe5
00175c   c004     movff   0x4, 0xfe5       	MOVFF	r0x04, POSTDEC1
00175e   ffe5
001760   c005     movff   0x5, 0xfe5       	MOVFF	r0x05, POSTDEC1
001762   ffe5
                                           ;	.line	264; meter_logger.c	DEBUG2_PIN = 1;
001764   8681     bsf     0x81, 0x3, 0     	BSF	_PORTBbits, 3
001766   0000     nop                      	nop
001768   0000     nop                      	nop
                                           	
                                           ;	.line	269; meter_logger.c	DEBUG2_PIN = 0;
00176a   9681     bcf     0x81, 0x3, 0     	BCF	_PORTBbits, 3
                                           ;	.line	271; meter_logger.c	if (INTCONbits.INT0IF && INTCONbits.INT0IE) {
00176c   a2f2     btfss   0xf2, 0x1, 0     	BTFSS	_INTCONbits, 1
00176e   d14b     bra     0x1a06           	BRA	_00256_DS_
001770   a8f2     btfss   0xf2, 0x4, 0     	BTFSS	_INTCONbits, 4
001772   d149     bra     0x1a06           	BRA	_00256_DS_
                                           ;	.line	272; meter_logger.c	timer_0 = (unsigned int)(TMR0L) | ((unsigned int)(TMR0H) << 8);
001774   cfd6     movff   0xfd6, 0         	MOVFF	_TMR0L, r0x00
001776   f000
001778   6a01     clrf    0x1, 0           	CLRF	r0x01
00177a   cfd7     movff   0xfd7, 0x2       	MOVFF	_TMR0H, r0x02
00177c   f002
00177e   6a03     clrf    0x3, 0           	CLRF	r0x03
001780   5002     movf    0x2, 0, 0        	MOVF	r0x02, W
001782   6e05     movwf   0x5, 0           	MOVWF	r0x05
001784   6a04     clrf    0x4, 0           	CLRF	r0x04
001786   5004     movf    0x4, 0, 0        	MOVF	r0x04, W
001788   1000     iorwf   0, 0, 0          	IORWF	r0x00, W
00178a   0105     movlb   0x5              	BANKSEL	_timer_0
00178c   6f18     movwf   0x18, 0x1        	MOVWF	_timer_0, B
00178e   5005     movf    0x5, 0, 0        	MOVF	r0x05, W
001790   1001     iorwf   0x1, 0, 0        	IORWF	r0x01, W
                                           ; removed redundant BANKSEL
001792   6f19     movwf   0x19, 0x1        	MOVWF	(_timer_0 + 1), B
001794   0105     movlb   0x5              	BANKSEL	(_timer0_reload + 1)
                                           ;	.line	273; meter_logger.c	TMR0H = (unsigned char)(timer0_reload >> 8);
001796   511b     movf    0x1b, 0, 0x1     	MOVF	(_timer0_reload + 1), W, B
001798   6e00     movwf   0, 0             	MOVWF	r0x00
00179a   6a01     clrf    0x1, 0           	CLRF	r0x01
00179c   5000     movf    0, 0, 0          	MOVF	r0x00, W
00179e   6ed7     movwf   0xd7, 0          	MOVWF	_TMR0H
                                           ; removed redundant BANKSEL
                                           ;	.line	274; meter_logger.c	TMR0L = (unsigned char)timer0_reload;
0017a0   511a     movf    0x1a, 0, 0x1     	MOVF	_timer0_reload, W, B
0017a2   6ed6     movwf   0xd6, 0          	MOVWF	_TMR0L
0017a4   0105     movlb   0x5              	BANKSEL	_codec_type
                                           ;	.line	276; meter_logger.c	switch (codec_type) {
0017a6   5123     movf    0x23, 0, 0x1     	MOVF	_codec_type, W, B
0017a8   0a01     xorlw   0x1              	XORLW	0x01
0017aa   e006     bz      0x17b8           	BZ	_00217_DS_
                                           _00500_DS_:
0017ac   0105     movlb   0x5              	BANKSEL	_codec_type
0017ae   5123     movf    0x23, 0, 0x1     	MOVF	_codec_type, W, B
0017b0   0a02     xorlw   0x2              	XORLW	0x02
0017b2   e101     bnz     0x17b6           	BNZ	_00502_DS_
0017b4   d117     bra     0x19e4           	BRA	_00251_DS_
                                           _00502_DS_:
0017b6   d126     bra     0x1a04           	BRA	_00254_DS_
                                           _00217_DS_:
                                           ;	.line	278; meter_logger.c	flash_led(100);
0017b8   0e64     movlw   0x64             	MOVLW	0x64
0017ba   6ee5     movwf   0xe5, 0          	MOVWF	POSTDEC1
0017bc   ecc0     call    0x3380, 0        	CALL	_flash_led
0017be   f019
0017c0   52e6     movf    0xe6, 0x1, 0     	MOVF	POSTINC1, F
                                           ;	.line	279; meter_logger.c	switch (testo_ir_proto.state) {
0017c2   c0f0     movff   0xf0, 0          	MOVFF	_testo_ir_proto, r0x00
0017c4   f000
0017c6   5000     movf    0, 0, 0          	MOVF	r0x00, W
0017c8   6e01     movwf   0x1, 0           	MOVWF	r0x01
0017ca   5001     movf    0x1, 0, 0        	MOVF	r0x01, W
0017cc   e008     bz      0x17de           	BZ	_00218_DS_
0017ce   5000     movf    0, 0, 0          	MOVF	r0x00, W
0017d0   0a02     xorlw   0x2              	XORLW	0x02
0017d2   e00c     bz      0x17ec           	BZ	_00219_DS_
0017d4   5000     movf    0, 0, 0          	MOVF	r0x00, W
0017d6   0a04     xorlw   0x4              	XORLW	0x04
0017d8   e101     bnz     0x17dc           	BNZ	_00508_DS_
0017da   d03b     bra     0x1852           	BRA	_00227_DS_
                                           _00508_DS_:
0017dc   d113     bra     0x1a04           	BRA	_00254_DS_
                                           _00218_DS_:
                                           ;	.line	281; meter_logger.c	T0CONbits.TMR0ON = 1;		// Start TMR0
0017de   8ed5     bsf     0xd5, 0x7, 0     	BSF	_T0CONbits, 7
                                           ;	.line	282; meter_logger.c	testo_ir_proto.start_bit_len = 1;
0017e0   0e01     movlw   0x1              	MOVLW	0x01
0017e2   0100     movlb   0                	BANKSEL	(_testo_ir_proto + 2)
0017e4   6ff2     movwf   0xf2, 0x1        	MOVWF	(_testo_ir_proto + 2), B
                                           ;	.line	283; meter_logger.c	testo_ir_proto.state = START_BIT_WAIT;
0017e6   0e02     movlw   0x2              	MOVLW	0x02
                                           ; removed redundant BANKSEL
0017e8   6ff0     movwf   0xf0, 0x1        	MOVWF	_testo_ir_proto, B
                                           ;	.line	284; meter_logger.c	break;
0017ea   d10c     bra     0x1a04           	BRA	_00254_DS_
                                           _00219_DS_:
0017ec   0105     movlb   0x5              	BANKSEL	_timer0_reload
                                           ;	.line	286; meter_logger.c	if ((TICK + timer0_reload - TICK_ADJ < timer_0) && (timer_0 < TICK + timer0_reload + TICK_ADJ)) {
0017ee   511a     movf    0x1a, 0, 0x1     	MOVF	_timer0_reload, W, B
0017f0   0f8f     addlw   0x8f             	ADDLW	0x8f
0017f2   6e00     movwf   0, 0             	MOVWF	r0x00
0017f4   0e02     movlw   0x2              	MOVLW	0x02
                                           ; removed redundant BANKSEL
0017f6   211b     addwfc  0x1b, 0, 0x1     	ADDWFC	(_timer0_reload + 1), W, B
0017f8   6e01     movwf   0x1, 0           	MOVWF	r0x01
0017fa   0105     movlb   0x5              	BANKSEL	(_timer_0 + 1)
0017fc   5119     movf    0x19, 0, 0x1     	MOVF	(_timer_0 + 1), W, B
0017fe   5c01     subwf   0x1, 0, 0        	SUBWF	r0x01, W
001800   e102     bnz     0x1806           	BNZ	_00509_DS_
                                           ; removed redundant BANKSEL
001802   5118     movf    0x18, 0, 0x1     	MOVF	_timer_0, W, B
001804   5c00     subwf   0, 0, 0          	SUBWF	r0x00, W
                                           _00509_DS_:
001806   e21f     bc      0x1846           	BC	_00224_DS_
001808   0105     movlb   0x5              	BANKSEL	_timer0_reload
00180a   511a     movf    0x1a, 0, 0x1     	MOVF	_timer0_reload, W, B
00180c   0f1f     addlw   0x1f             	ADDLW	0x1f
00180e   6e00     movwf   0, 0             	MOVWF	r0x00
001810   0e04     movlw   0x4              	MOVLW	0x04
                                           ; removed redundant BANKSEL
001812   211b     addwfc  0x1b, 0, 0x1     	ADDWFC	(_timer0_reload + 1), W, B
001814   6e01     movwf   0x1, 0           	MOVWF	r0x01
001816   5001     movf    0x1, 0, 0        	MOVF	r0x01, W
001818   0105     movlb   0x5              	BANKSEL	(_timer_0 + 1)
00181a   5d19     subwf   0x19, 0, 0x1     	SUBWF	(_timer_0 + 1), W, B
00181c   e102     bnz     0x1822           	BNZ	_00510_DS_
00181e   5000     movf    0, 0, 0          	MOVF	r0x00, W
                                           ; removed redundant BANKSEL
001820   5d18     subwf   0x18, 0, 0x1     	SUBWF	_timer_0, W, B
                                           _00510_DS_:
001822   e211     bc      0x1846           	BC	_00224_DS_
                                           ;	.line	287; meter_logger.c	if (testo_ir_proto.start_bit_len < 2) {
001824   0e02     movlw   0x2              	MOVLW	0x02
001826   0100     movlb   0                	BANKSEL	(_testo_ir_proto + 2)
001828   5df2     subwf   0xf2, 0, 0x1     	SUBWF	(_testo_ir_proto + 2), W, B
00182a   e206     bc      0x1838           	BC	_00221_DS_
                                           ;	.line	288; meter_logger.c	testo_ir_proto.start_bit_len++;
00182c   c0f2     movff   0xf2, 0          	MOVFF	(_testo_ir_proto + 2), r0x00
00182e   f000
001830   2a00     incf    0, 0x1, 0        	INCF	r0x00, F
001832   5000     movf    0, 0, 0          	MOVF	r0x00, W
                                           ; removed redundant BANKSEL
001834   6ff2     movwf   0xf2, 0x1        	MOVWF	(_testo_ir_proto + 2), B
001836   d0e6     bra     0x1a04           	BRA	_00254_DS_
                                           _00221_DS_:
001838   0100     movlb   0                	BANKSEL	(_testo_ir_proto + 3)
                                           ;	.line	292; meter_logger.c	testo_ir_proto.data = 0;
00183a   6bf3     clrf    0xf3, 0x1        	CLRF	(_testo_ir_proto + 3), B
                                           ; removed redundant BANKSEL
00183c   6bf4     clrf    0xf4, 0x1        	CLRF	(_testo_ir_proto + 4), B
                                           ; removed redundant BANKSEL
                                           ;	.line	293; meter_logger.c	testo_ir_proto.data_len = 0;
00183e   6bf5     clrf    0xf5, 0x1        	CLRF	(_testo_ir_proto + 5), B
                                           ;	.line	294; meter_logger.c	testo_ir_proto.state = DATA_WAIT;
001840   0e04     movlw   0x4              	MOVLW	0x04
                                           ; removed redundant BANKSEL
001842   6ff0     movwf   0xf0, 0x1        	MOVWF	_testo_ir_proto, B
001844   d0df     bra     0x1a04           	BRA	_00254_DS_
                                           _00224_DS_:
                                           ;	.line	299; meter_logger.c	testo_ir_proto.start_bit_len = 1;
001846   0e01     movlw   0x1              	MOVLW	0x01
001848   0100     movlb   0                	BANKSEL	(_testo_ir_proto + 2)
00184a   6ff2     movwf   0xf2, 0x1        	MOVWF	(_testo_ir_proto + 2), B
                                           ;	.line	300; meter_logger.c	testo_ir_proto.state = START_BIT_WAIT;
00184c   0e02     movlw   0x2              	MOVLW	0x02
                                           ; removed redundant BANKSEL
00184e   6ff0     movwf   0xf0, 0x1        	MOVWF	_testo_ir_proto, B
                                           ;	.line	302; meter_logger.c	break;
001850   d0d9     bra     0x1a04           	BRA	_00254_DS_
                                           _00227_DS_:
                                           ;	.line	304; meter_logger.c	if (testo_ir_proto.data_len <= 12) {
001852   0e0d     movlw   0xd              	MOVLW	0x0d
001854   0100     movlb   0                	BANKSEL	(_testo_ir_proto + 5)
001856   5df5     subwf   0xf5, 0, 0x1     	SUBWF	(_testo_ir_proto + 5), W, B
001858   b0d8     btfsc   0xd8, 0, 0       	BTFSC	STATUS, 0
00185a   d0d4     bra     0x1a04           	BRA	_00254_DS_
00185c   0105     movlb   0x5              	BANKSEL	_timer0_reload
                                           ;	.line	305; meter_logger.c	if (((TICK + timer0_reload - TICK_ADJ < timer_0) && (timer_0 < TICK + timer0_reload + TICK_ADJ)) || ((3 * TICK + timer0_reload - TICK_ADJ < timer_0) && (timer_0 < 3 * TICK + timer0_reload + TICK_ADJ))) {
00185e   511a     movf    0x1a, 0, 0x1     	MOVF	_timer0_reload, W, B
001860   0f8f     addlw   0x8f             	ADDLW	0x8f
001862   6e00     movwf   0, 0             	MOVWF	r0x00
001864   0e02     movlw   0x2              	MOVLW	0x02
                                           ; removed redundant BANKSEL
001866   211b     addwfc  0x1b, 0, 0x1     	ADDWFC	(_timer0_reload + 1), W, B
001868   6e01     movwf   0x1, 0           	MOVWF	r0x01
00186a   0105     movlb   0x5              	BANKSEL	(_timer_0 + 1)
00186c   5119     movf    0x19, 0, 0x1     	MOVF	(_timer_0 + 1), W, B
00186e   5c01     subwf   0x1, 0, 0        	SUBWF	r0x01, W
001870   e102     bnz     0x1876           	BNZ	_00513_DS_
                                           ; removed redundant BANKSEL
001872   5118     movf    0x18, 0, 0x1     	MOVF	_timer_0, W, B
001874   5c00     subwf   0, 0, 0          	SUBWF	r0x00, W
                                           _00513_DS_:
001876   e20e     bc      0x1894           	BC	_00243_DS_
001878   0105     movlb   0x5              	BANKSEL	_timer0_reload
00187a   511a     movf    0x1a, 0, 0x1     	MOVF	_timer0_reload, W, B
00187c   0f1f     addlw   0x1f             	ADDLW	0x1f
00187e   6e00     movwf   0, 0             	MOVWF	r0x00
001880   0e04     movlw   0x4              	MOVLW	0x04
                                           ; removed redundant BANKSEL
001882   211b     addwfc  0x1b, 0, 0x1     	ADDWFC	(_timer0_reload + 1), W, B
001884   6e01     movwf   0x1, 0           	MOVWF	r0x01
001886   5001     movf    0x1, 0, 0        	MOVF	r0x01, W
001888   0105     movlb   0x5              	BANKSEL	(_timer_0 + 1)
00188a   5d19     subwf   0x19, 0, 0x1     	SUBWF	(_timer_0 + 1), W, B
00188c   e102     bnz     0x1892           	BNZ	_00514_DS_
00188e   5000     movf    0, 0, 0          	MOVF	r0x00, W
                                           ; removed redundant BANKSEL
001890   5d18     subwf   0x18, 0, 0x1     	SUBWF	_timer_0, W, B
                                           _00514_DS_:
001892   e31c     bnc     0x18cc           	BNC	_00238_DS_
                                           _00243_DS_:
001894   0105     movlb   0x5              	BANKSEL	_timer0_reload
001896   511a     movf    0x1a, 0, 0x1     	MOVF	_timer0_reload, W, B
001898   0f3d     addlw   0x3d             	ADDLW	0x3d
00189a   6e00     movwf   0, 0             	MOVWF	r0x00
00189c   0e09     movlw   0x9              	MOVLW	0x09
                                           ; removed redundant BANKSEL
00189e   211b     addwfc  0x1b, 0, 0x1     	ADDWFC	(_timer0_reload + 1), W, B
0018a0   6e01     movwf   0x1, 0           	MOVWF	r0x01
0018a2   0105     movlb   0x5              	BANKSEL	(_timer_0 + 1)
0018a4   5119     movf    0x19, 0, 0x1     	MOVF	(_timer_0 + 1), W, B
0018a6   5c01     subwf   0x1, 0, 0        	SUBWF	r0x01, W
0018a8   e102     bnz     0x18ae           	BNZ	_00515_DS_
                                           ; removed redundant BANKSEL
0018aa   5118     movf    0x18, 0, 0x1     	MOVF	_timer_0, W, B
0018ac   5c00     subwf   0, 0, 0          	SUBWF	r0x00, W
                                           _00515_DS_:
0018ae   e235     bc      0x191a           	BC	_00239_DS_
0018b0   0105     movlb   0x5              	BANKSEL	_timer0_reload
0018b2   511a     movf    0x1a, 0, 0x1     	MOVF	_timer0_reload, W, B
0018b4   0fcd     addlw   0xcd             	ADDLW	0xcd
0018b6   6e00     movwf   0, 0             	MOVWF	r0x00
0018b8   0e0a     movlw   0xa              	MOVLW	0x0a
                                           ; removed redundant BANKSEL
0018ba   211b     addwfc  0x1b, 0, 0x1     	ADDWFC	(_timer0_reload + 1), W, B
0018bc   6e01     movwf   0x1, 0           	MOVWF	r0x01
0018be   5001     movf    0x1, 0, 0        	MOVF	r0x01, W
0018c0   0105     movlb   0x5              	BANKSEL	(_timer_0 + 1)
0018c2   5d19     subwf   0x19, 0, 0x1     	SUBWF	(_timer_0 + 1), W, B
0018c4   e102     bnz     0x18ca           	BNZ	_00516_DS_
0018c6   5000     movf    0, 0, 0          	MOVF	r0x00, W
                                           ; removed redundant BANKSEL
0018c8   5d18     subwf   0x18, 0, 0x1     	SUBWF	_timer_0, W, B
                                           _00516_DS_:
0018ca   e227     bc      0x191a           	BC	_00239_DS_
                                           _00238_DS_:
0018cc   0100     movlb   0                	BANKSEL	(_testo_ir_proto + 3)
                                           ;	.line	307; meter_logger.c	if ((testo_ir_proto.data & 1) != 0) {
0018ce   a1f3     btfss   0xf3, 0, 0x1     	BTFSS	(_testo_ir_proto + 3), 0
0018d0   d00a     bra     0x18e6           	BRA	_00229_DS_
                                           ; removed redundant BANKSEL
                                           ;	.line	309; meter_logger.c	testo_ir_proto.data <<= 1;		// bitshift once to left
0018d2   51f3     movf    0xf3, 0, 0x1     	MOVF	(_testo_ir_proto + 3), W, B
0018d4   6e00     movwf   0, 0             	MOVWF	r0x00
0018d6   2600     addwf   0, 0x1, 0        	ADDWF	r0x00, F
                                           ; removed redundant BANKSEL
0018d8   35f4     rlcf    0xf4, 0, 0x1     	RLCF	(_testo_ir_proto + 4), W, B
0018da   6e01     movwf   0x1, 0           	MOVWF	r0x01
0018dc   5000     movf    0, 0, 0          	MOVF	r0x00, W
                                           ; removed redundant BANKSEL
0018de   6ff3     movwf   0xf3, 0x1        	MOVWF	(_testo_ir_proto + 3), B
0018e0   5001     movf    0x1, 0, 0        	MOVF	r0x01, W
                                           ; removed redundant BANKSEL
0018e2   6ff4     movwf   0xf4, 0x1        	MOVWF	(_testo_ir_proto + 4), B
0018e4   d013     bra     0x190c           	BRA	_00230_DS_
                                           _00229_DS_:
0018e6   0100     movlb   0                	BANKSEL	(_testo_ir_proto + 3)
                                           ;	.line	314; meter_logger.c	testo_ir_proto.data <<= 1;		// bitshift once to left
0018e8   51f3     movf    0xf3, 0, 0x1     	MOVF	(_testo_ir_proto + 3), W, B
0018ea   6e00     movwf   0, 0             	MOVWF	r0x00
0018ec   2600     addwf   0, 0x1, 0        	ADDWF	r0x00, F
                                           ; removed redundant BANKSEL
0018ee   35f4     rlcf    0xf4, 0, 0x1     	RLCF	(_testo_ir_proto + 4), W, B
0018f0   6e01     movwf   0x1, 0           	MOVWF	r0x01
0018f2   5000     movf    0, 0, 0          	MOVF	r0x00, W
                                           ; removed redundant BANKSEL
0018f4   6ff3     movwf   0xf3, 0x1        	MOVWF	(_testo_ir_proto + 3), B
0018f6   5001     movf    0x1, 0, 0        	MOVF	r0x01, W
                                           ; removed redundant BANKSEL
0018f8   6ff4     movwf   0xf4, 0x1        	MOVWF	(_testo_ir_proto + 4), B
                                           ;	.line	315; meter_logger.c	testo_ir_proto.data |= 1;	// and set bit 0
0018fa   0e01     movlw   0x1              	MOVLW	0x01
                                           ; removed redundant BANKSEL
0018fc   11f3     iorwf   0xf3, 0, 0x1     	IORWF	(_testo_ir_proto + 3), W, B
0018fe   6e00     movwf   0, 0             	MOVWF	r0x00
                                           ; removed redundant BANKSEL
001900   51f4     movf    0xf4, 0, 0x1     	MOVF	(_testo_ir_proto + 4), W, B
001902   6e01     movwf   0x1, 0           	MOVWF	r0x01
001904   5000     movf    0, 0, 0          	MOVF	r0x00, W
                                           ; removed redundant BANKSEL
001906   6ff3     movwf   0xf3, 0x1        	MOVWF	(_testo_ir_proto + 3), B
001908   5001     movf    0x1, 0, 0        	MOVF	r0x01, W
                                           ; removed redundant BANKSEL
00190a   6ff4     movwf   0xf4, 0x1        	MOVWF	(_testo_ir_proto + 4), B
                                           _00230_DS_:
                                           ;	.line	317; meter_logger.c	testo_ir_proto.data_len++;
00190c   c0f5     movff   0xf5, 0          	MOVFF	(_testo_ir_proto + 5), r0x00
00190e   f000
001910   2a00     incf    0, 0x1, 0        	INCF	r0x00, F
001912   5000     movf    0, 0, 0          	MOVF	r0x00, W
001914   0100     movlb   0                	BANKSEL	(_testo_ir_proto + 5)
001916   6ff5     movwf   0xf5, 0x1        	MOVWF	(_testo_ir_proto + 5), B
001918   d048     bra     0x19aa           	BRA	_00240_DS_
                                           _00239_DS_:
00191a   0105     movlb   0x5              	BANKSEL	_timer0_reload
                                           ;	.line	319; meter_logger.c	else if ((2 * TICK + timer0_reload - TICK_ADJ < timer_0) && (timer_0 < 2 * TICK + timer0_reload + TICK_ADJ)) {
00191c   511a     movf    0x1a, 0, 0x1     	MOVF	_timer0_reload, W, B
00191e   0fe6     addlw   0xe6             	ADDLW	0xe6
001920   6e00     movwf   0, 0             	MOVWF	r0x00
001922   0e05     movlw   0x5              	MOVLW	0x05
                                           ; removed redundant BANKSEL
001924   211b     addwfc  0x1b, 0, 0x1     	ADDWFC	(_timer0_reload + 1), W, B
001926   6e01     movwf   0x1, 0           	MOVWF	r0x01
001928   0105     movlb   0x5              	BANKSEL	(_timer_0 + 1)
00192a   5119     movf    0x19, 0, 0x1     	MOVF	(_timer_0 + 1), W, B
00192c   5c01     subwf   0x1, 0, 0        	SUBWF	r0x01, W
00192e   e102     bnz     0x1934           	BNZ	_00519_DS_
                                           ; removed redundant BANKSEL
001930   5118     movf    0x18, 0, 0x1     	MOVF	_timer_0, W, B
001932   5c00     subwf   0, 0, 0          	SUBWF	r0x00, W
                                           _00519_DS_:
001934   e235     bc      0x19a0           	BC	_00235_DS_
001936   0105     movlb   0x5              	BANKSEL	_timer0_reload
001938   511a     movf    0x1a, 0, 0x1     	MOVF	_timer0_reload, W, B
00193a   0f76     addlw   0x76             	ADDLW	0x76
00193c   6e00     movwf   0, 0             	MOVWF	r0x00
00193e   0e07     movlw   0x7              	MOVLW	0x07
                                           ; removed redundant BANKSEL
001940   211b     addwfc  0x1b, 0, 0x1     	ADDWFC	(_timer0_reload + 1), W, B
001942   6e01     movwf   0x1, 0           	MOVWF	r0x01
001944   5001     movf    0x1, 0, 0        	MOVF	r0x01, W
001946   0105     movlb   0x5              	BANKSEL	(_timer_0 + 1)
001948   5d19     subwf   0x19, 0, 0x1     	SUBWF	(_timer_0 + 1), W, B
00194a   e102     bnz     0x1950           	BNZ	_00520_DS_
00194c   5000     movf    0, 0, 0          	MOVF	r0x00, W
                                           ; removed redundant BANKSEL
00194e   5d18     subwf   0x18, 0, 0x1     	SUBWF	_timer_0, W, B
                                           _00520_DS_:
001950   e227     bc      0x19a0           	BC	_00235_DS_
001952   0100     movlb   0                	BANKSEL	(_testo_ir_proto + 3)
                                           ;	.line	321; meter_logger.c	if ((testo_ir_proto.data & 1) != 0) {
001954   a1f3     btfss   0xf3, 0, 0x1     	BTFSS	(_testo_ir_proto + 3), 0
001956   d013     bra     0x197e           	BRA	_00232_DS_
                                           ; removed redundant BANKSEL
                                           ;	.line	323; meter_logger.c	testo_ir_proto.data <<= 1;		// bitshift once to left
001958   51f3     movf    0xf3, 0, 0x1     	MOVF	(_testo_ir_proto + 3), W, B
00195a   6e00     movwf   0, 0             	MOVWF	r0x00
00195c   2600     addwf   0, 0x1, 0        	ADDWF	r0x00, F
                                           ; removed redundant BANKSEL
00195e   35f4     rlcf    0xf4, 0, 0x1     	RLCF	(_testo_ir_proto + 4), W, B
001960   6e01     movwf   0x1, 0           	MOVWF	r0x01
001962   5000     movf    0, 0, 0          	MOVF	r0x00, W
                                           ; removed redundant BANKSEL
001964   6ff3     movwf   0xf3, 0x1        	MOVWF	(_testo_ir_proto + 3), B
001966   5001     movf    0x1, 0, 0        	MOVF	r0x01, W
                                           ; removed redundant BANKSEL
001968   6ff4     movwf   0xf4, 0x1        	MOVWF	(_testo_ir_proto + 4), B
                                           ;	.line	324; meter_logger.c	testo_ir_proto.data |= 1;	// and set bit 0
00196a   0e01     movlw   0x1              	MOVLW	0x01
                                           ; removed redundant BANKSEL
00196c   11f3     iorwf   0xf3, 0, 0x1     	IORWF	(_testo_ir_proto + 3), W, B
00196e   6e00     movwf   0, 0             	MOVWF	r0x00
                                           ; removed redundant BANKSEL
001970   51f4     movf    0xf4, 0, 0x1     	MOVF	(_testo_ir_proto + 4), W, B
001972   6e01     movwf   0x1, 0           	MOVWF	r0x01
001974   5000     movf    0, 0, 0          	MOVF	r0x00, W
                                           ; removed redundant BANKSEL
001976   6ff3     movwf   0xf3, 0x1        	MOVWF	(_testo_ir_proto + 3), B
001978   5001     movf    0x1, 0, 0        	MOVF	r0x01, W
                                           ; removed redundant BANKSEL
00197a   6ff4     movwf   0xf4, 0x1        	MOVWF	(_testo_ir_proto + 4), B
00197c   d00a     bra     0x1992           	BRA	_00233_DS_
                                           _00232_DS_:
00197e   0100     movlb   0                	BANKSEL	(_testo_ir_proto + 3)
                                           ;	.line	328; meter_logger.c	testo_ir_proto.data <<= 1;		// bitshift once to left
001980   51f3     movf    0xf3, 0, 0x1     	MOVF	(_testo_ir_proto + 3), W, B
001982   6e00     movwf   0, 0             	MOVWF	r0x00
001984   2600     addwf   0, 0x1, 0        	ADDWF	r0x00, F
                                           ; removed redundant BANKSEL
001986   35f4     rlcf    0xf4, 0, 0x1     	RLCF	(_testo_ir_proto + 4), W, B
001988   6e01     movwf   0x1, 0           	MOVWF	r0x01
00198a   5000     movf    0, 0, 0          	MOVF	r0x00, W
                                           ; removed redundant BANKSEL
00198c   6ff3     movwf   0xf3, 0x1        	MOVWF	(_testo_ir_proto + 3), B
00198e   5001     movf    0x1, 0, 0        	MOVF	r0x01, W
                                           ; removed redundant BANKSEL
001990   6ff4     movwf   0xf4, 0x1        	MOVWF	(_testo_ir_proto + 4), B
                                           _00233_DS_:
                                           ;	.line	331; meter_logger.c	testo_ir_proto.data_len++;
001992   c0f5     movff   0xf5, 0          	MOVFF	(_testo_ir_proto + 5), r0x00
001994   f000
001996   2a00     incf    0, 0x1, 0        	INCF	r0x00, F
001998   5000     movf    0, 0, 0          	MOVF	r0x00, W
00199a   0100     movlb   0                	BANKSEL	(_testo_ir_proto + 5)
00199c   6ff5     movwf   0xf5, 0x1        	MOVWF	(_testo_ir_proto + 5), B
00199e   d005     bra     0x19aa           	BRA	_00240_DS_
                                           _00235_DS_:
                                           ;	.line	336; meter_logger.c	testo_ir_proto.start_bit_len = 1;
0019a0   0e01     movlw   0x1              	MOVLW	0x01
0019a2   0100     movlb   0                	BANKSEL	(_testo_ir_proto + 2)
0019a4   6ff2     movwf   0xf2, 0x1        	MOVWF	(_testo_ir_proto + 2), B
                                           ;	.line	337; meter_logger.c	testo_ir_proto.state = START_BIT_WAIT;
0019a6   0e02     movlw   0x2              	MOVLW	0x02
                                           ; removed redundant BANKSEL
0019a8   6ff0     movwf   0xf0, 0x1        	MOVWF	_testo_ir_proto, B
                                           _00240_DS_:
0019aa   0100     movlb   0                	BANKSEL	(_testo_ir_proto + 5)
                                           ;	.line	339; meter_logger.c	if (testo_ir_proto.data_len == 12) {
0019ac   51f5     movf    0xf5, 0, 0x1     	MOVF	(_testo_ir_proto + 5), W, B
0019ae   0a0c     xorlw   0xc              	XORLW	0x0c
0019b0   e129     bnz     0x1a04           	BNZ	_00254_DS_
                                           _00524_DS_:
0019b2   0100     movlb   0                	BANKSEL	(_testo_ir_proto + 4)
                                           ;	.line	342; meter_logger.c	if (testo_valid_err_corr(testo_ir_proto.data & 0xffff)) {
0019b4   51f4     movf    0xf4, 0, 0x1     	MOVF	(_testo_ir_proto + 4), W, B
0019b6   6ee5     movwf   0xe5, 0          	MOVWF	POSTDEC1
                                           ; removed redundant BANKSEL
0019b8   51f3     movf    0xf3, 0, 0x1     	MOVF	(_testo_ir_proto + 3), W, B
0019ba   6ee5     movwf   0xe5, 0          	MOVWF	POSTDEC1
0019bc   ec15     call    0x262a, 0        	CALL	_testo_valid_err_corr
0019be   f013
0019c0   6e00     movwf   0, 0             	MOVWF	r0x00
0019c2   52e6     movf    0xe6, 0x1, 0     	MOVF	POSTINC1, F
0019c4   52e6     movf    0xe6, 0x1, 0     	MOVF	POSTINC1, F
0019c6   5000     movf    0, 0, 0          	MOVF	r0x00, W
0019c8   e00a     bz      0x19de           	BZ	_00245_DS_
0019ca   0100     movlb   0                	BANKSEL	(_testo_ir_proto + 3)
                                           ;	.line	344; meter_logger.c	fifo_put(testo_ir_proto.data & 0xff);
0019cc   51f3     movf    0xf3, 0, 0x1     	MOVF	(_testo_ir_proto + 3), W, B
0019ce   6e00     movwf   0, 0             	MOVWF	r0x00
0019d0   6a01     clrf    0x1, 0           	CLRF	r0x01
0019d2   5000     movf    0, 0, 0          	MOVF	r0x00, W
0019d4   6ee5     movwf   0xe5, 0          	MOVWF	POSTDEC1
0019d6   ec49     call    0x2c92, 0        	CALL	_fifo_put
0019d8   f016
0019da   52e6     movf    0xe6, 0x1, 0     	MOVF	POSTINC1, F
                                           ;	.line	345; meter_logger.c	LED_PIN = 1;
0019dc   8881     bsf     0x81, 0x4, 0     	BSF	_PORTBbits, 4
                                           _00245_DS_:
0019de   0100     movlb   0                	BANKSEL	_testo_ir_proto
                                           ;	.line	347; meter_logger.c	testo_ir_proto.state = INIT_STATE;
0019e0   6bf0     clrf    0xf0, 0x1        	CLRF	_testo_ir_proto, B
                                           ;	.line	352; meter_logger.c	break;
0019e2   d010     bra     0x1a04           	BRA	_00254_DS_
                                           _00251_DS_:
0019e4   0100     movlb   0                	BANKSEL	_rs232_proto
                                           ;	.line	354; meter_logger.c	switch (rs232_proto.state) {
0019e6   51f6     movf    0xf6, 0, 0x1     	MOVF	_rs232_proto, W, B
0019e8   0a02     xorlw   0x2              	XORLW	0x02
0019ea   e10c     bnz     0x1a04           	BNZ	_00254_DS_
                                           ;	.line	356; meter_logger.c	DEBUG2_PIN = 1;
0019ec   8681     bsf     0x81, 0x3, 0     	BSF	_PORTBbits, 3
0019ee   0000     nop                      	nop
0019f0   0000     nop                      	nop
                                           	
                                           ;	.line	361; meter_logger.c	DEBUG2_PIN = 0;
0019f2   9681     bcf     0x81, 0x3, 0     	BCF	_PORTBbits, 3
                                           ;	.line	363; meter_logger.c	TMR0H = (unsigned char)(TIMER0_RS232_1200_START >> 8);
0019f4   0ef7     movlw   0xf7             	MOVLW	0xf7
0019f6   6ed7     movwf   0xd7, 0          	MOVWF	_TMR0H
                                           ;	.line	364; meter_logger.c	TMR0L = (unsigned char)TIMER0_RS232_1200_START;
0019f8   6ad6     clrf    0xd6, 0          	CLRF	_TMR0L
                                           ;	.line	365; meter_logger.c	INTCONbits.INT0IE = 0;		// disable ext int while we are using timer to receive data bits
0019fa   98f2     bcf     0xf2, 0x4, 0     	BCF	_INTCONbits, 4
                                           ;	.line	366; meter_logger.c	T0CONbits.TMR0ON = 1;		// Start TMR0
0019fc   8ed5     bsf     0xd5, 0x7, 0     	BSF	_T0CONbits, 7
                                           ;	.line	367; meter_logger.c	rs232_proto.state = DATA_WAIT;
0019fe   0e04     movlw   0x4              	MOVLW	0x04
001a00   0100     movlb   0                	BANKSEL	_rs232_proto
001a02   6ff6     movwf   0xf6, 0x1        	MOVWF	_rs232_proto, B
                                           _00254_DS_:
                                           ;	.line	372; meter_logger.c	INTCONbits.INT0IF = 0;	/* Clear Interrupt Flag */
001a04   92f2     bcf     0xf2, 0x1, 0     	BCF	_INTCONbits, 1
                                           _00256_DS_:
                                           ;	.line	376; meter_logger.c	if (INTCONbits.TMR0IF && INTCONbits.TMR0IE) {
001a06   a4f2     btfss   0xf2, 0x2, 0     	BTFSS	_INTCONbits, 2
001a08   d15d     bra     0x1cc4           	BRA	_00309_DS_
001a0a   aaf2     btfss   0xf2, 0x5, 0     	BTFSS	_INTCONbits, 5
001a0c   d15b     bra     0x1cc4           	BRA	_00309_DS_
001a0e   0105     movlb   0x5              	BANKSEL	(_timer0_reload + 1)
                                           ;	.line	378; meter_logger.c	TMR0H = (unsigned char)(timer0_reload >> 8);
001a10   511b     movf    0x1b, 0, 0x1     	MOVF	(_timer0_reload + 1), W, B
001a12   6e00     movwf   0, 0             	MOVWF	r0x00
001a14   6a01     clrf    0x1, 0           	CLRF	r0x01
001a16   5000     movf    0, 0, 0          	MOVF	r0x00, W
001a18   6ed7     movwf   0xd7, 0          	MOVWF	_TMR0H
                                           ; removed redundant BANKSEL
                                           ;	.line	379; meter_logger.c	TMR0L = (unsigned char)timer0_reload;
001a1a   511a     movf    0x1a, 0, 0x1     	MOVF	_timer0_reload, W, B
001a1c   6ed6     movwf   0xd6, 0          	MOVWF	_TMR0L
                                           ;	.line	381; meter_logger.c	switch (codec_type) {
001a1e   0e01     movlw   0x1              	MOVLW	0x01
001a20   0105     movlb   0x5              	BANKSEL	_codec_type
001a22   5d23     subwf   0x23, 0, 0x1     	SUBWF	_codec_type, W, B
001a24   a0d8     btfss   0xd8, 0, 0       	BTFSS	STATUS, 0
001a26   d14d     bra     0x1cc2           	BRA	_00307_DS_
001a28   0e06     movlw   0x6              	MOVLW	0x06
                                           ; removed redundant BANKSEL
001a2a   5d23     subwf   0x23, 0, 0x1     	SUBWF	_codec_type, W, B
001a2c   b0d8     btfsc   0xd8, 0, 0       	BTFSC	STATUS, 0
001a2e   d149     bra     0x1cc2           	BRA	_00307_DS_
                                           ; removed redundant BANKSEL
001a30   0523     decf    0x23, 0, 0x1     	DECF	_codec_type, W, B
001a32   6e00     movwf   0, 0             	MOVWF	r0x00
001a34   6afa     clrf    0xfa, 0          	CLRF	PCLATH
001a36   6afb     clrf    0xfb, 0          	CLRF	PCLATU
001a38   3400     rlcf    0, 0, 0          	RLCF	r0x00, W
001a3a   36fa     rlcf    0xfa, 0x1, 0     	RLCF	PCLATH, F
001a3c   34e8     rlcf    0xe8, 0, 0       	RLCF	WREG, W
001a3e   36fa     rlcf    0xfa, 0x1, 0     	RLCF	PCLATH, F
001a40   0bfc     andlw   0xfc             	ANDLW	0xfc
001a42   0f52     addlw   0x52             	ADDLW	LOW(_00530_DS_)
001a44   6ee5     movwf   0xe5, 0          	MOVWF	POSTDEC1
001a46   0e1a     movlw   0x1a             	MOVLW	HIGH(_00530_DS_)
001a48   22fa     addwfc  0xfa, 0x1, 0     	ADDWFC	PCLATH, F
001a4a   0e00     movlw   0                	MOVLW	UPPER(_00530_DS_)
001a4c   22fb     addwfc  0xfb, 0x1, 0     	ADDWFC	PCLATU, F
001a4e   50e4     movf    0xe4, 0, 0       	MOVF	PREINC1, W
001a50   6ef9     movwf   0xf9, 0          	MOVWF	PCL
                                           _00530_DS_:
001a52   ef33     goto    0x1a66           	GOTO	_00258_DS_
001a54   f00d
001a56   ef81     goto    0x1b02           	GOTO	_00270_DS_
001a58   f00d
001a5a   ef38     goto    0x1a70           	GOTO	_00259_DS_
001a5c   f00d
001a5e   efc8     goto    0x1b90           	GOTO	_00280_DS_
001a60   f00d
001a62   ef0a     goto    0x1c14           	GOTO	_00291_DS_
001a64   f00e
                                           _00258_DS_:
                                           ;	.line	383; meter_logger.c	T0CONbits.TMR0ON = 0;			// Stop TMR0
001a66   9ed5     bcf     0xd5, 0x7, 0     	BCF	_T0CONbits, 7
001a68   0100     movlb   0                	BANKSEL	_testo_ir_proto
                                           ;	.line	384; meter_logger.c	testo_ir_proto.state = INIT_STATE;
001a6a   6bf0     clrf    0xf0, 0x1        	CLRF	_testo_ir_proto, B
001a6c   0003     sleep                    	sleep 
                                           ;	.line	386; meter_logger.c	break;
001a6e   d129     bra     0x1cc2           	BRA	_00307_DS_
                                           _00259_DS_:
                                           ;	.line	388; meter_logger.c	switch (rs232_proto.state) {
001a70   c0f6     movff   0xf6, 0          	MOVFF	_rs232_proto, r0x00
001a72   f000
001a74   5000     movf    0, 0, 0          	MOVF	r0x00, W
001a76   6e01     movwf   0x1, 0           	MOVWF	r0x01
001a78   5001     movf    0x1, 0, 0        	MOVF	r0x01, W
001a7a   e00a     bz      0x1a90           	BZ	_00260_DS_
001a7c   5000     movf    0, 0, 0          	MOVF	r0x00, W
001a7e   0a03     xorlw   0x3              	XORLW	0x03
001a80   e011     bz      0x1aa4           	BZ	_00263_DS_
001a82   5000     movf    0, 0, 0          	MOVF	r0x00, W
001a84   0a09     xorlw   0x9              	XORLW	0x09
001a86   e033     bz      0x1aee           	BZ	_00267_DS_
001a88   5000     movf    0, 0, 0          	MOVF	r0x00, W
001a8a   0a0a     xorlw   0xa              	XORLW	0x0a
001a8c   e035     bz      0x1af8           	BZ	_00268_DS_
001a8e   d119     bra     0x1cc2           	BRA	_00307_DS_
                                           _00260_DS_:
001a90   0100     movlb   0                	BANKSEL	(_rs232_proto + 3)
                                           ;	.line	390; meter_logger.c	if (rs232_proto.data_len == 8) {
001a92   51f9     movf    0xf9, 0, 0x1     	MOVF	(_rs232_proto + 3), W, B
001a94   0a08     xorlw   0x8              	XORLW	0x08
001a96   e001     bz      0x1a9a           	BZ	_00540_DS_
001a98   d114     bra     0x1cc2           	BRA	_00307_DS_
                                           _00540_DS_:
                                           ;	.line	391; meter_logger.c	IR_LED_PIN = 1;		// inverted rs232 output on ir, start bit = ir light
001a9a   8281     bsf     0x81, 0x1, 0     	BSF	_PORTBbits, 1
                                           ;	.line	392; meter_logger.c	rs232_proto.state = START_BIT_SENT;
001a9c   0e03     movlw   0x3              	MOVLW	0x03
001a9e   0100     movlb   0                	BANKSEL	_rs232_proto
001aa0   6ff6     movwf   0xf6, 0x1        	MOVWF	_rs232_proto, B
                                           ;	.line	394; meter_logger.c	break;
001aa2   d10f     bra     0x1cc2           	BRA	_00307_DS_
                                           _00263_DS_:
                                           ;	.line	396; meter_logger.c	if (rs232_proto.data_len >= 1) {
001aa4   0e01     movlw   0x1              	MOVLW	0x01
001aa6   0100     movlb   0                	BANKSEL	(_rs232_proto + 3)
001aa8   5df9     subwf   0xf9, 0, 0x1     	SUBWF	(_rs232_proto + 3), W, B
001aaa   e31c     bnc     0x1ae4           	BNC	_00265_DS_
                                           ;	.line	397; meter_logger.c	IR_LED_PIN = (rs232_proto.data & 1) == 0;	// inverted rs232 output on ir
001aac   0e01     movlw   0x1              	MOVLW	0x01
                                           ; removed redundant BANKSEL
001aae   15f8     andwf   0xf8, 0, 0x1     	ANDWF	(_rs232_proto + 2), W, B
001ab0   6e00     movwf   0, 0             	MOVWF	r0x00
001ab2   5000     movf    0, 0, 0          	MOVF	r0x00, W
001ab4   80d8     bsf     0xd8, 0, 0       	BSF	STATUS, 0
001ab6   66e8     tstfsz  0xe8, 0          	TSTFSZ	WREG
001ab8   90d8     bcf     0xd8, 0, 0       	BCF	STATUS, 0
001aba   6a00     clrf    0, 0             	CLRF	r0x00
001abc   3600     rlcf    0, 0x1, 0        	RLCF	r0x00, F
001abe   5000     movf    0, 0, 0          	MOVF	r0x00, W
001ac0   0b01     andlw   0x1              	ANDLW	0x01
001ac2   44e8     rlncf   0xe8, 0, 0       	RLNCF	WREG, W
001ac4   6ef4     movwf   0xf4, 0          	MOVWF	PRODH
001ac6   5081     movf    0x81, 0, 0       	MOVF	_PORTBbits, W
001ac8   0bfd     andlw   0xfd             	ANDLW	0xfd
001aca   10f4     iorwf   0xf4, 0, 0       	IORWF	PRODH, W
001acc   6e81     movwf   0x81, 0          	MOVWF	_PORTBbits
                                           ; removed redundant BANKSEL
                                           ;	.line	398; meter_logger.c	rs232_proto.data = rs232_proto.data >> 1;
001ace   41f8     rrncf   0xf8, 0, 0x1     	RRNCF	(_rs232_proto + 2), W, B
001ad0   0b7f     andlw   0x7f             	ANDLW	0x7f
001ad2   6e00     movwf   0, 0             	MOVWF	r0x00
001ad4   5000     movf    0, 0, 0          	MOVF	r0x00, W
                                           ; removed redundant BANKSEL
001ad6   6ff8     movwf   0xf8, 0x1        	MOVWF	(_rs232_proto + 2), B
                                           ;	.line	399; meter_logger.c	rs232_proto.data_len--;
001ad8   c0f9     movff   0xf9, 0          	MOVFF	(_rs232_proto + 3), r0x00
001ada   f000
001adc   0600     decf    0, 0x1, 0        	DECF	r0x00, F
001ade   5000     movf    0, 0, 0          	MOVF	r0x00, W
                                           ; removed redundant BANKSEL
001ae0   6ff9     movwf   0xf9, 0x1        	MOVWF	(_rs232_proto + 3), B
001ae2   d0ef     bra     0x1cc2           	BRA	_00307_DS_
                                           _00265_DS_:
                                           ;	.line	402; meter_logger.c	IR_LED_PIN = 0;								// inverted rs232 output on ir					
001ae4   9281     bcf     0x81, 0x1, 0     	BCF	_PORTBbits, 1
                                           ;	.line	403; meter_logger.c	rs232_proto.state = STOP_BIT_SENT;
001ae6   0e09     movlw   0x9              	MOVLW	0x09
001ae8   0100     movlb   0                	BANKSEL	_rs232_proto
001aea   6ff6     movwf   0xf6, 0x1        	MOVWF	_rs232_proto, B
                                           ;	.line	405; meter_logger.c	break;
001aec   d0ea     bra     0x1cc2           	BRA	_00307_DS_
                                           _00267_DS_:
                                           ;	.line	407; meter_logger.c	IR_LED_PIN = 0;									// inverted rs232 output on ir
001aee   9281     bcf     0x81, 0x1, 0     	BCF	_PORTBbits, 1
                                           ;	.line	408; meter_logger.c	rs232_proto.state = STOP_BIT2_SENT;
001af0   0e0a     movlw   0xa              	MOVLW	0x0a
001af2   0100     movlb   0                	BANKSEL	_rs232_proto
001af4   6ff6     movwf   0xf6, 0x1        	MOVWF	_rs232_proto, B
                                           ;	.line	409; meter_logger.c	break;
001af6   d0e5     bra     0x1cc2           	BRA	_00307_DS_
                                           _00268_DS_:
                                           ;	.line	411; meter_logger.c	IR_LED_PIN = 0;									// inverted rs232 output on ir
001af8   9281     bcf     0x81, 0x1, 0     	BCF	_PORTBbits, 1
001afa   0100     movlb   0                	BANKSEL	_rs232_proto
                                           ;	.line	412; meter_logger.c	rs232_proto.state = INIT_STATE;
001afc   6bf6     clrf    0xf6, 0x1        	CLRF	_rs232_proto, B
                                           ;	.line	413; meter_logger.c	T0CONbits.TMR0ON = 0;							// stop timer 0
001afe   9ed5     bcf     0xd5, 0x7, 0     	BCF	_T0CONbits, 7
                                           ;	.line	416; meter_logger.c	break;
001b00   d0e0     bra     0x1cc2           	BRA	_00307_DS_
                                           _00270_DS_:
                                           ;	.line	418; meter_logger.c	switch (rs232_proto.state) {
001b02   c0f6     movff   0xf6, 0          	MOVFF	_rs232_proto, r0x00
001b04   f000
001b06   5000     movf    0, 0, 0          	MOVF	r0x00, W
001b08   0a04     xorlw   0x4              	XORLW	0x04
001b0a   e004     bz      0x1b14           	BZ	_00271_DS_
001b0c   5000     movf    0, 0, 0          	MOVF	r0x00, W
001b0e   0a07     xorlw   0x7              	XORLW	0x07
001b10   e030     bz      0x1b72           	BZ	_00278_DS_
001b12   d0d7     bra     0x1cc2           	BRA	_00307_DS_
                                           _00271_DS_:
                                           ;	.line	420; meter_logger.c	rs232_proto.data_len++;
001b14   c0f9     movff   0xf9, 0          	MOVFF	(_rs232_proto + 3), r0x00
001b16   f000
001b18   2a00     incf    0, 0x1, 0        	INCF	r0x00, F
001b1a   5000     movf    0, 0, 0          	MOVF	r0x00, W
001b1c   0100     movlb   0                	BANKSEL	(_rs232_proto + 3)
001b1e   6ff9     movwf   0xf9, 0x1        	MOVWF	(_rs232_proto + 3), B
                                           ;	.line	421; meter_logger.c	if (rs232_proto.data_len <= 8) {
001b20   0e09     movlw   0x9              	MOVLW	0x09
                                           ; removed redundant BANKSEL
001b22   5df9     subwf   0xf9, 0, 0x1     	SUBWF	(_rs232_proto + 3), W, B
001b24   e222     bc      0x1b6a           	BC	_00276_DS_
                                           ;	.line	422; meter_logger.c	if (IR_PIN) {		
001b26   a081     btfss   0x81, 0, 0       	BTFSS	_PORTBbits, 0
001b28   d00a     bra     0x1b3e           	BRA	_00273_DS_
                                           ; removed redundant BANKSEL
                                           ;	.line	424; meter_logger.c	rs232_proto.data >>= 1;
001b2a   41f8     rrncf   0xf8, 0, 0x1     	RRNCF	(_rs232_proto + 2), W, B
001b2c   0b7f     andlw   0x7f             	ANDLW	0x7f
001b2e   6e00     movwf   0, 0             	MOVWF	r0x00
001b30   5000     movf    0, 0, 0          	MOVF	r0x00, W
                                           ; removed redundant BANKSEL
001b32   6ff8     movwf   0xf8, 0x1        	MOVWF	(_rs232_proto + 2), B
                                           ;	.line	426; meter_logger.c	DEBUG3_PIN = 1;
001b34   8881     bsf     0x81, 0x4, 0     	BSF	_PORTBbits, 4
001b36   0000     nop                      	nop
001b38   0000     nop                      	nop
                                           	
                                           ;	.line	431; meter_logger.c	DEBUG3_PIN = 0;
001b3a   9881     bcf     0x81, 0x4, 0     	BCF	_PORTBbits, 4
001b3c   d0c2     bra     0x1cc2           	BRA	_00307_DS_
                                           _00273_DS_:
001b3e   0100     movlb   0                	BANKSEL	(_rs232_proto + 2)
                                           ;	.line	435; meter_logger.c	rs232_proto.data >>= 1;
001b40   41f8     rrncf   0xf8, 0, 0x1     	RRNCF	(_rs232_proto + 2), W, B
001b42   0b7f     andlw   0x7f             	ANDLW	0x7f
001b44   6e00     movwf   0, 0             	MOVWF	r0x00
001b46   5000     movf    0, 0, 0          	MOVF	r0x00, W
                                           ; removed redundant BANKSEL
001b48   6ff8     movwf   0xf8, 0x1        	MOVWF	(_rs232_proto + 2), B
                                           ;	.line	436; meter_logger.c	rs232_proto.data |= 0x80;
001b4a   0e80     movlw   0x80             	MOVLW	0x80
                                           ; removed redundant BANKSEL
001b4c   11f8     iorwf   0xf8, 0, 0x1     	IORWF	(_rs232_proto + 2), W, B
001b4e   6e00     movwf   0, 0             	MOVWF	r0x00
001b50   5000     movf    0, 0, 0          	MOVF	r0x00, W
                                           ; removed redundant BANKSEL
001b52   6ff8     movwf   0xf8, 0x1        	MOVWF	(_rs232_proto + 2), B
                                           ;	.line	438; meter_logger.c	DEBUG3_PIN = 1;
001b54   8881     bsf     0x81, 0x4, 0     	BSF	_PORTBbits, 4
001b56   0000     nop                      	nop
001b58   0000     nop                      	nop
                                           	
                                           ;	.line	443; meter_logger.c	DEBUG3_PIN = 0;
001b5a   9881     bcf     0x81, 0x4, 0     	BCF	_PORTBbits, 4
001b5c   0000     nop                      	nop
001b5e   0000     nop                      	nop
                                           	
                                           ;	.line	448; meter_logger.c	DEBUG3_PIN = 1;
001b60   8881     bsf     0x81, 0x4, 0     	BSF	_PORTBbits, 4
001b62   0000     nop                      	nop
001b64   0000     nop                      	nop
                                           	
                                           ;	.line	453; meter_logger.c	DEBUG3_PIN = 0;
001b66   9881     bcf     0x81, 0x4, 0     	BCF	_PORTBbits, 4
001b68   d0ac     bra     0x1cc2           	BRA	_00307_DS_
                                           _00276_DS_:
                                           ;	.line	457; meter_logger.c	rs232_proto.state = STOP_BIT_WAIT;
001b6a   0e07     movlw   0x7              	MOVLW	0x07
001b6c   0100     movlb   0                	BANKSEL	_rs232_proto
001b6e   6ff6     movwf   0xf6, 0x1        	MOVWF	_rs232_proto, B
                                           ;	.line	459; meter_logger.c	break;
001b70   d0a8     bra     0x1cc2           	BRA	_00307_DS_
                                           _00278_DS_:
001b72   0100     movlb   0                	BANKSEL	(_rs232_proto + 2)
                                           ;	.line	465; meter_logger.c	fifo_put(rs232_proto.data);
001b74   51f8     movf    0xf8, 0, 0x1     	MOVF	(_rs232_proto + 2), W, B
001b76   6ee5     movwf   0xe5, 0          	MOVWF	POSTDEC1
001b78   ec49     call    0x2c92, 0        	CALL	_fifo_put
001b7a   f016
001b7c   52e6     movf    0xe6, 0x1, 0     	MOVF	POSTINC1, F
001b7e   0100     movlb   0                	BANKSEL	(_rs232_proto + 2)
                                           ;	.line	466; meter_logger.c	rs232_proto.data = 0;
001b80   6bf8     clrf    0xf8, 0x1        	CLRF	(_rs232_proto + 2), B
                                           ; removed redundant BANKSEL
                                           ;	.line	467; meter_logger.c	rs232_proto.data_len = 0;
001b82   6bf9     clrf    0xf9, 0x1        	CLRF	(_rs232_proto + 3), B
                                           ;	.line	468; meter_logger.c	rs232_proto.state = START_BIT_WAIT;
001b84   0e02     movlw   0x2              	MOVLW	0x02
                                           ; removed redundant BANKSEL
001b86   6ff6     movwf   0xf6, 0x1        	MOVWF	_rs232_proto, B
                                           ;	.line	469; meter_logger.c	T0CONbits.TMR0ON = 0;
001b88   9ed5     bcf     0xd5, 0x7, 0     	BCF	_T0CONbits, 7
                                           ;	.line	470; meter_logger.c	INTCONbits.INT0IF = 0;		// dont enter ext int now
001b8a   92f2     bcf     0xf2, 0x1, 0     	BCF	_INTCONbits, 1
                                           ;	.line	471; meter_logger.c	INTCONbits.INT0IE = 1;		// enable ext int again
001b8c   88f2     bsf     0xf2, 0x4, 0     	BSF	_INTCONbits, 4
                                           ;	.line	474; meter_logger.c	break;
001b8e   d099     bra     0x1cc2           	BRA	_00307_DS_
                                           _00280_DS_:
                                           ;	.line	476; meter_logger.c	switch (fsk_proto.state) {
001b90   c0e0     movff   0xe0, 0          	MOVFF	_fsk_proto, r0x00
001b92   f000
001b94   5000     movf    0, 0, 0          	MOVF	r0x00, W
001b96   0a04     xorlw   0x4              	XORLW	0x04
001b98   e004     bz      0x1ba2           	BZ	_00281_DS_
001b9a   5000     movf    0, 0, 0          	MOVF	r0x00, W
001b9c   0a07     xorlw   0x7              	XORLW	0x07
001b9e   e02e     bz      0x1bfc           	BZ	_00289_DS_
001ba0   d090     bra     0x1cc2           	BRA	_00307_DS_
                                           _00281_DS_:
                                           ;	.line	478; meter_logger.c	fsk_proto.data_len++;						
001ba2   c0ed     movff   0xed, 0          	MOVFF	(_fsk_proto + 13), r0x00
001ba4   f000
001ba6   2a00     incf    0, 0x1, 0        	INCF	r0x00, F
001ba8   5000     movf    0, 0, 0          	MOVF	r0x00, W
001baa   0100     movlb   0                	BANKSEL	(_fsk_proto + 13)
001bac   6fed     movwf   0xed, 0x1        	MOVWF	(_fsk_proto + 13), B
                                           ;	.line	479; meter_logger.c	if (fsk_proto.data_len <= 8) {
001bae   0e09     movlw   0x9              	MOVLW	0x09
                                           ; removed redundant BANKSEL
001bb0   5ded     subwf   0xed, 0, 0x1     	SUBWF	(_fsk_proto + 13), W, B
001bb2   e220     bc      0x1bf4           	BC	_00287_DS_
                                           ;	.line	480; meter_logger.c	if ((fsk_proto.diff > 340) && (fsk_proto.diff < 476)) {
001bb4   0e01     movlw   0x1              	MOVLW	0x01
                                           ; removed redundant BANKSEL
001bb6   5de2     subwf   0xe2, 0, 0x1     	SUBWF	(_fsk_proto + 2), W, B
001bb8   e102     bnz     0x1bbe           	BNZ	_00554_DS_
001bba   0e55     movlw   0x55             	MOVLW	0x55
                                           ; removed redundant BANKSEL
001bbc   5de1     subwf   0xe1, 0, 0x1     	SUBWF	(_fsk_proto + 1), W, B
                                           _00554_DS_:
001bbe   e30e     bnc     0x1bdc           	BNC	_00283_DS_
001bc0   0e01     movlw   0x1              	MOVLW	0x01
001bc2   0100     movlb   0                	BANKSEL	(_fsk_proto + 2)
001bc4   5de2     subwf   0xe2, 0, 0x1     	SUBWF	(_fsk_proto + 2), W, B
001bc6   e102     bnz     0x1bcc           	BNZ	_00555_DS_
001bc8   0edc     movlw   0xdc             	MOVLW	0xdc
                                           ; removed redundant BANKSEL
001bca   5de1     subwf   0xe1, 0, 0x1     	SUBWF	(_fsk_proto + 1), W, B
                                           _00555_DS_:
001bcc   e207     bc      0x1bdc           	BC	_00283_DS_
001bce   0100     movlb   0                	BANKSEL	(_fsk_proto + 12)
                                           ;	.line	483; meter_logger.c	fsk_proto.data >>= 1;
001bd0   41ec     rrncf   0xec, 0, 0x1     	RRNCF	(_fsk_proto + 12), W, B
001bd2   0b7f     andlw   0x7f             	ANDLW	0x7f
001bd4   6e00     movwf   0, 0             	MOVWF	r0x00
001bd6   5000     movf    0, 0, 0          	MOVF	r0x00, W
                                           ; removed redundant BANKSEL
001bd8   6fec     movwf   0xec, 0x1        	MOVWF	(_fsk_proto + 12), B
001bda   d073     bra     0x1cc2           	BRA	_00307_DS_
                                           _00283_DS_:
001bdc   0100     movlb   0                	BANKSEL	(_fsk_proto + 12)
                                           ;	.line	488; meter_logger.c	fsk_proto.data >>= 1;
001bde   41ec     rrncf   0xec, 0, 0x1     	RRNCF	(_fsk_proto + 12), W, B
001be0   0b7f     andlw   0x7f             	ANDLW	0x7f
001be2   6e00     movwf   0, 0             	MOVWF	r0x00
001be4   5000     movf    0, 0, 0          	MOVF	r0x00, W
                                           ; removed redundant BANKSEL
001be6   6fec     movwf   0xec, 0x1        	MOVWF	(_fsk_proto + 12), B
                                           ;	.line	489; meter_logger.c	fsk_proto.data |= 0x80;
001be8   0e80     movlw   0x80             	MOVLW	0x80
                                           ; removed redundant BANKSEL
001bea   11ec     iorwf   0xec, 0, 0x1     	IORWF	(_fsk_proto + 12), W, B
001bec   6e00     movwf   0, 0             	MOVWF	r0x00
001bee   5000     movf    0, 0, 0          	MOVF	r0x00, W
                                           ; removed redundant BANKSEL
001bf0   6fec     movwf   0xec, 0x1        	MOVWF	(_fsk_proto + 12), B
001bf2   d067     bra     0x1cc2           	BRA	_00307_DS_
                                           _00287_DS_:
                                           ;	.line	497; meter_logger.c	fsk_proto.state = STOP_BIT_WAIT;
001bf4   0e07     movlw   0x7              	MOVLW	0x07
001bf6   0100     movlb   0                	BANKSEL	_fsk_proto
001bf8   6fe0     movwf   0xe0, 0x1        	MOVWF	_fsk_proto, B
                                           ;	.line	499; meter_logger.c	break;
001bfa   d063     bra     0x1cc2           	BRA	_00307_DS_
                                           _00289_DS_:
001bfc   0100     movlb   0                	BANKSEL	(_fsk_proto + 12)
                                           ;	.line	502; meter_logger.c	fifo_put(fsk_proto.data);
001bfe   51ec     movf    0xec, 0, 0x1     	MOVF	(_fsk_proto + 12), W, B
001c00   6ee5     movwf   0xe5, 0          	MOVWF	POSTDEC1
001c02   ec49     call    0x2c92, 0        	CALL	_fifo_put
001c04   f016
001c06   52e6     movf    0xe6, 0x1, 0     	MOVF	POSTINC1, F
001c08   0100     movlb   0                	BANKSEL	(_fsk_proto + 12)
                                           ;	.line	503; meter_logger.c	fsk_proto.data = 0;
001c0a   6bec     clrf    0xec, 0x1        	CLRF	(_fsk_proto + 12), B
                                           ;	.line	504; meter_logger.c	fsk_proto.state = START_BIT_WAIT;
001c0c   0e02     movlw   0x2              	MOVLW	0x02
                                           ; removed redundant BANKSEL
001c0e   6fe0     movwf   0xe0, 0x1        	MOVWF	_fsk_proto, B
                                           ;	.line	506; meter_logger.c	INTCONbits.TMR0IE = 0;						
001c10   9af2     bcf     0xf2, 0x5, 0     	BCF	_INTCONbits, 5
                                           ;	.line	509; meter_logger.c	break;
001c12   d057     bra     0x1cc2           	BRA	_00307_DS_
                                           _00291_DS_:
                                           ;	.line	511; meter_logger.c	switch (fsk_proto.state) {
001c14   c0e0     movff   0xe0, 0          	MOVFF	_fsk_proto, r0x00
001c16   f000
001c18   5000     movf    0, 0, 0          	MOVF	r0x00, W
001c1a   6e01     movwf   0x1, 0           	MOVWF	r0x01
001c1c   5001     movf    0x1, 0, 0        	MOVF	r0x01, W
001c1e   e00f     bz      0x1c3e           	BZ	_00292_DS_
001c20   5000     movf    0, 0, 0          	MOVF	r0x00, W
001c22   0a01     xorlw   0x1              	XORLW	0x01
001c24   e017     bz      0x1c54           	BZ	_00295_DS_
001c26   5000     movf    0, 0, 0          	MOVF	r0x00, W
001c28   0a03     xorlw   0x3              	XORLW	0x03
001c2a   e01b     bz      0x1c62           	BZ	_00296_DS_
001c2c   5000     movf    0, 0, 0          	MOVF	r0x00, W
001c2e   0a05     xorlw   0x5              	XORLW	0x05
001c30   e101     bnz     0x1c34           	BNZ	_00564_DS_
001c32   d03b     bra     0x1caa           	BRA	_00304_DS_
                                           _00564_DS_:
001c34   5000     movf    0, 0, 0          	MOVF	r0x00, W
001c36   0a09     xorlw   0x9              	XORLW	0x09
001c38   e101     bnz     0x1c3c           	BNZ	_00566_DS_
001c3a   d03e     bra     0x1cb8           	BRA	_00305_DS_
                                           _00566_DS_:
001c3c   d042     bra     0x1cc2           	BRA	_00307_DS_
                                           _00292_DS_:
                                           ;	.line	513; meter_logger.c	send_fsk_high();
001c3e   ec0e     call    0x1c, 0          	CALL	_send_fsk_high
001c40   f000
001c42   0100     movlb   0                	BANKSEL	(_fsk_proto + 13)
                                           ;	.line	514; meter_logger.c	if (fsk_proto.data_len == 8) {
001c44   51ed     movf    0xed, 0, 0x1     	MOVF	(_fsk_proto + 13), W, B
001c46   0a08     xorlw   0x8              	XORLW	0x08
001c48   e103     bnz     0x1c50           	BNZ	_00294_DS_
                                           ;	.line	515; meter_logger.c	fsk_proto.state = IDLE;
001c4a   0e01     movlw   0x1              	MOVLW	0x01
001c4c   0100     movlb   0                	BANKSEL	_fsk_proto
001c4e   6fe0     movwf   0xe0, 0x1        	MOVWF	_fsk_proto, B
                                           _00294_DS_:
                                           ;	.line	518; meter_logger.c	DEBUG_PIN = 0;
001c50   9481     bcf     0x81, 0x2, 0     	BCF	_PORTBbits, 2
                                           ;	.line	520; meter_logger.c	break;
001c52   d037     bra     0x1cc2           	BRA	_00307_DS_
                                           _00295_DS_:
                                           ;	.line	522; meter_logger.c	send_fsk_low();
001c54   ecee     call    0xbdc, 0         	CALL	_send_fsk_low
001c56   f005
                                           ;	.line	523; meter_logger.c	fsk_proto.state = START_BIT_SENT;
001c58   0e03     movlw   0x3              	MOVLW	0x03
001c5a   0100     movlb   0                	BANKSEL	_fsk_proto
001c5c   6fe0     movwf   0xe0, 0x1        	MOVWF	_fsk_proto, B
                                           ;	.line	525; meter_logger.c	DEBUG_PIN = 1;
001c5e   8481     bsf     0x81, 0x2, 0     	BSF	_PORTBbits, 2
                                           ;	.line	527; meter_logger.c	break;
001c60   d030     bra     0x1cc2           	BRA	_00307_DS_
                                           _00296_DS_:
                                           ;	.line	529; meter_logger.c	if (fsk_proto.data_len--) {
001c62   c0ed     movff   0xed, 0          	MOVFF	(_fsk_proto + 13), r0x00
001c64   f000
001c66   0400     decf    0, 0, 0          	DECF	r0x00, W
001c68   6e01     movwf   0x1, 0           	MOVWF	r0x01
001c6a   5001     movf    0x1, 0, 0        	MOVF	r0x01, W
001c6c   0100     movlb   0                	BANKSEL	(_fsk_proto + 13)
001c6e   6fed     movwf   0xed, 0x1        	MOVWF	(_fsk_proto + 13), B
001c70   5000     movf    0, 0, 0          	MOVF	r0x00, W
001c72   e015     bz      0x1c9e           	BZ	_00301_DS_
                                           ;	.line	530; meter_logger.c	if (fsk_proto.data & (0x80 >> fsk_proto.data_len)) {
001c74   0e80     movlw   0x80             	MOVLW	0x80
001c76   6e00     movwf   0, 0             	MOVWF	r0x00
                                           ; removed redundant BANKSEL
001c78   51ed     movf    0xed, 0, 0x1     	MOVF	(_fsk_proto + 13), W, B
001c7a   e005     bz      0x1c86           	BZ	_00569_DS_
001c7c   6ce8     negf    0xe8, 0          	NEGF	WREG
001c7e   90d8     bcf     0xd8, 0, 0       	BCF	STATUS, 0
                                           _00570_DS_:
001c80   3200     rrcf    0, 0x1, 0        	RRCF	r0x00, F
001c82   0f01     addlw   0x1              	ADDLW	0x01
001c84   e3fd     bnc     0x1c80           	BNC	_00570_DS_
                                           _00569_DS_:
001c86   0100     movlb   0                	BANKSEL	(_fsk_proto + 12)
001c88   51ec     movf    0xec, 0, 0x1     	MOVF	(_fsk_proto + 12), W, B
001c8a   1600     andwf   0, 0x1, 0        	ANDWF	r0x00, F
001c8c   5000     movf    0, 0, 0          	MOVF	r0x00, W
001c8e   e004     bz      0x1c98           	BZ	_00298_DS_
                                           ;	.line	531; meter_logger.c	send_fsk_high();
001c90   ec0e     call    0x1c, 0          	CALL	_send_fsk_high
001c92   f000
                                           ;	.line	533; meter_logger.c	DEBUG_PIN = 0;
001c94   9481     bcf     0x81, 0x2, 0     	BCF	_PORTBbits, 2
001c96   d003     bra     0x1c9e           	BRA	_00301_DS_
                                           _00298_DS_:
                                           ;	.line	537; meter_logger.c	send_fsk_low();
001c98   ecee     call    0xbdc, 0         	CALL	_send_fsk_low
001c9a   f005
                                           ;	.line	539; meter_logger.c	DEBUG_PIN = 1;
001c9c   8481     bsf     0x81, 0x2, 0     	BSF	_PORTBbits, 2
                                           _00301_DS_:
001c9e   0100     movlb   0                	BANKSEL	(_fsk_proto + 13)
                                           ;	.line	543; meter_logger.c	if (fsk_proto.data_len == 0) {
001ca0   51ed     movf    0xed, 0, 0x1     	MOVF	(_fsk_proto + 13), W, B
001ca2   e10f     bnz     0x1cc2           	BNZ	_00307_DS_
                                           ;	.line	544; meter_logger.c	fsk_proto.state = DATA_SENT;
001ca4   0e05     movlw   0x5              	MOVLW	0x05
                                           ; removed redundant BANKSEL
001ca6   6fe0     movwf   0xe0, 0x1        	MOVWF	_fsk_proto, B
                                           ;	.line	546; meter_logger.c	break;
001ca8   d00c     bra     0x1cc2           	BRA	_00307_DS_
                                           _00304_DS_:
                                           ;	.line	548; meter_logger.c	send_fsk_high();
001caa   ec0e     call    0x1c, 0          	CALL	_send_fsk_high
001cac   f000
                                           ;	.line	549; meter_logger.c	fsk_proto.state = STOP_BIT_SENT;
001cae   0e09     movlw   0x9              	MOVLW	0x09
001cb0   0100     movlb   0                	BANKSEL	_fsk_proto
001cb2   6fe0     movwf   0xe0, 0x1        	MOVWF	_fsk_proto, B
                                           ;	.line	551; meter_logger.c	DEBUG_PIN = 0;
001cb4   9481     bcf     0x81, 0x2, 0     	BCF	_PORTBbits, 2
                                           ;	.line	553; meter_logger.c	break;
001cb6   d005     bra     0x1cc2           	BRA	_00307_DS_
                                           _00305_DS_:
                                           ;	.line	555; meter_logger.c	send_fsk_high();
001cb8   ec0e     call    0x1c, 0          	CALL	_send_fsk_high
001cba   f000
001cbc   0100     movlb   0                	BANKSEL	_fsk_proto
                                           ;	.line	556; meter_logger.c	fsk_proto.state = INIT_STATE;
001cbe   6be0     clrf    0xe0, 0x1        	CLRF	_fsk_proto, B
                                           ;	.line	558; meter_logger.c	DEBUG_PIN = 0;
001cc0   9481     bcf     0x81, 0x2, 0     	BCF	_PORTBbits, 2
                                           _00307_DS_:
                                           ;	.line	565; meter_logger.c	INTCONbits.TMR0IF = 0;
001cc2   94f2     bcf     0xf2, 0x2, 0     	BCF	_INTCONbits, 2
                                           _00309_DS_:
                                           ;	.line	568; meter_logger.c	if (PIR2bits.CMIF && PIE2bits.CMIE) {
001cc4   aca1     btfss   0xa1, 0x6, 0     	BTFSS	_PIR2bits, 6
001cc6   d076     bra     0x1db4           	BRA	_00328_DS_
001cc8   aca0     btfss   0xa0, 0x6, 0     	BTFSS	_PIE2bits, 6
001cca   d074     bra     0x1db4           	BRA	_00328_DS_
                                           ;	.line	570; meter_logger.c	if (CMCONbits.C1OUT) {		// rising edge
001ccc   acb4     btfss   0xb4, 0x6, 0     	BTFSS	_CMCONbits, 6
001cce   d070     bra     0x1db0           	BRA	_00323_DS_
                                           ;	.line	571; meter_logger.c	timer_0 = (unsigned int)(TMR0L) | ((unsigned int)(TMR0H) << 8);
001cd0   cfd6     movff   0xfd6, 0         	MOVFF	_TMR0L, r0x00
001cd2   f000
001cd4   6a01     clrf    0x1, 0           	CLRF	r0x01
001cd6   cfd7     movff   0xfd7, 0x2       	MOVFF	_TMR0H, r0x02
001cd8   f002
001cda   6a03     clrf    0x3, 0           	CLRF	r0x03
001cdc   5002     movf    0x2, 0, 0        	MOVF	r0x02, W
001cde   6e05     movwf   0x5, 0           	MOVWF	r0x05
001ce0   6a04     clrf    0x4, 0           	CLRF	r0x04
001ce2   5004     movf    0x4, 0, 0        	MOVF	r0x04, W
001ce4   1000     iorwf   0, 0, 0          	IORWF	r0x00, W
001ce6   0105     movlb   0x5              	BANKSEL	_timer_0
001ce8   6f18     movwf   0x18, 0x1        	MOVWF	_timer_0, B
001cea   5005     movf    0x5, 0, 0        	MOVF	r0x05, W
001cec   1001     iorwf   0x1, 0, 0        	IORWF	r0x01, W
                                           ; removed redundant BANKSEL
001cee   6f19     movwf   0x19, 0x1        	MOVWF	(_timer_0 + 1), B
                                           ;	.line	576; meter_logger.c	DEBUG_PIN = 1;
001cf0   8481     bsf     0x81, 0x2, 0     	BSF	_PORTBbits, 2
001cf2   0105     movlb   0x5              	BANKSEL	_last_timer_0
                                           ;	.line	578; meter_logger.c	fsk_proto.diff = timer_0 - last_timer_0;
001cf4   511c     movf    0x1c, 0, 0x1     	MOVF	_last_timer_0, W, B
001cf6   0105     movlb   0x5              	BANKSEL	_timer_0
001cf8   5d18     subwf   0x18, 0, 0x1     	SUBWF	_timer_0, W, B
001cfa   6e00     movwf   0, 0             	MOVWF	r0x00
001cfc   0105     movlb   0x5              	BANKSEL	(_last_timer_0 + 1)
001cfe   511d     movf    0x1d, 0, 0x1     	MOVF	(_last_timer_0 + 1), W, B
001d00   0105     movlb   0x5              	BANKSEL	(_timer_0 + 1)
001d02   5919     subwfb  0x19, 0, 0x1     	SUBWFB	(_timer_0 + 1), W, B
001d04   6e01     movwf   0x1, 0           	MOVWF	r0x01
001d06   5000     movf    0, 0, 0          	MOVF	r0x00, W
001d08   0100     movlb   0                	BANKSEL	(_fsk_proto + 1)
001d0a   6fe1     movwf   0xe1, 0x1        	MOVWF	(_fsk_proto + 1), B
001d0c   5001     movf    0x1, 0, 0        	MOVF	r0x01, W
                                           ; removed redundant BANKSEL
001d0e   6fe2     movwf   0xe2, 0x1        	MOVWF	(_fsk_proto + 2), B
                                           ;	.line	579; meter_logger.c	last_timer_0 = timer_0;
001d10   c518     movff   0x518, 0x51c     	MOVFF	_timer_0, _last_timer_0
001d12   f51c
001d14   c519     movff   0x519, 0x51d     	MOVFF	(_timer_0 + 1), (_last_timer_0 + 1)
001d16   f51d
                                           ;	.line	581; meter_logger.c	if ((fsk_proto.diff > 340) && (fsk_proto.diff < 476)) {
001d18   0e01     movlw   0x1              	MOVLW	0x01
                                           ; removed redundant BANKSEL
001d1a   5de2     subwf   0xe2, 0, 0x1     	SUBWF	(_fsk_proto + 2), W, B
001d1c   e102     bnz     0x1d22           	BNZ	_00572_DS_
001d1e   0e55     movlw   0x55             	MOVLW	0x55
                                           ; removed redundant BANKSEL
001d20   5de1     subwf   0xe1, 0, 0x1     	SUBWF	(_fsk_proto + 1), W, B
                                           _00572_DS_:
001d22   e330     bnc     0x1d84           	BNC	_00319_DS_
001d24   0e01     movlw   0x1              	MOVLW	0x01
001d26   0100     movlb   0                	BANKSEL	(_fsk_proto + 2)
001d28   5de2     subwf   0xe2, 0, 0x1     	SUBWF	(_fsk_proto + 2), W, B
001d2a   e102     bnz     0x1d30           	BNZ	_00573_DS_
001d2c   0edc     movlw   0xdc             	MOVLW	0xdc
                                           ; removed redundant BANKSEL
001d2e   5de1     subwf   0xe1, 0, 0x1     	SUBWF	(_fsk_proto + 1), W, B
                                           _00573_DS_:
001d30   e229     bc      0x1d84           	BC	_00319_DS_
001d32   0100     movlb   0                	BANKSEL	(_fsk_proto + 1)
                                           ;	.line	582; meter_logger.c	fsk_proto.low_count += fsk_proto.diff;
001d34   51e1     movf    0xe1, 0, 0x1     	MOVF	(_fsk_proto + 1), W, B
                                           ; removed redundant BANKSEL
001d36   25e5     addwf   0xe5, 0, 0x1     	ADDWF	(_fsk_proto + 5), W, B
001d38   6e00     movwf   0, 0             	MOVWF	r0x00
                                           ; removed redundant BANKSEL
001d3a   51e2     movf    0xe2, 0, 0x1     	MOVF	(_fsk_proto + 2), W, B
                                           ; removed redundant BANKSEL
001d3c   21e6     addwfc  0xe6, 0, 0x1     	ADDWFC	(_fsk_proto + 6), W, B
001d3e   6e01     movwf   0x1, 0           	MOVWF	r0x01
001d40   5000     movf    0, 0, 0          	MOVF	r0x00, W
                                           ; removed redundant BANKSEL
001d42   6fe5     movwf   0xe5, 0x1        	MOVWF	(_fsk_proto + 5), B
001d44   5001     movf    0x1, 0, 0        	MOVF	r0x01, W
                                           ; removed redundant BANKSEL
001d46   6fe6     movwf   0xe6, 0x1        	MOVWF	(_fsk_proto + 6), B
                                           ; removed redundant BANKSEL
                                           ;	.line	583; meter_logger.c	if (fsk_proto.state == START_BIT_WAIT) {
001d48   51e0     movf    0xe0, 0, 0x1     	MOVF	_fsk_proto, W, B
001d4a   0a02     xorlw   0x2              	XORLW	0x02
001d4c   e132     bnz     0x1db2           	BNZ	_00324_DS_
                                           ;	.line	584; meter_logger.c	if (fsk_proto.low_count >= 800) {								// start bit received
001d4e   0e03     movlw   0x3              	MOVLW	0x03
001d50   0100     movlb   0                	BANKSEL	(_fsk_proto + 6)
001d52   5de6     subwf   0xe6, 0, 0x1     	SUBWF	(_fsk_proto + 6), W, B
001d54   e102     bnz     0x1d5a           	BNZ	_00576_DS_
001d56   0e20     movlw   0x20             	MOVLW	0x20
                                           ; removed redundant BANKSEL
001d58   5de5     subwf   0xe5, 0, 0x1     	SUBWF	(_fsk_proto + 5), W, B
                                           _00576_DS_:
001d5a   e32b     bnc     0x1db2           	BNC	_00324_DS_
001d5c   0105     movlb   0x5              	BANKSEL	(_timer0_reload + 1)
                                           ;	.line	586; meter_logger.c	TMR0H = (unsigned char)(timer0_reload >> 8);
001d5e   511b     movf    0x1b, 0, 0x1     	MOVF	(_timer0_reload + 1), W, B
001d60   6e00     movwf   0, 0             	MOVWF	r0x00
001d62   6a01     clrf    0x1, 0           	CLRF	r0x01
001d64   5000     movf    0, 0, 0          	MOVF	r0x00, W
001d66   6ed7     movwf   0xd7, 0          	MOVWF	_TMR0H
                                           ; removed redundant BANKSEL
                                           ;	.line	587; meter_logger.c	TMR0L = (unsigned char)timer0_reload;
001d68   511a     movf    0x1a, 0, 0x1     	MOVF	_timer0_reload, W, B
001d6a   6ed6     movwf   0xd6, 0          	MOVWF	_TMR0L
001d6c   0100     movlb   0                	BANKSEL	(_fsk_proto + 5)
                                           ;	.line	588; meter_logger.c	fsk_proto.low_count = 0;
001d6e   6be5     clrf    0xe5, 0x1        	CLRF	(_fsk_proto + 5), B
                                           ; removed redundant BANKSEL
001d70   6be6     clrf    0xe6, 0x1        	CLRF	(_fsk_proto + 6), B
                                           ; removed redundant BANKSEL
                                           ;	.line	589; meter_logger.c	fsk_proto.high_count = 0;
001d72   6be7     clrf    0xe7, 0x1        	CLRF	(_fsk_proto + 7), B
                                           ; removed redundant BANKSEL
001d74   6be8     clrf    0xe8, 0x1        	CLRF	(_fsk_proto + 8), B
                                           ; removed redundant BANKSEL
                                           ;	.line	591; meter_logger.c	fsk_proto.data_len = 0;
001d76   6bed     clrf    0xed, 0x1        	CLRF	(_fsk_proto + 13), B
                                           ; removed redundant BANKSEL
                                           ;	.line	592; meter_logger.c	fsk_proto.data = 0;
001d78   6bec     clrf    0xec, 0x1        	CLRF	(_fsk_proto + 12), B
                                           ;	.line	593; meter_logger.c	fsk_proto.state = DATA_WAIT;
001d7a   0e04     movlw   0x4              	MOVLW	0x04
                                           ; removed redundant BANKSEL
001d7c   6fe0     movwf   0xe0, 0x1        	MOVWF	_fsk_proto, B
                                           ;	.line	594; meter_logger.c	INTCONbits.TMR0IF = 0;		// clear flag so it dont enter isr now
001d7e   94f2     bcf     0xf2, 0x2, 0     	BCF	_INTCONbits, 2
                                           ;	.line	595; meter_logger.c	INTCONbits.TMR0IE = 1;		// Enable TMR0 Interrupt
001d80   8af2     bsf     0xf2, 0x5, 0     	BSF	_INTCONbits, 5
001d82   d017     bra     0x1db2           	BRA	_00324_DS_
                                           _00319_DS_:
001d84   0100     movlb   0                	BANKSEL	_fsk_proto
                                           ;	.line	601; meter_logger.c	if (fsk_proto.state == START_BIT_WAIT) {
001d86   51e0     movf    0xe0, 0, 0x1     	MOVF	_fsk_proto, W, B
001d88   0a02     xorlw   0x2              	XORLW	0x02
001d8a   e106     bnz     0x1d98           	BNZ	_00316_DS_
                                           _00578_DS_:
001d8c   0100     movlb   0                	BANKSEL	(_fsk_proto + 5)
                                           ;	.line	602; meter_logger.c	fsk_proto.low_count = 0;
001d8e   6be5     clrf    0xe5, 0x1        	CLRF	(_fsk_proto + 5), B
                                           ; removed redundant BANKSEL
001d90   6be6     clrf    0xe6, 0x1        	CLRF	(_fsk_proto + 6), B
                                           ; removed redundant BANKSEL
                                           ;	.line	603; meter_logger.c	fsk_proto.high_count = 0;
001d92   6be7     clrf    0xe7, 0x1        	CLRF	(_fsk_proto + 7), B
                                           ; removed redundant BANKSEL
001d94   6be8     clrf    0xe8, 0x1        	CLRF	(_fsk_proto + 8), B
001d96   d00d     bra     0x1db2           	BRA	_00324_DS_
                                           _00316_DS_:
001d98   0100     movlb   0                	BANKSEL	(_fsk_proto + 1)
                                           ;	.line	606; meter_logger.c	fsk_proto.high_count += fsk_proto.diff;
001d9a   51e1     movf    0xe1, 0, 0x1     	MOVF	(_fsk_proto + 1), W, B
                                           ; removed redundant BANKSEL
001d9c   25e7     addwf   0xe7, 0, 0x1     	ADDWF	(_fsk_proto + 7), W, B
001d9e   6e00     movwf   0, 0             	MOVWF	r0x00
                                           ; removed redundant BANKSEL
001da0   51e2     movf    0xe2, 0, 0x1     	MOVF	(_fsk_proto + 2), W, B
                                           ; removed redundant BANKSEL
001da2   21e8     addwfc  0xe8, 0, 0x1     	ADDWFC	(_fsk_proto + 8), W, B
001da4   6e01     movwf   0x1, 0           	MOVWF	r0x01
001da6   5000     movf    0, 0, 0          	MOVF	r0x00, W
                                           ; removed redundant BANKSEL
001da8   6fe7     movwf   0xe7, 0x1        	MOVWF	(_fsk_proto + 7), B
001daa   5001     movf    0x1, 0, 0        	MOVF	r0x01, W
                                           ; removed redundant BANKSEL
001dac   6fe8     movwf   0xe8, 0x1        	MOVWF	(_fsk_proto + 8), B
001dae   d001     bra     0x1db2           	BRA	_00324_DS_
                                           _00323_DS_:
                                           ;	.line	612; meter_logger.c	DEBUG_PIN = 0;
001db0   9481     bcf     0x81, 0x2, 0     	BCF	_PORTBbits, 2
                                           _00324_DS_:
                                           ;	.line	616; meter_logger.c	PIR2bits.CMIF = 0;
001db2   9ca1     bcf     0xa1, 0x6, 0     	BCF	_PIR2bits, 6
                                           _00328_DS_:
001db4   cfe4     movff   0xfe4, 0x5       	MOVFF	PREINC1, r0x05
001db6   f005
001db8   cfe4     movff   0xfe4, 0x4       	MOVFF	PREINC1, r0x04
001dba   f004
001dbc   cfe4     movff   0xfe4, 0x3       	MOVFF	PREINC1, r0x03
001dbe   f003
001dc0   cfe4     movff   0xfe4, 0x2       	MOVFF	PREINC1, r0x02
001dc2   f002
001dc4   cfe4     movff   0xfe4, 0x1       	MOVFF	PREINC1, r0x01
001dc6   f001
001dc8   cfe4     movff   0xfe4, 0         	MOVFF	PREINC1, r0x00
001dca   f000
001dcc   cfe4     movff   0xfe4, 0xfd9     	MOVFF	PREINC1, FSR2L
001dce   ffd9
001dd0   cfe4     movff   0xfe4, 0xffb     	MOVFF	PREINC1, PCLATU
001dd2   fffb
001dd4   cfe4     movff   0xfe4, 0xffa     	MOVFF	PREINC1, PCLATH
001dd6   fffa
001dd8   cfe4     movff   0xfe4, 0xfea     	MOVFF	PREINC1, FSR0H
001dda   ffea
001ddc   cfe4     movff   0xfe4, 0xfe9     	MOVFF	PREINC1, FSR0L
001dde   ffe9
001de0   cfe4     movff   0xfe4, 0xff4     	MOVFF	PREINC1, PRODH
001de2   fff4
001de4   cfe4     movff   0xfe4, 0xff3     	MOVFF	PREINC1, PRODL
001de6   fff3
001de8   50e4     movf    0xe4, 0, 0       	MOVF	PREINC1, W
001dea   cfe4     movff   0xfe4, 0xfe0     	MOVFF	PREINC1, BSR
001dec   ffe0
001dee   cfe4     movff   0xfe4, 0xfd8     	MOVFF	PREINC1, STATUS
001df0   ffd8
001df2   0010     retfie  0                	RETFIE	
                                           
                                           ; ; Starting pCode block
                                           ___str_0:
001df4   0d0a     mullw   0xa              	DB	0x0a, 0x0d, 0x4d, 0x65, 0x74, 0x65, 0x72, 0x4c, 0x6f, 0x67, 0x67, 0x65
001df6   654d     cpfsgt  0x4d, 0x1        
001df8   6574     cpfsgt  0x74, 0x1        
001dfa   4c72     dcfsnz  0x72, 0, 0       
001dfc   676f     tstfsz  0x6f, 0x1        
001dfe   6567     cpfsgt  0x67, 0x1        
001e00   2e72     decfsz  0x72, 0x1, 0     	DB	0x72, 0x2e, 0x2e, 0x2e, 0x20, 0x73, 0x65, 0x72, 0x69, 0x61, 0x6c, 0x20
001e02   2e2e     decfsz  0x2e, 0x1, 0     
001e04   7320     btg     0x20, 0x1, 0x1   
001e06   7265     btg     0x65, 0x1, 0     
001e08   6169     cpfslt  0x69, 0x1        
001e0a   206c     addwfc  0x6c, 0, 0       
001e0c   6f77     movwf   0x77, 0x1        	DB	0x77, 0x6f, 0x72, 0x6b, 0x69, 0x6e, 0x67, 0x0a, 0x0d, 0x00
001e0e   6b72     clrf    0x72, 0x1        
001e10   6e69     movwf   0x69, 0          
001e12   0a67     xorlw   0x67             
001e14   000d     tblwt   *+               
                                           ; ; Starting pCode block
                                           ___str_1:
001e16   0d0a     mullw   0xa              	DB	0x0a, 0x0d, 0x70, 0x72, 0x65, 0x73, 0x73, 0x20, 0x70, 0x72, 0x69, 0x6e
001e18   7270     btg     0x70, 0x1, 0     
001e1a   7365     btg     0x65, 0x1, 0x1   
001e1c   2073     addwfc  0x73, 0, 0       
001e1e   7270     btg     0x70, 0x1, 0     
001e20   6e69     movwf   0x69, 0          
001e22   2074     addwfc  0x74, 0, 0       	DB	0x74, 0x20, 0x6f, 0x6e, 0x20, 0x74, 0x65, 0x73, 0x74, 0x6f, 0x0a, 0x0d
001e24   6e6f     movwf   0x6f, 0          
001e26   7420     btg     0x20, 0x2, 0     
001e28   7365     btg     0x65, 0x1, 0x1   
001e2a   6f74     movwf   0x74, 0x1        
001e2c   0d0a     mullw   0xa              
001e2e   0000     nop                      	DB	0x00
                                           ; ; Starting pCode block
                                           ___str_2:
001e30   0d0a     mullw   0xa              	DB	0x0a, 0x0d, 0x64, 0x6f, 0x6e, 0x65, 0x20, 0x72, 0x65, 0x63, 0x65, 0x69
001e32   6f64     movwf   0x64, 0x1        
001e34   656e     cpfsgt  0x6e, 0x1        
001e36   7220     btg     0x20, 0x1, 0     
001e38   6365     cpfseq  0x65, 0x1        
001e3a   6965     setf    0x65, 0x1        
001e3c   6976     setf    0x76, 0x1        	DB	0x76, 0x69, 0x6e, 0x67, 0x20, 0x2d, 0x20, 0x73, 0x65, 0x6e, 0x64, 0x69
001e3e   676e     tstfsz  0x6e, 0x1        
001e40   2d20     decfsz  0x20, 0, 0x1     
001e42   7320     btg     0x20, 0x1, 0x1   
001e44   6e65     movwf   0x65, 0          
001e46   6964     setf    0x64, 0x1        
001e48   676e     tstfsz  0x6e, 0x1        	DB	0x6e, 0x67, 0x20, 0x76, 0x69, 0x61, 0x20, 0x73, 0x65, 0x72, 0x69, 0x61
001e4a   7620     btg     0x20, 0x3, 0     
001e4c   6169     cpfslt  0x69, 0x1        
001e4e   7320     btg     0x20, 0x1, 0x1   
001e50   7265     btg     0x65, 0x1, 0     
001e52   6169     cpfslt  0x69, 0x1        
001e54   2f6c     decfsz  0x6c, 0x1, 0x1   	DB	0x6c, 0x2f, 0x66, 0x73, 0x6b, 0x0a, 0x0d, 0x00
001e56   7366     btg     0x66, 0x1, 0x1   
001e58   0a6b     xorlw   0x6b             
001e5a   000d     tblwt   *+               
                                           ; ; Starting pCode block
                                           ___str_3:
001e5c   0d0a     mullw   0xa              	DB	0x0a, 0x0d, 0x77, 0x61, 0x69, 0x74, 0x69, 0x6e, 0x67, 0x20, 0x66, 0x6f
001e5e   6177     cpfslt  0x77, 0x1        
001e60   7469     btg     0x69, 0x2, 0     
001e62   6e69     movwf   0x69, 0          
001e64   2067     addwfc  0x67, 0, 0       
001e66   6f66     movwf   0x66, 0x1        
001e68   2072     addwfc  0x72, 0, 0       	DB	0x72, 0x20, 0x6e, 0x65, 0x77, 0x20, 0x63, 0x6f, 0x6d, 0x6d, 0x61, 0x6e
001e6a   656e     cpfsgt  0x6e, 0x1        
001e6c   2077     addwfc  0x77, 0, 0       
001e6e   6f63     movwf   0x63, 0x1        
001e70   6d6d     negf    0x6d, 0x1        
001e72   6e61     movwf   0x61, 0          
001e74   0a64     xorlw   0x64             	DB	0x64, 0x0a, 0x0d, 0x00
001e76   000d     tblwt   *+               
                                           ; ; Starting pCode block
                                           ___str_4:
001e78   0d0a     mullw   0xa              	DB	0x0a, 0x0d, 0x65, 0x63, 0x68, 0x6f, 0x20, 0x74, 0x65, 0x73, 0x74, 0x20
001e7a   6365     cpfseq  0x65, 0x1        
001e7c   6f68     movwf   0x68, 0x1        
001e7e   7420     btg     0x20, 0x2, 0     
001e80   7365     btg     0x65, 0x1, 0x1   
001e82   2074     addwfc  0x74, 0, 0       
001e84   202d     addwfc  0x2d, 0, 0       	DB	0x2d, 0x20, 0x73, 0x65, 0x6e, 0x64, 0x20, 0x73, 0x6f, 0x6d, 0x65, 0x20
001e86   6573     cpfsgt  0x73, 0x1        
001e88   646e     cpfsgt  0x6e, 0          
001e8a   7320     btg     0x20, 0x1, 0x1   
001e8c   6d6f     negf    0x6f, 0x1        
001e8e   2065     addwfc  0x65, 0, 0       
001e90   6164     cpfslt  0x64, 0x1        	DB	0x64, 0x61, 0x74, 0x61, 0x0a, 0x0d, 0x00
001e92   6174     cpfslt  0x74, 0x1        
001e94   0d0a     mullw   0xa              
001e96   0000     nop                      
                                           ; ; Starting pCode block
                                           ___str_5:
001e98   0d0a     mullw   0xa              	DB	0x0a, 0x0d, 0x6b, 0x61, 0x6d, 0x73, 0x74, 0x72, 0x75, 0x70, 0x20, 0x2d
001e9a   616b     cpfslt  0x6b, 0x1        
001e9c   736d     btg     0x6d, 0x1, 0x1   
001e9e   7274     btg     0x74, 0x1, 0     
001ea0   7075     btg     0x75, 0, 0       
001ea2   2d20     decfsz  0x20, 0, 0x1     
001ea4   7320     btg     0x20, 0x1, 0x1   	DB	0x20, 0x73, 0x65, 0x6e, 0x64, 0x20, 0x6b, 0x6d, 0x70, 0x20, 0x66, 0x72
001ea6   6e65     movwf   0x65, 0          
001ea8   2064     addwfc  0x64, 0, 0       
001eaa   6d6b     negf    0x6b, 0x1        
001eac   2070     addwfc  0x70, 0, 0       
001eae   7266     btg     0x66, 0x1, 0     
001eb0   6d61     negf    0x61, 0x1        	DB	0x61, 0x6d, 0x65, 0x20, 0x64, 0x61, 0x74, 0x61, 0x0a, 0x0d, 0x00
001eb2   2065     addwfc  0x65, 0, 0       
001eb4   6164     cpfslt  0x64, 0x1        
001eb6   6174     cpfslt  0x74, 0x1        
001eb8   0d0a     mullw   0xa              
001eba   0000     nop                      
                                           ; ; Starting pCode block
                                           ___str_6:
001ebc   0d0a     mullw   0xa              	DB	0x0a, 0x0d, 0x6b, 0x61, 0x6d, 0x73, 0x74, 0x72, 0x75, 0x70, 0x20, 0x2d
001ebe   616b     cpfslt  0x6b, 0x1        
001ec0   736d     btg     0x6d, 0x1, 0x1   
001ec2   7274     btg     0x74, 0x1, 0     
001ec4   7075     btg     0x75, 0, 0       
001ec6   2d20     decfsz  0x20, 0, 0x1     
001ec8   6b20     clrf    0x20, 0x1        	DB	0x20, 0x6b, 0x6d, 0x70, 0x20, 0x66, 0x72, 0x61, 0x6d, 0x65, 0x20, 0x72
001eca   706d     btg     0x6d, 0, 0       
001ecc   6620     tstfsz  0x20, 0          
001ece   6172     cpfslt  0x72, 0x1        
001ed0   656d     cpfsgt  0x6d, 0x1        
001ed2   7220     btg     0x20, 0x1, 0     
001ed4   6365     cpfseq  0x65, 0x1        	DB	0x65, 0x63, 0x65, 0x69, 0x76, 0x65, 0x64, 0x3a, 0x0a, 0x0d, 0x00
001ed6   6965     setf    0x65, 0x1        
001ed8   6576     cpfsgt  0x76, 0x1        
001eda   3a64     swapf   0x64, 0x1, 0     
001edc   0d0a     mullw   0xa              
001ede   0000     nop                      
                                           ; ; Starting pCode block
                                           ___str_7:
001ee0   0d0a     mullw   0xa              	DB	0x0a, 0x0d, 0x6b, 0x61, 0x6d, 0x73, 0x74, 0x72, 0x75, 0x70, 0x20, 0x2d
001ee2   616b     cpfslt  0x6b, 0x1        
001ee4   736d     btg     0x6d, 0x1, 0x1   
001ee6   7274     btg     0x74, 0x1, 0     
001ee8   7075     btg     0x75, 0, 0       
001eea   2d20     decfsz  0x20, 0, 0x1     
001eec   7720     btg     0x20, 0x3, 0x1   	DB	0x20, 0x77, 0x61, 0x69, 0x74, 0x69, 0x6e, 0x67, 0x20, 0x66, 0x6f, 0x72
001eee   6961     setf    0x61, 0x1        
001ef0   6974     setf    0x74, 0x1        
001ef2   676e     tstfsz  0x6e, 0x1        
001ef4   6620     tstfsz  0x20, 0          
001ef6   726f     btg     0x6f, 0x1, 0     
001ef8   7220     btg     0x20, 0x1, 0     	DB	0x20, 0x72, 0x65, 0x70, 0x6c, 0x79, 0x3a, 0x0a, 0x0d, 0x00
001efa   7065     btg     0x65, 0, 0       
001efc   796c     btg     0x6c, 0x4, 0x1   
001efe   0a3a     xorlw   0x3a             
001f00   000d     tblwt   *+               
                                           ; ; Starting pCode block
                                           ___str_8:
001f02   0d0a     mullw   0xa              	DB	0x0a, 0x0d, 0x6b, 0x61, 0x6d, 0x73, 0x74, 0x72, 0x75, 0x70, 0x20, 0x2d
001f04   616b     cpfslt  0x6b, 0x1        
001f06   736d     btg     0x6d, 0x1, 0x1   
001f08   7274     btg     0x74, 0x1, 0     
001f0a   7075     btg     0x75, 0, 0       
001f0c   2d20     decfsz  0x20, 0, 0x1     
001f0e   6b20     clrf    0x20, 0x1        	DB	0x20, 0x6b, 0x6d, 0x70, 0x20, 0x72, 0x65, 0x70, 0x6c, 0x79, 0x20, 0x72
001f10   706d     btg     0x6d, 0, 0       
001f12   7220     btg     0x20, 0x1, 0     
001f14   7065     btg     0x65, 0, 0       
001f16   796c     btg     0x6c, 0x4, 0x1   
001f18   7220     btg     0x20, 0x1, 0     
001f1a   6365     cpfseq  0x65, 0x1        	DB	0x65, 0x63, 0x65, 0x69, 0x76, 0x65, 0x64, 0x3a, 0x0a, 0x0d, 0x00
001f1c   6965     setf    0x65, 0x1        
001f1e   6576     cpfsgt  0x76, 0x1        
001f20   3a64     swapf   0x64, 0x1, 0     
001f22   0d0a     mullw   0xa              
001f24   0000     nop                      
                                           
                                           
                                           ; Statistics:
                                           ; code size:	12416 (0x3080) bytes ( 9.47%)
                                           ;           	 6208 (0x1840) words
                                           ; udata size:	 1200 (0x04b0) bytes (66.96%)
                                           ; access size:	   16 (0x0010) bytes
                                           
                                           
                                           	end
