gplink-1.2.0 #980 (Jul 31 2013)
Map File - Created 6-19-2014  00:59:14

                                 Section Info
                  Section       Type    Address   Location Size(Bytes)
                ---------  ---------  ---------  ---------  ---------
.config_300000_METER_LOGGER.O    romdata   0x300000    program   0x000001
.config_300001_METER_LOGGER.O    romdata   0x300001    program   0x000001
.config_300002_METER_LOGGER.O    romdata   0x300002    program   0x000001
.config_300003_METER_LOGGER.O    romdata   0x300003    program   0x000001
.config_300005_METER_LOGGER.O    romdata   0x300005    program   0x000001
.config_300006_METER_LOGGER.O    romdata   0x300006    program   0x000001
.config_300008_METER_LOGGER.O    romdata   0x300008    program   0x000001
.config_300009_METER_LOGGER.O    romdata   0x300009    program   0x000001
.config_30000A_METER_LOGGER.O    romdata   0x30000a    program   0x000001
.config_30000B_METER_LOGGER.O    romdata   0x30000b    program   0x000001
.config_30000C_METER_LOGGER.O    romdata   0x30000c    program   0x000001
.config_30000D_METER_LOGGER.O    romdata   0x30000d    program   0x000001
           S_crt0___entry       code   0x000000    program   0x000004
S_strmmssp____stream_mssp_putchar       code   0x000004    program   0x000004
S_meter_logger_ivec_0x1_isr_high_prio       code   0x000008    program   0x000004
S_strmusart____stream_usart_putchar       code   0x00000c    program   0x000008
      S_adcconv__adc_conv       code   0x000014    program   0x000004
S_meter_logger_ivec_0x2_isr_low_prio       code   0x000018    program   0x000004
     S_meter_logger__main       code   0x00001c    program   0x000d1e
S_meter_logger__send_fsk_high       code   0x000d3a    program   0x000bc0
S_meter_logger__send_fsk_low       code   0x0018fa    program   0x000b46
S_meter_logger__isr_high_prio       code   0x002440    program   0x000ada
     S_vfprintf__vfprintf       code   0x002f1a    program   0x00080c
S_meter_logger__get_battery_level       code   0x003726    program   0x00022a
      S_mullong___mullong       code   0x003950    program   0x000214
S_meter_logger__testo_valid_err_corr       code   0x003b64    program   0x000200
            S_ltoa__ultoa       code   0x003d64    program   0x0001b8
S_meter_logger__fifo_snoop       code   0x003f1c    program   0x0001a0
 S_meter_logger__fifo_get       code   0x0040bc    program   0x00017e
    S_modulong___modulong       code   0x00423a    program   0x00013a
 S_meter_logger__fifo_put       code   0x004374    program   0x00011e
    S_divulong___divulong       code   0x004492    program   0x000118
       S_sprintf__sprintf       code   0x0045aa    program   0x000114
S_strmputchar____stream_putchar       code   0x0046be    program   0x000112
  S_meter_logger___debug2       code   0x0047d0    program   0x0000c6
   S_meter_logger___debug       code   0x004896    program   0x0000c6
             S_ltoa__ltoa       code   0x00495c    program   0x0000c6
S_meter_logger__isr_low_prio       code   0x004a22    program   0x0000c4
 S_meter_logger__sleep_ms       code   0x004ae6    program   0x0000a6
  S_meter_logger__reverse       code   0x004b8c    program   0x00008c
      S_adcopen__adc_open       code   0x004c18    program   0x00007c
      S_uputs__usart_puts       code   0x004c94    program   0x000078
S_meter_logger__get_dev_id       code   0x004d0c    program   0x000072
S_meter_logger__fsk_rx_enable       code   0x004d7e    program   0x00005c
S_meter_logger__init_system       code   0x004dda    program   0x000056
S_meter_logger__rs232_7e1_rx_enable       code   0x004e30    program   0x000040
S_meter_logger__rs232_8n2_rx_enable       code   0x004e70    program   0x000040
    S_gptrget4___gptrget4       code   0x004eb0    program   0x000040
S_meter_logger__rs232_7e1_tx_enable       code   0x004ef0    program   0x00003e
S_meter_logger__rs232_8n2_tx_enable       code   0x004f2e    program   0x00003e
S_meter_logger__testo_ir_enable       code   0x004f6c    program   0x00003c
S_adcsetch__adc_setchannel       code   0x004fa8    program   0x00003a
S_meter_logger__fifo_in_use       code   0x004fe2    program   0x000038
    S_gptrget3___gptrget3       code   0x00501a    program   0x000036
S_meter_logger__fsk_tx_enable       code   0x005050    program   0x000034
S_meter_logger__rs232_7e1_tx_byte       code   0x005084    program   0x000030
S_meter_logger__rs232_8n2_tx_byte       code   0x0050b4    program   0x000030
S_eeprom8_gptrput3____eeprom8_gptrput3       code   0x0050e4    program   0x000030
S_eeprom8_gptrget4____eeprom8_gptrget4       code   0x005114    program   0x000030
       S_islower__islower       code   0x005144    program   0x00002e
S_meter_logger__fsk_tx_byte       code   0x005172    program   0x00002c
    S_gptrget2___gptrget2       code   0x00519e    program   0x00002c
S_meter_logger__my_usart_open       code   0x0051ca    program   0x00002a
      S_ugetc__usart_getc       code   0x0051f4    program   0x000028
S_eeprom8_gptrget3____eeprom8_gptrget3       code   0x00521c    program   0x000028
S_meter_logger__flash_led       code   0x005244    program   0x000024
    S_gptrget1___gptrget1       code   0x005268    program   0x000022
S_eeprom8_gptrput1____eeprom8_gptrput1       code   0x00528a    program   0x000020
S_eeprom8_gptrget2____eeprom8_gptrget2       code   0x0052aa    program   0x000020
    S_gptrput3___gptrput3       code   0x0052ca    program   0x00001e
S_eeprom8_gptrget1____eeprom8_gptrget1       code   0x0052e8    program   0x000018
S_meter_logger__fsk_tx_disable       code   0x005300    program   0x000016
S_meter_logger__rs232_7e1_rx_disable       code   0x005316    program   0x000016
S_meter_logger__rs232_7e1_tx_disable       code   0x00532c    program   0x000016
S_meter_logger__rs232_8n2_rx_disable       code   0x005342    program   0x000016
S_meter_logger__rs232_8n2_tx_disable       code   0x005358    program   0x000016
    S_gptrput1___gptrput1       code   0x00536e    program   0x000016
S_meter_logger__fsk_rx_disable       code   0x005384    program   0x000014
S_meter_logger__testo_ir_disable       code   0x005398    program   0x000014
         S_crt0___startup       code   0x0053ac    program   0x000014
      S_uputc__usart_putc       code   0x0053c0    program   0x000010
S_eeprom8_write____eeprom8_write       code   0x0053d0    program   0x000010
      S_adcread__adc_read       code   0x0053e0    program   0x000008
      S_ubusy__usart_busy       code   0x0053e8    program   0x000008
      S_adcbusy__adc_busy       code   0x0053f0    program   0x000008
      S_udrdy__usart_drdy       code   0x0053f8    program   0x000008
S_strmgpsim____stream_gpsim_putchar       code   0x005400    program   0x000006
    S_adcclose__adc_close       code   0x005406    program   0x000006
 S___eeprom_gptrput1_stub       code   0x00540c    program   0x000004
 S___eeprom_gptrget1_stub       code   0x005410    program   0x000004
 S___eeprom_gptrget2_stub       code   0x005414    program   0x000004
 S___eeprom_gptrget3_stub       code   0x005418    program   0x000004
 S___eeprom_gptrget4_stub       code   0x00541c    program   0x000004
 S___eeprom_gptrput3_stub       code   0x005420    program   0x000004
       S_putchar__putchar       code   0x005424    program   0x000002
               .registers      udata   0x000000       data   0x00001f
     udata_meter_logger_4      udata   0x000060       data   0x000080
             udata_ltoa_0      udata   0x0000e0       data   0x000020
    udata_meter_logger_16      udata   0x000100       data   0x000100
    udata_meter_logger_17      udata   0x000200       data   0x000100
    udata_meter_logger_18      udata   0x000300       data   0x000100
            stack_section      udata   0x000400       data   0x000100
    udata_meter_logger_11      udata   0x000500       data   0x000010
         udata_vfprintf_1      udata   0x000510       data   0x00000d
     udata_meter_logger_9      udata   0x00051d       data   0x000006
    udata_meter_logger_10      udata   0x000523       data   0x000006
          udata_mullong_0      udata   0x000529       data   0x000004
          udata_mullong_1      udata   0x00052d       data   0x000004
          udata_mullong_2      udata   0x000531       data   0x000004
          udata_mullong_3      udata   0x000535       data   0x000004
          udata_mullong_4      udata   0x000539       data   0x000004
         udata_vfprintf_0      udata   0x00053d       data   0x000003
     udata_meter_logger_1      udata   0x000540       data   0x000002
     udata_meter_logger_2      udata   0x000542       data   0x000002
     udata_meter_logger_3      udata   0x000544       data   0x000002
     udata_meter_logger_7      udata   0x000546       data   0x000002
     udata_meter_logger_8      udata   0x000548       data   0x000002
    udata_meter_logger_12      udata   0x00054a       data   0x000002
    udata_meter_logger_14      udata   0x00054c       data   0x000002
     udata_meter_logger_0      udata   0x00054e       data   0x000001
     udata_meter_logger_5      udata   0x00054f       data   0x000001
     udata_meter_logger_6      udata   0x000550       data   0x000001
    udata_meter_logger_13      udata   0x000551       data   0x000001
           udata_usartd_0      udata   0x000552       data   0x000001
    udata_meter_logger_15      udata   0x000700       data   0x000100
      ustat_pic18f2550_00      udata   0x000f66       data   0x00001d
      ustat_pic18f2550_01      udata   0x000f84       data   0x000001
      ustat_pic18f2550_02      udata   0x000f89       data   0x000003
      ustat_pic18f2550_03      udata   0x000f92       data   0x000003
      ustat_pic18f2550_04      udata   0x000f9b       data   0x000001
      ustat_pic18f2550_05      udata   0x000f9d       data   0x000006
      ustat_pic18f2550_06      udata   0x000fa6       data   0x000004
      ustat_pic18f2550_07      udata   0x000fab       data   0x00000e
      ustat_pic18f2550_08      udata   0x000fba       data   0x00001a
      ustat_pic18f2550_09      udata   0x000fd5       data   0x00002b



                              Program Memory Usage
                               Start         End
                           ---------   ---------
                            0x000008    0x00000b
                            0x000018    0x00001b
                            0x00001c    0x000d39
                            0x0047d0    0x004895
                            0x004896    0x00495b
                            0x005244    0x005267
                            0x003726    0x00394f
                            0x003f1c    0x0040bb
                            0x0040bc    0x004239
                            0x004374    0x004491
                            0x004fe2    0x005019
                            0x005172    0x00519d
                            0x0018fa    0x00243f
                            0x000d3a    0x0018f9
                            0x005384    0x005397
                            0x004d7e    0x004dd9
                            0x005300    0x005315
                            0x005050    0x005083
                            0x005084    0x0050b3
                            0x005316    0x00532b
                            0x004e30    0x004e6f
                            0x00532c    0x005341
                            0x004ef0    0x004f2d
                            0x0050b4    0x0050e3
                            0x005342    0x005357
                            0x004e70    0x004eaf
                            0x005358    0x00536d
                            0x004f2e    0x004f6b
                            0x005398    0x0053ab
                            0x004f6c    0x004fa7
                            0x003b64    0x003d63
                            0x004b8c    0x004c17
                            0x0051ca    0x0051f3
                            0x004d0c    0x004d7d
                            0x004dda    0x004e2f
                            0x004ae6    0x004b8b
                            0x004a22    0x004ae5
                            0x002440    0x002f19
                            0x300000    0x300000
                            0x300001    0x300001
                            0x300002    0x300002
                            0x300003    0x300003
                            0x300005    0x300005
                            0x300006    0x300006
                            0x300008    0x300008
                            0x300009    0x300009
                            0x30000a    0x30000a
                            0x30000b    0x30000b
                            0x30000c    0x30000c
                            0x30000d    0x30000d
                            0x000000    0x000003
                            0x0053ac    0x0053bf
                            0x003950    0x003b63
                            0x00536e    0x005383
                            0x004492    0x0045a9
                            0x0045aa    0x0046bd
                            0x002f1a    0x003725
                            0x0046be    0x0047cf
                            0x000004    0x000007
                            0x005400    0x005405
                            0x00495c    0x004a21
                            0x003d64    0x003f1b
                            0x005424    0x005425
                            0x00000c    0x000013
                            0x005144    0x005171
                            0x0053c0    0x0053cf
                            0x004c94    0x004d0b
                            0x0053e0    0x0053e7
                            0x005406    0x00540b
                            0x004c18    0x004c93
                            0x000014    0x000017
                            0x004fa8    0x004fe1
                            0x0053e8    0x0053ef
                            0x0051f4    0x00521b
                            0x0053f0    0x0053f7
                            0x0053f8    0x0053ff
                            0x00540c    0x00540f
                            0x00423a    0x004373
                            0x00528a    0x0052a9
                            0x005268    0x005289
                            0x00519e    0x0051c9
                            0x0052ca    0x0052e7
                            0x0053d0    0x0053df
                            0x004eb0    0x004eef
                            0x00501a    0x00504f
                            0x005410    0x005413
                            0x005414    0x005417
                            0x005418    0x00541b
                            0x00541c    0x00541f
                            0x005420    0x005423
                            0x0052e8    0x0052ff
                            0x0052aa    0x0052c9
                            0x0050e4    0x005113
                            0x005114    0x005143
                            0x00521c    0x005243
                            21554 program addresses used



                              Symbols - Sorted by Name
                     Name    Address   Location    Storage File
                ---------  ---------  ---------  --------- ---------
                       @1   0x00000c    program     static strmusart.asm
               _00105_DS_   0x004cbe    program     static libio18f2550_a-uputs.asm
               _00106_DS_   0x005166    program     static islower.asm
               _00106_DS_   0x004c7c    program     static libio18f2550_a-adcopen.asm
               _00106_DS_   0x003e1e    program     static ltoa.asm
               _00106_DS_   0x00010e    program     static meter_logger.asm
               _00107_DS_   0x003ddc    program     static ltoa.asm
               _00108_DS_   0x005168    program     static islower.asm
               _00108_DS_   0x005208    program     static libio18f2550_a-ugetc.asm
               _00108_DS_   0x003080    program     static vfprintf.asm
               _00108_DS_   0x00479e    program     static strmputchar.asm
               _00108_DS_   0x0042f0    program     static modulong.asm
               _00109_DS_   0x0042b6    program     static modulong.asm
               _00109_DS_   0x00450e    program     static divulong.asm
               _00109_DS_   0x0000c6    program     static meter_logger.asm
               _00110_DS_   0x00014e    program     static meter_logger.asm
               _00110_DS_   0x005210    program     static libio18f2550_a-ugetc.asm
               _00110_DS_   0x00455a    program     static divulong.asm
               _00110_DS_   0x003092    program     static vfprintf.asm
               _00110_DS_   0x003e8e    program     static ltoa.asm
               _00111_DS_   0x004790    program     static strmputchar.asm
               _00111_DS_   0x0001d8    program     static meter_logger.asm
               _00112_DS_   0x00021e    program     static meter_logger.asm
               _00112_DS_   0x005218    program     static libio18f2550_a-ugetc.asm
               _00112_DS_   0x0030b0    program     static vfprintf.asm
               _00113_DS_   0x004320    program     static modulong.asm
               _00114_DS_   0x0030d2    program     static vfprintf.asm
               _00114_DS_   0x00024e    program     static meter_logger.asm
               _00114_DS_   0x004782    program     static strmputchar.asm
               _00114_DS_   0x0042f8    program     static modulong.asm
               _00115_DS_   0x000326    program     static meter_logger.asm
               _00116_DS_   0x00032a    program     static meter_logger.asm
               _00116_DS_   0x0030f0    program     static vfprintf.asm
               _00117_DS_   0x004342    program     static modulong.asm
               _00118_DS_   0x00311a    program     static vfprintf.asm
               _00118_DS_   0x00036e    program     static meter_logger.asm
               _00119_DS_   0x004770    program     static strmputchar.asm
               _00119_DS_   0x000398    program     static meter_logger.asm
               _00120_DS_   0x004cf2    program     static libio18f2550_a-uputs.asm
               _00120_DS_   0x0003de    program     static meter_logger.asm
               _00121_DS_   0x0047aa    program     static strmputchar.asm
               _00122_DS_   0x003160    program     static vfprintf.asm
               _00122_DS_   0x0042b4    program     static modulong.asm
               _00122_DS_   0x00040e    program     static meter_logger.asm
               _00123_DS_   0x0004c6    program     static meter_logger.asm
               _00124_DS_   0x0004ca    program     static meter_logger.asm
               _00125_DS_   0x003188    program     static vfprintf.asm
               _00126_DS_   0x00050e    program     static meter_logger.asm
               _00127_DS_   0x000538    program     static meter_logger.asm
               _00128_DS_   0x00057e    program     static meter_logger.asm
               _00128_DS_   0x004546    program     static divulong.asm
               _00129_DS_   0x0031ce    program     static vfprintf.asm
               _00130_DS_   0x0005ae    program     static meter_logger.asm
               _00131_DS_   0x000686    program     static meter_logger.asm
               _00132_DS_   0x000696    program     static meter_logger.asm
               _00132_DS_   0x003ec8    program     static ltoa.asm
               _00133_DS_   0x0031f0    program     static vfprintf.asm
               _00134_DS_   0x003202    program     static vfprintf.asm
               _00134_DS_   0x0006da    program     static meter_logger.asm
               _00135_DS_   0x00070c    program     static meter_logger.asm
               _00136_DS_   0x003220    program     static vfprintf.asm
               _00137_DS_   0x00073c    program     static meter_logger.asm
               _00138_DS_   0x000814    program     static meter_logger.asm
               _00138_DS_   0x003296    program     static vfprintf.asm
               _00138_DS_   0x0049dc    program     static ltoa.asm
               _00139_DS_   0x000830    program     static meter_logger.asm
               _00141_DS_   0x0042e2    program     static modulong.asm
               _00141_DS_   0x000874    program     static meter_logger.asm
               _00142_DS_   0x00430e    program     static modulong.asm
               _00143_DS_   0x00087a    program     static meter_logger.asm
               _00143_DS_   0x004754    program     static strmputchar.asm
               _00144_DS_   0x000908    program     static meter_logger.asm
               _00145_DS_   0x000930    program     static meter_logger.asm
               _00145_DS_   0x00327c    program     static vfprintf.asm
               _00146_DS_   0x000976    program     static meter_logger.asm
               _00148_DS_   0x003270    program     static vfprintf.asm
               _00148_DS_   0x0009a6    program     static meter_logger.asm
               _00149_DS_   0x000a7e    program     static meter_logger.asm
               _00150_DS_   0x000a8e    program     static meter_logger.asm
               _00151_DS_   0x003264    program     static vfprintf.asm
               _00152_DS_   0x000ad2    program     static meter_logger.asm
               _00153_DS_   0x000b04    program     static meter_logger.asm
               _00154_DS_   0x00325a    program     static vfprintf.asm
               _00155_DS_   0x000b34    program     static meter_logger.asm
               _00156_DS_   0x000c0c    program     static meter_logger.asm
               _00157_DS_   0x000c28    program     static meter_logger.asm
               _00157_DS_   0x00324a    program     static vfprintf.asm
               _00159_DS_   0x000c6c    program     static meter_logger.asm
               _00160_DS_   0x00323e    program     static vfprintf.asm
               _00161_DS_   0x0032bc    program     static vfprintf.asm
               _00161_DS_   0x000c72    program     static meter_logger.asm
               _00162_DS_   0x000d00    program     static meter_logger.asm
               _00162_DS_   0x0033c4    program     static vfprintf.asm
               _00163_DS_   0x000d28    program     static meter_logger.asm
               _00165_DS_   0x00342c    program     static vfprintf.asm
               _00168_DS_   0x000172    program     static meter_logger.asm
               _00169_DS_   0x0033d4    program     static vfprintf.asm
               _00171_DS_   0x000276    program     static meter_logger.asm
               _00172_DS_   0x00336c    program     static vfprintf.asm
               _00173_DS_   0x003440    program     static vfprintf.asm
               _00174_DS_   0x000416    program     static meter_logger.asm
               _00175_DS_   0x00347c    program     static vfprintf.asm
               _00176_DS_   0x0034a0    program     static vfprintf.asm
               _00177_DS_   0x0005d6    program     static meter_logger.asm
               _00180_DS_   0x000764    program     static meter_logger.asm
               _00181_DS_   0x0034d2    program     static vfprintf.asm
               _00183_DS_   0x0009ce    program     static meter_logger.asm
               _00184_DS_   0x003320    program     static vfprintf.asm
               _00186_DS_   0x000b5c    program     static meter_logger.asm
               _00187_DS_   0x003302    program     static vfprintf.asm
               _00190_DS_   0x003512    program     static vfprintf.asm
               _00193_DS_   0x00354a    program     static vfprintf.asm
               _00199_DS_   0x0035f6    program     static vfprintf.asm
               _00204_DS_   0x003592    program     static vfprintf.asm
               _00205_DS_   0x0035c2    program     static vfprintf.asm
               _00207_DS_   0x00363c    program     static vfprintf.asm
               _00213_DS_   0x003660    program     static vfprintf.asm
               _00214_DS_   0x003686    program     static vfprintf.asm
               _00215_DS_   0x002ffc    program     static vfprintf.asm
               _00217_DS_   0x003692    program     static vfprintf.asm
               _00220_DS_   0x0035ee    program     static vfprintf.asm
               _00221_DS_   0x0035f2    program     static vfprintf.asm
               _00263_DS_   0x003502    program     static vfprintf.asm
               _00270_DS_   0x00357a    program     static vfprintf.asm
               _00274_DS_   0x003154    program     static vfprintf.asm
               _00275_DS_   0x0031c2    program     static vfprintf.asm
               _00276_DS_   0x003536    program     static vfprintf.asm
               _00277_DS_   0x00356e    program     static vfprintf.asm
               _00278_DS_   0x003624    program     static vfprintf.asm
               _00279_DS_   0x00367e    program     static vfprintf.asm
               _00325_DS_   0x00008a    program     static meter_logger.asm
               _00326_DS_   0x00008c    program     static meter_logger.asm
               _00327_DS_   0x0000d2    program     static meter_logger.asm
               _00328_DS_   0x0000d4    program     static meter_logger.asm
               _00330_DS_   0x0001c4    program     static meter_logger.asm
               _00331_DS_   0x000228    program     static meter_logger.asm
               _00332_DS_   0x00028a    program     static meter_logger.asm
               _00333_DS_   0x0003e8    program     static meter_logger.asm
               _00334_DS_   0x00042a    program     static meter_logger.asm
               _00335_DS_   0x000588    program     static meter_logger.asm
               _00336_DS_   0x0005ea    program     static meter_logger.asm
               _00337_DS_   0x000716    program     static meter_logger.asm
               _00338_DS_   0x000778    program     static meter_logger.asm
               _00339_DS_   0x000980    program     static meter_logger.asm
               _00340_DS_   0x0009e2    program     static meter_logger.asm
               _00341_DS_   0x000b0e    program     static meter_logger.asm
               _00342_DS_   0x000b70    program     static meter_logger.asm
               _00347_DS_   0x0024d8    program     static meter_logger.asm
               _00348_DS_   0x0024fe    program     static meter_logger.asm
               _00349_DS_   0x00250c    program     static meter_logger.asm
               _00351_DS_   0x002558    program     static meter_logger.asm
               _00354_DS_   0x002566    program     static meter_logger.asm
               _00357_DS_   0x002572    program     static meter_logger.asm
               _00359_DS_   0x002606    program     static meter_logger.asm
               _00360_DS_   0x00262c    program     static meter_logger.asm
               _00362_DS_   0x00269e    program     static meter_logger.asm
               _00363_DS_   0x0026b2    program     static meter_logger.asm
               _00365_DS_   0x0026c0    program     static meter_logger.asm
               _00368_DS_   0x0025ec    program     static meter_logger.asm
               _00369_DS_   0x00263a    program     static meter_logger.asm
               _00370_DS_   0x0026ca    program     static meter_logger.asm
               _00373_DS_   0x0025b4    program     static meter_logger.asm
               _00375_DS_   0x002700    program     static meter_logger.asm
               _00381_DS_   0x002706    program     static meter_logger.asm
               _00384_DS_   0x002762    program     static meter_logger.asm
               _00387_DS_   0x0027cc    program     static meter_logger.asm
               _00389_DS_   0x0027ce    program     static meter_logger.asm
               _00391_DS_   0x00283e    program     static meter_logger.asm
               _00392_DS_   0x002848    program     static meter_logger.asm
               _00393_DS_   0x002868    program     static meter_logger.asm
               _00393_DS_   0x00301e    program     static vfprintf.asm
               _00394_DS_   0x003046    program     static vfprintf.asm
               _00396_DS_   0x00287c    program     static meter_logger.asm
               _00397_DS_   0x00307e    program     static vfprintf.asm
               _00398_DS_   0x0028bc    program     static meter_logger.asm
               _00400_DS_   0x003092    program     static vfprintf.asm
               _00400_DS_   0x0028c6    program     static meter_logger.asm
               _00401_DS_   0x0028d0    program     static meter_logger.asm
               _00403_DS_   0x0030b0    program     static vfprintf.asm
               _00403_DS_   0x0028da    program     static meter_logger.asm
               _00404_DS_   0x0028ec    program     static meter_logger.asm
               _00406_DS_   0x00290e    program     static meter_logger.asm
               _00406_DS_   0x0030d2    program     static vfprintf.asm
               _00409_DS_   0x002926    program     static meter_logger.asm
               _00409_DS_   0x0030f0    program     static vfprintf.asm
               _00411_DS_   0x00292e    program     static meter_logger.asm
               _00413_DS_   0x00294c    program     static meter_logger.asm
               _00414_DS_   0x002970    program     static meter_logger.asm
               _00414_DS_   0x003152    program     static vfprintf.asm
               _00417_DS_   0x00317a    program     static vfprintf.asm
               _00417_DS_   0x00298e    program     static meter_logger.asm
               _00419_DS_   0x0029e2    program     static meter_logger.asm
               _00420_DS_   0x0031c0    program     static vfprintf.asm
               _00421_DS_   0x002a0c    program     static meter_logger.asm
               _00422_DS_   0x002a16    program     static meter_logger.asm
               _00423_DS_   0x0031ee    program     static vfprintf.asm
               _00424_DS_   0x002a20    program     static meter_logger.asm
               _00425_DS_   0x002a38    program     static meter_logger.asm
               _00426_DS_   0x003202    program     static vfprintf.asm
               _00427_DS_   0x002a5a    program     static meter_logger.asm
               _00429_DS_   0x003220    program     static vfprintf.asm
               _00430_DS_   0x002a72    program     static meter_logger.asm
               _00432_DS_   0x002a7a    program     static meter_logger.asm
               _00433_DS_   0x002a82    program     static meter_logger.asm
               _00435_DS_   0x002aaa    program     static meter_logger.asm
               _00436_DS_   0x002abc    program     static meter_logger.asm
               _00438_DS_   0x002af6    program     static meter_logger.asm
               _00442_DS_   0x002b0e    program     static meter_logger.asm
               _00444_DS_   0x002b16    program     static meter_logger.asm
               _00446_DS_   0x002b2e    program     static meter_logger.asm
               _00446_DS_   0x0032ba    program     static vfprintf.asm
               _00447_DS_   0x002b58    program     static meter_logger.asm
               _00449_DS_   0x002b66    program     static meter_logger.asm
               _00450_DS_   0x002b6a    program     static meter_logger.asm
               _00451_DS_   0x002b78    program     static meter_logger.asm
               _00453_DS_   0x002bae    program     static meter_logger.asm
               _00453_DS_   0x003532    program     static vfprintf.asm
               _00455_DS_   0x003616    program     static vfprintf.asm
               _00456_DS_   0x00368e    program     static vfprintf.asm
               _00456_DS_   0x002bb4    program     static meter_logger.asm
               _00459_DS_   0x002bc0    program     static meter_logger.asm
               _00460_DS_   0x002bce    program     static meter_logger.asm
               _00462_DS_   0x002bd8    program     static meter_logger.asm
               _00464_DS_   0x002bda    program     static meter_logger.asm
               _00471_DS_   0x002cae    program     static meter_logger.asm
               _00474_DS_   0x002c9a    program     static meter_logger.asm
               _00478_DS_   0x002cc6    program     static meter_logger.asm
               _00479_DS_   0x002cc8    program     static meter_logger.asm
               _00483_DS_   0x002cca    program     static meter_logger.asm
               _00694_DS_   0x0024c2    program     static meter_logger.asm
               _00696_DS_   0x0024cc    program     static meter_logger.asm
               _00698_DS_   0x0024d6    program     static meter_logger.asm
               _00704_DS_   0x0024fc    program     static meter_logger.asm
               _00705_DS_   0x002526    program     static meter_logger.asm
               _00706_DS_   0x002542    program     static meter_logger.asm
               _00709_DS_   0x002596    program     static meter_logger.asm
               _00710_DS_   0x0025b2    program     static meter_logger.asm
               _00711_DS_   0x0025ce    program     static meter_logger.asm
               _00712_DS_   0x0025ea    program     static meter_logger.asm
               _00715_DS_   0x002654    program     static meter_logger.asm
               _00716_DS_   0x002670    program     static meter_logger.asm
               _00720_DS_   0x0026d4    program     static meter_logger.asm
               _00723_DS_   0x002710    program     static meter_logger.asm
               _00729_DS_   0x002822    program     static meter_logger.asm
               _00739_DS_   0x002872    program     static meter_logger.asm
               _00753_DS_   0x002966    program     static meter_logger.asm
               _00755_DS_   0x00296e    program     static meter_logger.asm
               _00757_DS_   0x00297a    program     static meter_logger.asm
               _00776_DS_   0x002ad8    program     static meter_logger.asm
               _00777_DS_   0x002ae6    program     static meter_logger.asm
               _00786_DS_   0x002b4e    program     static meter_logger.asm
               _00788_DS_   0x002b56    program     static meter_logger.asm
               _00791_DS_   0x002b9c    program     static meter_logger.asm
               _00792_DS_   0x002b96    program     static meter_logger.asm
               _00794_DS_   0x002c38    program     static meter_logger.asm
               _00795_DS_   0x002c46    program     static meter_logger.asm
               _00798_DS_   0x002c70    program     static meter_logger.asm
               _00800_DS_   0x002ca2    program     static meter_logger.asm
               _00805_DS_   0x004a74    program     static meter_logger.asm
               _00806_DS_   0x004a7e    program     static meter_logger.asm
               _00809_DS_   0x004a96    program     static meter_logger.asm
               _00811_DS_   0x004aa0    program     static meter_logger.asm
               _00814_DS_   0x004ab6    program     static meter_logger.asm
               _00840_DS_   0x004b4c    program     static meter_logger.asm
               _00842_DS_   0x004b2e    program     static meter_logger.asm
               _00843_DS_   0x004b5a    program     static meter_logger.asm
               _00853_DS_   0x004b3a    program     static meter_logger.asm
               _00854_DS_   0x004b64    program     static meter_logger.asm
               _00884_DS_   0x003d38    program     static meter_logger.asm
               _00886_DS_   0x003ba8    program     static meter_logger.asm
               _00888_DS_   0x003c08    program     static meter_logger.asm
               _00890_DS_   0x003c6a    program     static meter_logger.asm
               _00892_DS_   0x003ccc    program     static meter_logger.asm
               _00894_DS_   0x003d3a    program     static meter_logger.asm
               _00928_DS_   0x003bc0    program     static meter_logger.asm
               _00929_DS_   0x003bb8    program     static meter_logger.asm
               _00931_DS_   0x003bd6    program     static meter_logger.asm
               _00932_DS_   0x003bd8    program     static meter_logger.asm
               _00936_DS_   0x003c20    program     static meter_logger.asm
               _00937_DS_   0x003c18    program     static meter_logger.asm
               _00939_DS_   0x003c36    program     static meter_logger.asm
               _00940_DS_   0x003c38    program     static meter_logger.asm
               _00945_DS_   0x003c82    program     static meter_logger.asm
               _00946_DS_   0x003c7a    program     static meter_logger.asm
               _00948_DS_   0x003c98    program     static meter_logger.asm
               _00949_DS_   0x003c9a    program     static meter_logger.asm
               _00954_DS_   0x003ce4    program     static meter_logger.asm
               _00955_DS_   0x003cdc    program     static meter_logger.asm
               _00957_DS_   0x003cfa    program     static meter_logger.asm
               _00958_DS_   0x003cfc    program     static meter_logger.asm
               _00962_DS_   0x003d32    program     static meter_logger.asm
               _00963_DS_   0x003d34    program     static meter_logger.asm
               _00998_DS_   0x0050d4    program     static meter_logger.asm
               _01026_DS_   0x0050a4    program     static meter_logger.asm
               _01064_DS_   0x00518e    program     static meter_logger.asm
               _01077_DS_   0x0043e8    program     static meter_logger.asm
               _01078_DS_   0x004406    program     static meter_logger.asm
               _01079_DS_   0x004424    program     static meter_logger.asm
               _01080_DS_   0x004442    program     static meter_logger.asm
               _01081_DS_   0x00445e    program     static meter_logger.asm
               _01083_DS_   0x00447a    program     static meter_logger.asm
               _01085_DS_   0x00447e    program     static meter_logger.asm
               _01087_DS_   0x004480    program     static meter_logger.asm
               _01099_DS_   0x0043a4    program     static meter_logger.asm
               _01100_DS_   0x0043b6    program     static meter_logger.asm
               _01101_DS_   0x0043d8    program     static meter_logger.asm
               _01106_DS_   0x004472    program     static meter_logger.asm
               _01107_DS_   0x004474    program     static meter_logger.asm
               _01112_DS_   0x004140    program     static meter_logger.asm
               _01113_DS_   0x004170    program     static meter_logger.asm
               _01114_DS_   0x0041a0    program     static meter_logger.asm
               _01115_DS_   0x0041d0    program     static meter_logger.asm
               _01116_DS_   0x0041fe    program     static meter_logger.asm
               _01118_DS_   0x00421a    program     static meter_logger.asm
               _01120_DS_   0x00421e    program     static meter_logger.asm
               _01122_DS_   0x004220    program     static meter_logger.asm
               _01133_DS_   0x00410e    program     static meter_logger.asm
               _01134_DS_   0x004130    program     static meter_logger.asm
               _01139_DS_   0x004212    program     static meter_logger.asm
               _01140_DS_   0x004214    program     static meter_logger.asm
               _01145_DS_   0x003fba    program     static meter_logger.asm
               _01146_DS_   0x003ff2    program     static meter_logger.asm
               _01147_DS_   0x00402a    program     static meter_logger.asm
               _01148_DS_   0x004062    program     static meter_logger.asm
               _01149_DS_   0x004094    program     static meter_logger.asm
               _01151_DS_   0x004098    program     static meter_logger.asm
               _01153_DS_   0x00409a    program     static meter_logger.asm
               _01161_DS_   0x003f72    program     static meter_logger.asm
               _01162_DS_   0x003f88    program     static meter_logger.asm
               _01163_DS_   0x003faa    program     static meter_logger.asm
               _01168_DS_   0x003774    program     static meter_logger.asm
               _01172_DS_   0x0038bc    program     static meter_logger.asm
               _01175_DS_   0x003818    program     static meter_logger.asm
               _01176_DS_   0x0038c0    program     static meter_logger.asm
               _01191_DS_   0x003794    program     static meter_logger.asm
               _01192_DS_   0x003796    program     static meter_logger.asm
               _01193_DS_   0x003824    program     static meter_logger.asm
               _01194_DS_   0x003826    program     static meter_logger.asm
                     _01_   0x0053cc    program     static libio18f2550_a-uputc.asm
               _10105_DS_   0x005208    program     static libio18f2550_a-ugetc.asm
               _11209_DS_   0x004206    program     static meter_logger.asm
               _21210_DS_   0x004466    program     static meter_logger.asm
               _31211_DS_   0x004a9e    program     static meter_logger.asm
                  _ADCON0   0x000fc2       data     extern libdev18f2550_a-pic18f2550.asm
              _ADCON0bits   0x000fc2       data     extern libdev18f2550_a-pic18f2550.asm
                  _ADCON1   0x000fc1       data     extern libdev18f2550_a-pic18f2550.asm
              _ADCON1bits   0x000fc1       data     extern libdev18f2550_a-pic18f2550.asm
                  _ADCON2   0x000fc0       data     extern libdev18f2550_a-pic18f2550.asm
              _ADCON2bits   0x000fc0       data     extern libdev18f2550_a-pic18f2550.asm
                   _ADRES   0x000fc3       data     extern libdev18f2550_a-pic18f2550.asm
                  _ADRESH   0x000fc4       data     extern libdev18f2550_a-pic18f2550.asm
                  _ADRESL   0x000fc3       data     extern libdev18f2550_a-pic18f2550.asm
                 _BAUDCON   0x000fb8       data     extern libdev18f2550_a-pic18f2550.asm
             _BAUDCONbits   0x000fb8       data     extern libdev18f2550_a-pic18f2550.asm
                 _BAUDCTL   0x000fb8       data     extern libdev18f2550_a-pic18f2550.asm
             _BAUDCTLbits   0x000fb8       data     extern libdev18f2550_a-pic18f2550.asm
                     _BSR   0x000fe0       data     extern libdev18f2550_a-pic18f2550.asm
                  _CCP1AS   0x000fb6       data     extern libdev18f2550_a-pic18f2550.asm
              _CCP1ASbits   0x000fb6       data     extern libdev18f2550_a-pic18f2550.asm
                 _CCP1CON   0x000fbd       data     extern libdev18f2550_a-pic18f2550.asm
             _CCP1CONbits   0x000fbd       data     extern libdev18f2550_a-pic18f2550.asm
                 _CCP1DEL   0x000fb7       data     extern libdev18f2550_a-pic18f2550.asm
             _CCP1DELbits   0x000fb7       data     extern libdev18f2550_a-pic18f2550.asm
                 _CCP2CON   0x000fba       data     extern libdev18f2550_a-pic18f2550.asm
             _CCP2CONbits   0x000fba       data     extern libdev18f2550_a-pic18f2550.asm
                   _CCPR1   0x000fbe       data     extern libdev18f2550_a-pic18f2550.asm
                  _CCPR1H   0x000fbf       data     extern libdev18f2550_a-pic18f2550.asm
                  _CCPR1L   0x000fbe       data     extern libdev18f2550_a-pic18f2550.asm
                   _CCPR2   0x000fbb       data     extern libdev18f2550_a-pic18f2550.asm
                  _CCPR2H   0x000fbc       data     extern libdev18f2550_a-pic18f2550.asm
                  _CCPR2L   0x000fbb       data     extern libdev18f2550_a-pic18f2550.asm
                   _CMCON   0x000fb4       data     extern libdev18f2550_a-pic18f2550.asm
               _CMCONbits   0x000fb4       data     extern libdev18f2550_a-pic18f2550.asm
                  _CVRCON   0x000fb5       data     extern libdev18f2550_a-pic18f2550.asm
              _CVRCONbits   0x000fb5       data     extern libdev18f2550_a-pic18f2550.asm
                    _DDRA   0x000f92       data     extern libdev18f2550_a-pic18f2550.asm
                _DDRAbits   0x000f92       data     extern libdev18f2550_a-pic18f2550.asm
                    _DDRB   0x000f93       data     extern libdev18f2550_a-pic18f2550.asm
                _DDRBbits   0x000f93       data     extern libdev18f2550_a-pic18f2550.asm
                    _DDRC   0x000f94       data     extern libdev18f2550_a-pic18f2550.asm
                _DDRCbits   0x000f94       data     extern libdev18f2550_a-pic18f2550.asm
                 _ECCP1AS   0x000fb6       data     extern libdev18f2550_a-pic18f2550.asm
             _ECCP1ASbits   0x000fb6       data     extern libdev18f2550_a-pic18f2550.asm
                _ECCP1DEL   0x000fb7       data     extern libdev18f2550_a-pic18f2550.asm
            _ECCP1DELbits   0x000fb7       data     extern libdev18f2550_a-pic18f2550.asm
                   _EEADR   0x000fa9       data     extern libdev18f2550_a-pic18f2550.asm
                  _EECON1   0x000fa6       data     extern libdev18f2550_a-pic18f2550.asm
              _EECON1bits   0x000fa6       data     extern libdev18f2550_a-pic18f2550.asm
                  _EECON2   0x000fa7       data     extern libdev18f2550_a-pic18f2550.asm
                  _EEDATA   0x000fa8       data     extern libdev18f2550_a-pic18f2550.asm
                   _FSR0H   0x000fea       data     extern libdev18f2550_a-pic18f2550.asm
                   _FSR0L   0x000fe9       data     extern libdev18f2550_a-pic18f2550.asm
                   _FSR1H   0x000fe2       data     extern libdev18f2550_a-pic18f2550.asm
                   _FSR1L   0x000fe1       data     extern libdev18f2550_a-pic18f2550.asm
                   _FSR2H   0x000fda       data     extern libdev18f2550_a-pic18f2550.asm
                   _FSR2L   0x000fd9       data     extern libdev18f2550_a-pic18f2550.asm
                 _HLVDCON   0x000fd2       data     extern libdev18f2550_a-pic18f2550.asm
             _HLVDCONbits   0x000fd2       data     extern libdev18f2550_a-pic18f2550.asm
                   _INDF0   0x000fef       data     extern libdev18f2550_a-pic18f2550.asm
                   _INDF1   0x000fe7       data     extern libdev18f2550_a-pic18f2550.asm
                   _INDF2   0x000fdf       data     extern libdev18f2550_a-pic18f2550.asm
                  _INTCON   0x000ff2       data     extern libdev18f2550_a-pic18f2550.asm
                 _INTCON2   0x000ff1       data     extern libdev18f2550_a-pic18f2550.asm
             _INTCON2bits   0x000ff1       data     extern libdev18f2550_a-pic18f2550.asm
                 _INTCON3   0x000ff0       data     extern libdev18f2550_a-pic18f2550.asm
             _INTCON3bits   0x000ff0       data     extern libdev18f2550_a-pic18f2550.asm
              _INTCONbits   0x000ff2       data     extern libdev18f2550_a-pic18f2550.asm
                    _IPR1   0x000f9f       data     extern libdev18f2550_a-pic18f2550.asm
                _IPR1bits   0x000f9f       data     extern libdev18f2550_a-pic18f2550.asm
                    _IPR2   0x000fa2       data     extern libdev18f2550_a-pic18f2550.asm
                _IPR2bits   0x000fa2       data     extern libdev18f2550_a-pic18f2550.asm
                    _LATA   0x000f89       data     extern libdev18f2550_a-pic18f2550.asm
                _LATAbits   0x000f89       data     extern libdev18f2550_a-pic18f2550.asm
                    _LATB   0x000f8a       data     extern libdev18f2550_a-pic18f2550.asm
                _LATBbits   0x000f8a       data     extern libdev18f2550_a-pic18f2550.asm
                    _LATC   0x000f8b       data     extern libdev18f2550_a-pic18f2550.asm
                _LATCbits   0x000f8b       data     extern libdev18f2550_a-pic18f2550.asm
                  _LVDCON   0x000fd2       data     extern libdev18f2550_a-pic18f2550.asm
              _LVDCONbits   0x000fd2       data     extern libdev18f2550_a-pic18f2550.asm
                  _OSCCON   0x000fd3       data     extern libdev18f2550_a-pic18f2550.asm
              _OSCCONbits   0x000fd3       data     extern libdev18f2550_a-pic18f2550.asm
                 _OSCTUNE   0x000f9b       data     extern libdev18f2550_a-pic18f2550.asm
             _OSCTUNEbits   0x000f9b       data     extern libdev18f2550_a-pic18f2550.asm
                      _PC   0x000ff9       data     extern libdev18f2550_a-pic18f2550.asm
                     _PCL   0x000ff9       data     extern libdev18f2550_a-pic18f2550.asm
                  _PCLATH   0x000ffa       data     extern libdev18f2550_a-pic18f2550.asm
                  _PCLATU   0x000ffb       data     extern libdev18f2550_a-pic18f2550.asm
                    _PIE1   0x000f9d       data     extern libdev18f2550_a-pic18f2550.asm
                _PIE1bits   0x000f9d       data     extern libdev18f2550_a-pic18f2550.asm
                    _PIE2   0x000fa0       data     extern libdev18f2550_a-pic18f2550.asm
                _PIE2bits   0x000fa0       data     extern libdev18f2550_a-pic18f2550.asm
                    _PIR1   0x000f9e       data     extern libdev18f2550_a-pic18f2550.asm
                _PIR1bits   0x000f9e       data     extern libdev18f2550_a-pic18f2550.asm
                    _PIR2   0x000fa1       data     extern libdev18f2550_a-pic18f2550.asm
                _PIR2bits   0x000fa1       data     extern libdev18f2550_a-pic18f2550.asm
                  _PLUSW0   0x000feb       data     extern libdev18f2550_a-pic18f2550.asm
                  _PLUSW1   0x000fe3       data     extern libdev18f2550_a-pic18f2550.asm
                  _PLUSW2   0x000fdb       data     extern libdev18f2550_a-pic18f2550.asm
                   _PORTA   0x000f80       data     extern libdev18f2550_a-pic18f2550.asm
               _PORTAbits   0x000f80       data     extern libdev18f2550_a-pic18f2550.asm
                   _PORTB   0x000f81       data     extern libdev18f2550_a-pic18f2550.asm
               _PORTBbits   0x000f81       data     extern libdev18f2550_a-pic18f2550.asm
                   _PORTC   0x000f82       data     extern libdev18f2550_a-pic18f2550.asm
               _PORTCbits   0x000f82       data     extern libdev18f2550_a-pic18f2550.asm
                   _PORTE   0x000f84       data     extern libdev18f2550_a-pic18f2550.asm
               _PORTEbits   0x000f84       data     extern libdev18f2550_a-pic18f2550.asm
                _POSTDEC0   0x000fed       data     extern libdev18f2550_a-pic18f2550.asm
                _POSTDEC1   0x000fe5       data     extern libdev18f2550_a-pic18f2550.asm
                _POSTDEC2   0x000fdd       data     extern libdev18f2550_a-pic18f2550.asm
                _POSTINC0   0x000fee       data     extern libdev18f2550_a-pic18f2550.asm
                _POSTINC1   0x000fe6       data     extern libdev18f2550_a-pic18f2550.asm
                _POSTINC2   0x000fde       data     extern libdev18f2550_a-pic18f2550.asm
                     _PR2   0x000fcb       data     extern libdev18f2550_a-pic18f2550.asm
                 _PREINC0   0x000fec       data     extern libdev18f2550_a-pic18f2550.asm
                 _PREINC1   0x000fe4       data     extern libdev18f2550_a-pic18f2550.asm
                 _PREINC2   0x000fdc       data     extern libdev18f2550_a-pic18f2550.asm
                    _PROD   0x000ff3       data     extern libdev18f2550_a-pic18f2550.asm
                   _PRODH   0x000ff4       data     extern libdev18f2550_a-pic18f2550.asm
                   _PRODL   0x000ff3       data     extern libdev18f2550_a-pic18f2550.asm
                    _RCON   0x000fd0       data     extern libdev18f2550_a-pic18f2550.asm
                _RCONbits   0x000fd0       data     extern libdev18f2550_a-pic18f2550.asm
                   _RCREG   0x000fae       data     extern libdev18f2550_a-pic18f2550.asm
                   _RCSTA   0x000fab       data     extern libdev18f2550_a-pic18f2550.asm
               _RCSTAbits   0x000fab       data     extern libdev18f2550_a-pic18f2550.asm
                   _SPBRG   0x000faf       data     extern libdev18f2550_a-pic18f2550.asm
                  _SPBRGH   0x000fb0       data     extern libdev18f2550_a-pic18f2550.asm
                  _SSPADD   0x000fc8       data     extern libdev18f2550_a-pic18f2550.asm
                  _SSPBUF   0x000fc9       data     extern libdev18f2550_a-pic18f2550.asm
                 _SSPCON1   0x000fc6       data     extern libdev18f2550_a-pic18f2550.asm
             _SSPCON1bits   0x000fc6       data     extern libdev18f2550_a-pic18f2550.asm
                 _SSPCON2   0x000fc5       data     extern libdev18f2550_a-pic18f2550.asm
             _SSPCON2bits   0x000fc5       data     extern libdev18f2550_a-pic18f2550.asm
                 _SSPSTAT   0x000fc7       data     extern libdev18f2550_a-pic18f2550.asm
             _SSPSTATbits   0x000fc7       data     extern libdev18f2550_a-pic18f2550.asm
                  _STATUS   0x000fd8       data     extern libdev18f2550_a-pic18f2550.asm
              _STATUSbits   0x000fd8       data     extern libdev18f2550_a-pic18f2550.asm
                  _STKPTR   0x000ffc       data     extern libdev18f2550_a-pic18f2550.asm
              _STKPTRbits   0x000ffc       data     extern libdev18f2550_a-pic18f2550.asm
                   _T0CON   0x000fd5       data     extern libdev18f2550_a-pic18f2550.asm
               _T0CONbits   0x000fd5       data     extern libdev18f2550_a-pic18f2550.asm
                   _T1CON   0x000fcd       data     extern libdev18f2550_a-pic18f2550.asm
               _T1CONbits   0x000fcd       data     extern libdev18f2550_a-pic18f2550.asm
                   _T2CON   0x000fca       data     extern libdev18f2550_a-pic18f2550.asm
               _T2CONbits   0x000fca       data     extern libdev18f2550_a-pic18f2550.asm
                   _T3CON   0x000fb1       data     extern libdev18f2550_a-pic18f2550.asm
               _T3CONbits   0x000fb1       data     extern libdev18f2550_a-pic18f2550.asm
                  _TABLAT   0x000ff5       data     extern libdev18f2550_a-pic18f2550.asm
                  _TBLPTR   0x000ff6       data     extern libdev18f2550_a-pic18f2550.asm
                 _TBLPTRH   0x000ff7       data     extern libdev18f2550_a-pic18f2550.asm
                 _TBLPTRL   0x000ff6       data     extern libdev18f2550_a-pic18f2550.asm
                 _TBLPTRU   0x000ff8       data     extern libdev18f2550_a-pic18f2550.asm
                    _TMR0   0x000fd6       data     extern libdev18f2550_a-pic18f2550.asm
                   _TMR0H   0x000fd7       data     extern libdev18f2550_a-pic18f2550.asm
                   _TMR0L   0x000fd6       data     extern libdev18f2550_a-pic18f2550.asm
                    _TMR1   0x000fce       data     extern libdev18f2550_a-pic18f2550.asm
                   _TMR1H   0x000fcf       data     extern libdev18f2550_a-pic18f2550.asm
                   _TMR1L   0x000fce       data     extern libdev18f2550_a-pic18f2550.asm
                    _TMR2   0x000fcc       data     extern libdev18f2550_a-pic18f2550.asm
                    _TMR3   0x000fb2       data     extern libdev18f2550_a-pic18f2550.asm
                   _TMR3H   0x000fb3       data     extern libdev18f2550_a-pic18f2550.asm
                   _TMR3L   0x000fb2       data     extern libdev18f2550_a-pic18f2550.asm
                     _TOS   0x000ffd       data     extern libdev18f2550_a-pic18f2550.asm
                    _TOSH   0x000ffe       data     extern libdev18f2550_a-pic18f2550.asm
                    _TOSL   0x000ffd       data     extern libdev18f2550_a-pic18f2550.asm
                    _TOSU   0x000fff       data     extern libdev18f2550_a-pic18f2550.asm
                   _TRISA   0x000f92       data     extern libdev18f2550_a-pic18f2550.asm
               _TRISAbits   0x000f92       data     extern libdev18f2550_a-pic18f2550.asm
                   _TRISB   0x000f93       data     extern libdev18f2550_a-pic18f2550.asm
               _TRISBbits   0x000f93       data     extern libdev18f2550_a-pic18f2550.asm
                   _TRISC   0x000f94       data     extern libdev18f2550_a-pic18f2550.asm
               _TRISCbits   0x000f94       data     extern libdev18f2550_a-pic18f2550.asm
                   _TXREG   0x000fad       data     extern libdev18f2550_a-pic18f2550.asm
                   _TXSTA   0x000fac       data     extern libdev18f2550_a-pic18f2550.asm
               _TXSTAbits   0x000fac       data     extern libdev18f2550_a-pic18f2550.asm
                   _UADDR   0x000f6e       data     extern libdev18f2550_a-pic18f2550.asm
               _UADDRbits   0x000f6e       data     extern libdev18f2550_a-pic18f2550.asm
                    _UCFG   0x000f6f       data     extern libdev18f2550_a-pic18f2550.asm
                _UCFGbits   0x000f6f       data     extern libdev18f2550_a-pic18f2550.asm
                    _UCON   0x000f6d       data     extern libdev18f2550_a-pic18f2550.asm
                _UCONbits   0x000f6d       data     extern libdev18f2550_a-pic18f2550.asm
                    _UEIE   0x000f6b       data     extern libdev18f2550_a-pic18f2550.asm
                _UEIEbits   0x000f6b       data     extern libdev18f2550_a-pic18f2550.asm
                    _UEIR   0x000f6a       data     extern libdev18f2550_a-pic18f2550.asm
                _UEIRbits   0x000f6a       data     extern libdev18f2550_a-pic18f2550.asm
                    _UEP0   0x000f70       data     extern libdev18f2550_a-pic18f2550.asm
                _UEP0bits   0x000f70       data     extern libdev18f2550_a-pic18f2550.asm
                    _UEP1   0x000f71       data     extern libdev18f2550_a-pic18f2550.asm
                   _UEP10   0x000f7a       data     extern libdev18f2550_a-pic18f2550.asm
               _UEP10bits   0x000f7a       data     extern libdev18f2550_a-pic18f2550.asm
                   _UEP11   0x000f7b       data     extern libdev18f2550_a-pic18f2550.asm
               _UEP11bits   0x000f7b       data     extern libdev18f2550_a-pic18f2550.asm
                   _UEP12   0x000f7c       data     extern libdev18f2550_a-pic18f2550.asm
               _UEP12bits   0x000f7c       data     extern libdev18f2550_a-pic18f2550.asm
                   _UEP13   0x000f7d       data     extern libdev18f2550_a-pic18f2550.asm
               _UEP13bits   0x000f7d       data     extern libdev18f2550_a-pic18f2550.asm
                   _UEP14   0x000f7e       data     extern libdev18f2550_a-pic18f2550.asm
               _UEP14bits   0x000f7e       data     extern libdev18f2550_a-pic18f2550.asm
                   _UEP15   0x000f7f       data     extern libdev18f2550_a-pic18f2550.asm
               _UEP15bits   0x000f7f       data     extern libdev18f2550_a-pic18f2550.asm
                _UEP1bits   0x000f71       data     extern libdev18f2550_a-pic18f2550.asm
                    _UEP2   0x000f72       data     extern libdev18f2550_a-pic18f2550.asm
                _UEP2bits   0x000f72       data     extern libdev18f2550_a-pic18f2550.asm
                    _UEP3   0x000f73       data     extern libdev18f2550_a-pic18f2550.asm
                _UEP3bits   0x000f73       data     extern libdev18f2550_a-pic18f2550.asm
                    _UEP4   0x000f74       data     extern libdev18f2550_a-pic18f2550.asm
                _UEP4bits   0x000f74       data     extern libdev18f2550_a-pic18f2550.asm
                    _UEP5   0x000f75       data     extern libdev18f2550_a-pic18f2550.asm
                _UEP5bits   0x000f75       data     extern libdev18f2550_a-pic18f2550.asm
                    _UEP6   0x000f76       data     extern libdev18f2550_a-pic18f2550.asm
                _UEP6bits   0x000f76       data     extern libdev18f2550_a-pic18f2550.asm
                    _UEP7   0x000f77       data     extern libdev18f2550_a-pic18f2550.asm
                _UEP7bits   0x000f77       data     extern libdev18f2550_a-pic18f2550.asm
                    _UEP8   0x000f78       data     extern libdev18f2550_a-pic18f2550.asm
                _UEP8bits   0x000f78       data     extern libdev18f2550_a-pic18f2550.asm
                    _UEP9   0x000f79       data     extern libdev18f2550_a-pic18f2550.asm
                _UEP9bits   0x000f79       data     extern libdev18f2550_a-pic18f2550.asm
                    _UFRM   0x000f66       data     extern libdev18f2550_a-pic18f2550.asm
                   _UFRMH   0x000f67       data     extern libdev18f2550_a-pic18f2550.asm
               _UFRMHbits   0x000f67       data     extern libdev18f2550_a-pic18f2550.asm
                   _UFRML   0x000f66       data     extern libdev18f2550_a-pic18f2550.asm
               _UFRMLbits   0x000f66       data     extern libdev18f2550_a-pic18f2550.asm
                     _UIE   0x000f69       data     extern libdev18f2550_a-pic18f2550.asm
                 _UIEbits   0x000f69       data     extern libdev18f2550_a-pic18f2550.asm
                     _UIR   0x000f68       data     extern libdev18f2550_a-pic18f2550.asm
                 _UIRbits   0x000f68       data     extern libdev18f2550_a-pic18f2550.asm
            _USART_Status   0x000552       data     extern libio18f2550_a-usartd.asm
                   _USTAT   0x000f6c       data     extern libdev18f2550_a-pic18f2550.asm
               _USTATbits   0x000f6c       data     extern libdev18f2550_a-pic18f2550.asm
                  _WDTCON   0x000fd1       data     extern libdev18f2550_a-pic18f2550.asm
              _WDTCONbits   0x000fd1       data     extern libdev18f2550_a-pic18f2550.asm
                    _WREG   0x000fe8       data     extern libdev18f2550_a-pic18f2550.asm
      ___eeprom8_gptrget1   0x0052e8    program     extern eeprom8_gptrget1.asm
      ___eeprom8_gptrget2   0x0052aa    program     extern eeprom8_gptrget2.asm
      ___eeprom8_gptrget3   0x00521c    program     extern eeprom8_gptrget3.asm
      ___eeprom8_gptrget4   0x005114    program     extern eeprom8_gptrget4.asm
      ___eeprom8_gptrput1   0x00528a    program     extern eeprom8_gptrput1.asm
      ___eeprom8_gptrput3   0x0050e4    program     extern eeprom8_gptrput3.asm
         ___eeprom8_write   0x0053d0    program     extern eeprom8_write.asm
       ___eeprom_gptrget1   0x005410    program     extern gptr/eeprom8_gptrget1_dispatch.S
       ___eeprom_gptrget2   0x005414    program     extern gptr/eeprom8_gptrget2_dispatch.S
       ___eeprom_gptrget3   0x005418    program     extern gptr/eeprom8_gptrget3_dispatch.S
       ___eeprom_gptrget4   0x00541c    program     extern gptr/eeprom8_gptrget4_dispatch.S
       ___eeprom_gptrput1   0x00540c    program     extern gptr/eeprom8_gptrput1_dispatch.S
       ___eeprom_gptrput3   0x005420    program     extern gptr/eeprom8_gptrput3_dispatch.S
                 ___str_0   0x00371a    program     static vfprintf.asm
                 ___str_0   0x002d0a    program     static meter_logger.asm
                 ___str_1   0x002d2c    program     static meter_logger.asm
                ___str_10   0x002e32    program     static meter_logger.asm
                ___str_11   0x002e56    program     static meter_logger.asm
                ___str_12   0x002e7a    program     static meter_logger.asm
                ___str_13   0x002e92    program     static meter_logger.asm
                ___str_14   0x002eba    program     static meter_logger.asm
                ___str_15   0x002ee2    program     static meter_logger.asm
                ___str_16   0x002f0a    program     static meter_logger.asm
                 ___str_2   0x002d44    program     static meter_logger.asm
                 ___str_3   0x002d5c    program     static meter_logger.asm
                 ___str_4   0x002d88    program     static meter_logger.asm
                 ___str_5   0x002da2    program     static meter_logger.asm
                 ___str_6   0x002dce    program     static meter_logger.asm
                 ___str_7   0x002dd2    program     static meter_logger.asm
                 ___str_8   0x002dee    program     static meter_logger.asm
                 ___str_9   0x002e0e    program     static meter_logger.asm
  ___stream_gpsim_putchar   0x005400    program     extern strmgpsim.asm
   ___stream_mssp_putchar   0x000004    program     extern strmmssp.asm
        ___stream_putchar   0x0046be    program     extern strmputchar.asm
  ___stream_usart_putchar   0x00000c    program     extern strmusart.asm
                  __debug   0x004896    program     extern meter_logger.asm
                 __debug2   0x0047d0    program     extern meter_logger.asm
               __divulong   0x004492    program     extern divulong.asm
                  __entry   0x000000    program     extern crt0.asm
               __gptrget1   0x005268    program     extern gptrget1.asm
               __gptrget2   0x00519e    program     extern gptrget2.asm
               __gptrget3   0x00501a    program     extern gptrget3.asm
               __gptrget4   0x004eb0    program     extern gptrget4.asm
               __gptrput1   0x00536e    program     extern gptrput1.asm
               __gptrput3   0x0052ca    program     extern gptrput3.asm
               __modulong   0x00423a    program     extern modulong.asm
                __mullong   0x003950    program     extern mullong.asm
         __mullong_t1_1_2   0x000535       data     static mullong.asm
         __mullong_t2_1_2   0x000539       data     static mullong.asm
          __mullong_t_1_2   0x000531       data     static mullong.asm
          __mullong_x_1_2   0x000529       data     static mullong.asm
          __mullong_y_1_2   0x00052d       data     static mullong.asm
                __startup   0x0053ac    program     extern crt0.asm
                _adc_busy   0x0053f0    program     extern libio18f2550_a-adcbusy.asm
               _adc_close   0x005406    program     extern libio18f2550_a-adcclose.asm
                _adc_conv   0x000014    program     extern libio18f2550_a-adcconv.asm
                _adc_open   0x004c18    program     extern libio18f2550_a-adcopen.asm
                _adc_read   0x0053e0    program     extern libio18f2550_a-adcread.asm
          _adc_setchannel   0x004fa8    program     extern libio18f2550_a-adcsetch.asm
                       _c   0x00054e       data     extern meter_logger.asm
              _codec_type   0x000551       data     extern meter_logger.asm
            _debug_buffer   0x000060       data     extern meter_logger.asm
           _fifo_buffer_0   0x000700       data     extern meter_logger.asm
           _fifo_buffer_1   0x000100       data     extern meter_logger.asm
           _fifo_buffer_2   0x000200       data     extern meter_logger.asm
           _fifo_buffer_3   0x000300       data     extern meter_logger.asm
                _fifo_get   0x0040bc    program     extern meter_logger.asm
               _fifo_head   0x000542       data     extern meter_logger.asm
             _fifo_in_use   0x004fe2    program     extern meter_logger.asm
                _fifo_put   0x004374    program     extern meter_logger.asm
              _fifo_snoop   0x003f1c    program     extern meter_logger.asm
               _fifo_tail   0x000544       data     extern meter_logger.asm
               _flash_led   0x005244    program     extern meter_logger.asm
               _fsk_proto   0x000500       data     extern meter_logger.asm
          _fsk_rx_disable   0x005384    program     extern meter_logger.asm
           _fsk_rx_enable   0x004d7e    program     extern meter_logger.asm
             _fsk_tx_byte   0x005172    program     extern meter_logger.asm
          _fsk_tx_disable   0x005300    program     extern meter_logger.asm
           _fsk_tx_enable   0x005050    program     extern meter_logger.asm
       _get_battery_level   0x003726    program     extern meter_logger.asm
              _get_dev_id   0x004d0c    program     extern meter_logger.asm
             _init_system   0x004dda    program     extern meter_logger.asm
                 _islower   0x005144    program     extern islower.asm
           _isr_high_prio   0x002440    program     static meter_logger.asm
            _isr_low_prio   0x004a22    program     static meter_logger.asm
                 _lab_01_   0x004ec8    program     static gptrget4.asm
                 _lab_01_   0x0051ae    program     static gptrget2.asm
                 _lab_01_   0x0052e0    program     static gptrput3.asm
                 _lab_01_   0x005274    program     static gptrget1.asm
                 _lab_01_   0x00502e    program     static gptrget3.asm
                 _lab_01_   0x00537c    program     static gptrput1.asm
            _last_timer_0   0x00054a       data     extern meter_logger.asm
               _led_flash   0x00054c       data     extern meter_logger.asm
                    _ltoa   0x00495c    program     extern ltoa.asm
                    _main   0x00001c    program     extern meter_logger.asm
           _main_cmd_1_90   0x00054f       data     static meter_logger.asm
       _main_sub_cmd_1_90   0x000550       data     static meter_logger.asm
           _my_usart_open   0x0051ca    program     extern meter_logger.asm
                 _putchar   0x005424    program     extern putchar.asm
                 _reverse   0x004b8c    program     extern meter_logger.asm
    _rs232_7e1_rx_disable   0x005316    program     extern meter_logger.asm
     _rs232_7e1_rx_enable   0x004e30    program     extern meter_logger.asm
       _rs232_7e1_tx_byte   0x005084    program     extern meter_logger.asm
    _rs232_7e1_tx_disable   0x00532c    program     extern meter_logger.asm
     _rs232_7e1_tx_enable   0x004ef0    program     extern meter_logger.asm
    _rs232_8n2_rx_disable   0x005342    program     extern meter_logger.asm
     _rs232_8n2_rx_enable   0x004e70    program     extern meter_logger.asm
       _rs232_8n2_tx_byte   0x0050b4    program     extern meter_logger.asm
    _rs232_8n2_tx_disable   0x005358    program     extern meter_logger.asm
     _rs232_8n2_tx_enable   0x004f2e    program     extern meter_logger.asm
             _rs232_proto   0x000523       data     extern meter_logger.asm
           _send_fsk_high   0x000d3a    program     extern meter_logger.asm
            _send_fsk_low   0x0018fa    program     extern meter_logger.asm
                _sleep_ms   0x004ae6    program     extern meter_logger.asm
                 _sprintf   0x0045aa    program     extern sprintf.asm
                   _stack   0x000400       data     extern stack/stack.S
               _stack_end   0x0004ff       data     extern stack/stack.S
        _testo_ir_disable   0x005398    program     extern meter_logger.asm
         _testo_ir_enable   0x004f6c    program     extern meter_logger.asm
          _testo_ir_proto   0x00051d       data     extern meter_logger.asm
    _testo_valid_err_corr   0x003b64    program     extern meter_logger.asm
           _timer0_reload   0x000548       data     extern meter_logger.asm
                 _timer_0   0x000546       data     extern meter_logger.asm
              _timer_1_ms   0x000540       data     extern meter_logger.asm
                   _ultoa   0x003d64    program     extern ltoa.asm
        _ultoa_buffer_1_2   0x0000e0       data     static ltoa.asm
              _usart_busy   0x0053e8    program     extern libio18f2550_a-ubusy.asm
              _usart_drdy   0x0053f8    program     extern libio18f2550_a-udrdy.asm
              _usart_getc   0x0051f4    program     extern libio18f2550_a-ugetc.asm
              _usart_putc   0x0053c0    program     extern libio18f2550_a-uputc.asm
              _usart_puts   0x004c94    program     extern libio18f2550_a-uputs.asm
                _vfprintf   0x002f1a    program     extern vfprintf.asm
    _vfprintf_buffer_1_41   0x000510       data     static vfprintf.asm
_vfprintf_stringbuffer_1_41   0x00053d       data     static vfprintf.asm
   ivec_0x1_isr_high_prio   0x000008    program     static meter_logger.asm
    ivec_0x2_isr_low_prio   0x000018    program     static meter_logger.asm
                   lockup   0x0053be    program     static crt0.asm
                    r0x00   0x000000       data     static vfprintf.asm
                    r0x00   0x000000       data     static strmputchar.asm
                    r0x00   0x000000       data     static islower.asm
                    r0x00   0x000000       data     static ltoa.asm
                    r0x00   0x000000       data     static libio18f2550_a-adcsetch.asm
                    r0x00   0x000000       data     static libio18f2550_a-uputs.asm
                    r0x00   0x000000       data     static mullong.asm
                    r0x00   0x000000       data     static divulong.asm
                    r0x00   0x000000       data     static libio18f2550_a-adcopen.asm
                    r0x00   0x000000       data     static modulong.asm
                    r0x00   0x000000       data     static sprintf.asm
                    r0x00   0x000000       data     static meter_logger.asm
                    r0x01   0x000001       data     static meter_logger.asm
                    r0x01   0x000001       data     static libio18f2550_a-uputs.asm
                    r0x01   0x000001       data     static mullong.asm
                    r0x01   0x000001       data     static strmputchar.asm
                    r0x01   0x000001       data     static modulong.asm
                    r0x01   0x000001       data     static vfprintf.asm
                    r0x01   0x000001       data     static ltoa.asm
                    r0x01   0x000001       data     static divulong.asm
                    r0x01   0x000001       data     static libio18f2550_a-adcsetch.asm
                    r0x01   0x000001       data     static libio18f2550_a-adcopen.asm
                    r0x01   0x000001       data     static sprintf.asm
                    r0x02   0x000002       data     static meter_logger.asm
                    r0x02   0x000002       data     static strmputchar.asm
                    r0x02   0x000002       data     static sprintf.asm
                    r0x02   0x000002       data     static mullong.asm
                    r0x02   0x000002       data     static modulong.asm
                    r0x02   0x000002       data     static libio18f2550_a-uputs.asm
                    r0x02   0x000002       data     static libio18f2550_a-adcopen.asm
                    r0x02   0x000002       data     static ltoa.asm
                    r0x02   0x000002       data     static vfprintf.asm
                    r0x02   0x000002       data     static divulong.asm
                    r0x03   0x000003       data     static vfprintf.asm
                    r0x03   0x000003       data     static meter_logger.asm
                    r0x03   0x000003       data     static modulong.asm
                    r0x03   0x000003       data     static divulong.asm
                    r0x03   0x000003       data     static strmputchar.asm
                    r0x03   0x000003       data     static mullong.asm
                    r0x03   0x000003       data     static libio18f2550_a-adcopen.asm
                    r0x03   0x000003       data     static libio18f2550_a-uputs.asm
                    r0x03   0x000003       data     static sprintf.asm
                    r0x03   0x000003       data     static ltoa.asm
                    r0x04   0x000004       data     static sprintf.asm
                    r0x04   0x000004       data     static modulong.asm
                    r0x04   0x000004       data     static meter_logger.asm
                    r0x04   0x000004       data     static divulong.asm
                    r0x04   0x000004       data     static strmputchar.asm
                    r0x04   0x000004       data     static vfprintf.asm
                    r0x04   0x000004       data     static mullong.asm
                    r0x04   0x000004       data     static ltoa.asm
                    r0x05   0x000005       data     static vfprintf.asm
                    r0x05   0x000005       data     static strmputchar.asm
                    r0x05   0x000005       data     static ltoa.asm
                    r0x05   0x000005       data     static sprintf.asm
                    r0x05   0x000005       data     static divulong.asm
                    r0x05   0x000005       data     static modulong.asm
                    r0x05   0x000005       data     static mullong.asm
                    r0x05   0x000005       data     static meter_logger.asm
                    r0x06   0x000006       data     static sprintf.asm
                    r0x06   0x000006       data     static ltoa.asm
                    r0x06   0x000006       data     static vfprintf.asm
                    r0x06   0x000006       data     static meter_logger.asm
                    r0x06   0x000006       data     static divulong.asm
                    r0x06   0x000006       data     static mullong.asm
                    r0x06   0x000006       data     static modulong.asm
                    r0x06   0x000006       data     static strmputchar.asm
                    r0x07   0x000007       data     static meter_logger.asm
                    r0x07   0x000007       data     static modulong.asm
                    r0x07   0x000007       data     static vfprintf.asm
                    r0x07   0x000007       data     static sprintf.asm
                    r0x07   0x000007       data     static ltoa.asm
                    r0x07   0x000007       data     static divulong.asm
                    r0x07   0x000007       data     static strmputchar.asm
                    r0x07   0x000007       data     static mullong.asm
                    r0x08   0x000008       data     static divulong.asm
                    r0x08   0x000008       data     static sprintf.asm
                    r0x08   0x000008       data     static ltoa.asm
                    r0x08   0x000008       data     static vfprintf.asm
                    r0x08   0x000008       data     static modulong.asm
                    r0x08   0x000008       data     static meter_logger.asm
                    r0x09   0x000009       data     static vfprintf.asm
                    r0x09   0x000009       data     static divulong.asm
                    r0x09   0x000009       data     static meter_logger.asm
                    r0x09   0x000009       data     static modulong.asm
                    r0x09   0x000009       data     static ltoa.asm
                    r0x0a   0x00000a       data     static meter_logger.asm
                    r0x0a   0x00000a       data     static vfprintf.asm
                    r0x0a   0x00000a       data     static ltoa.asm
                    r0x0a   0x00000a       data     static divulong.asm
                    r0x0a   0x00000a       data     static modulong.asm
                    r0x0b   0x00000b       data     static meter_logger.asm
                    r0x0b   0x00000b       data     static vfprintf.asm
                    r0x0b   0x00000b       data     static ltoa.asm
                    r0x0b   0x00000b       data     static divulong.asm
                    r0x0c   0x00000c       data     static meter_logger.asm
                    r0x0c   0x00000c       data     static divulong.asm
                    r0x0c   0x00000c       data     static ltoa.asm
                    r0x0c   0x00000c       data     static vfprintf.asm
                    r0x0d   0x00000d       data     static ltoa.asm
                    r0x0d   0x00000d       data     static vfprintf.asm
                    r0x0d   0x00000d       data     static meter_logger.asm
                    r0x0d   0x00000d       data     static divulong.asm
                    r0x0e   0x00000e       data     static ltoa.asm
                    r0x0e   0x00000e       data     static vfprintf.asm
                    r0x0f   0x00000f       data     static vfprintf.asm
                    r0x0f   0x00000f       data     static ltoa.asm
                    r0x10   0x000010       data     static vfprintf.asm
                    r0x11   0x000011       data     static vfprintf.asm
                    r0x12   0x000012       data     static vfprintf.asm
                    r0x13   0x000013       data     static vfprintf.asm
                    r0x14   0x000014       data     static vfprintf.asm
                    r0x15   0x000015       data     static vfprintf.asm
                    r0x16   0x000016       data     static vfprintf.asm
                    r0x17   0x000017       data     static vfprintf.asm
                    r0x18   0x000018       data     static vfprintf.asm
                    r0x19   0x000019       data     static vfprintf.asm
                    r0x1a   0x00001a       data     static vfprintf.asm
                    r0x1b   0x00001b       data     static vfprintf.asm
                    r0x1c   0x00001c       data     static vfprintf.asm
                    r0x1d   0x00001d       data     static vfprintf.asm
                    r0x1e   0x00001e       data     static vfprintf.asm
           wait_till_done   0x0053da    program     static eeprom8_write.asm



                              Symbols - Sorted by Address
                     Name    Address   Location    Storage File
                ---------  ---------  ---------  --------- ---------
                    r0x00   0x000000       data     static meter_logger.asm
                    r0x00   0x000000       data     static strmputchar.asm
                    r0x00   0x000000       data     static islower.asm
                    r0x00   0x000000       data     static ltoa.asm
                  __entry   0x000000    program     extern crt0.asm
                    r0x00   0x000000       data     static libio18f2550_a-adcsetch.asm
                    r0x00   0x000000       data     static libio18f2550_a-uputs.asm
                    r0x00   0x000000       data     static mullong.asm
                    r0x00   0x000000       data     static divulong.asm
                    r0x00   0x000000       data     static libio18f2550_a-adcopen.asm
                    r0x00   0x000000       data     static modulong.asm
                    r0x00   0x000000       data     static sprintf.asm
                    r0x00   0x000000       data     static vfprintf.asm
                    r0x01   0x000001       data     static modulong.asm
                    r0x01   0x000001       data     static meter_logger.asm
                    r0x01   0x000001       data     static libio18f2550_a-uputs.asm
                    r0x01   0x000001       data     static mullong.asm
                    r0x01   0x000001       data     static strmputchar.asm
                    r0x01   0x000001       data     static vfprintf.asm
                    r0x01   0x000001       data     static ltoa.asm
                    r0x01   0x000001       data     static divulong.asm
                    r0x01   0x000001       data     static libio18f2550_a-adcsetch.asm
                    r0x01   0x000001       data     static libio18f2550_a-adcopen.asm
                    r0x01   0x000001       data     static sprintf.asm
                    r0x02   0x000002       data     static meter_logger.asm
                    r0x02   0x000002       data     static sprintf.asm
                    r0x02   0x000002       data     static mullong.asm
                    r0x02   0x000002       data     static modulong.asm
                    r0x02   0x000002       data     static libio18f2550_a-uputs.asm
                    r0x02   0x000002       data     static libio18f2550_a-adcopen.asm
                    r0x02   0x000002       data     static ltoa.asm
                    r0x02   0x000002       data     static vfprintf.asm
                    r0x02   0x000002       data     static divulong.asm
                    r0x02   0x000002       data     static strmputchar.asm
                    r0x03   0x000003       data     static ltoa.asm
                    r0x03   0x000003       data     static vfprintf.asm
                    r0x03   0x000003       data     static meter_logger.asm
                    r0x03   0x000003       data     static modulong.asm
                    r0x03   0x000003       data     static divulong.asm
                    r0x03   0x000003       data     static strmputchar.asm
                    r0x03   0x000003       data     static mullong.asm
                    r0x03   0x000003       data     static libio18f2550_a-adcopen.asm
                    r0x03   0x000003       data     static libio18f2550_a-uputs.asm
                    r0x03   0x000003       data     static sprintf.asm
                    r0x04   0x000004       data     static sprintf.asm
   ___stream_mssp_putchar   0x000004    program     extern strmmssp.asm
                    r0x04   0x000004       data     static ltoa.asm
                    r0x04   0x000004       data     static mullong.asm
                    r0x04   0x000004       data     static vfprintf.asm
                    r0x04   0x000004       data     static strmputchar.asm
                    r0x04   0x000004       data     static divulong.asm
                    r0x04   0x000004       data     static meter_logger.asm
                    r0x04   0x000004       data     static modulong.asm
                    r0x05   0x000005       data     static strmputchar.asm
                    r0x05   0x000005       data     static sprintf.asm
                    r0x05   0x000005       data     static ltoa.asm
                    r0x05   0x000005       data     static mullong.asm
                    r0x05   0x000005       data     static meter_logger.asm
                    r0x05   0x000005       data     static vfprintf.asm
                    r0x05   0x000005       data     static divulong.asm
                    r0x05   0x000005       data     static modulong.asm
                    r0x06   0x000006       data     static modulong.asm
                    r0x06   0x000006       data     static mullong.asm
                    r0x06   0x000006       data     static vfprintf.asm
                    r0x06   0x000006       data     static meter_logger.asm
                    r0x06   0x000006       data     static divulong.asm
                    r0x06   0x000006       data     static strmputchar.asm
                    r0x06   0x000006       data     static sprintf.asm
                    r0x06   0x000006       data     static ltoa.asm
                    r0x07   0x000007       data     static sprintf.asm
                    r0x07   0x000007       data     static ltoa.asm
                    r0x07   0x000007       data     static mullong.asm
                    r0x07   0x000007       data     static divulong.asm
                    r0x07   0x000007       data     static strmputchar.asm
                    r0x07   0x000007       data     static meter_logger.asm
                    r0x07   0x000007       data     static modulong.asm
                    r0x07   0x000007       data     static vfprintf.asm
                    r0x08   0x000008       data     static divulong.asm
   ivec_0x1_isr_high_prio   0x000008    program     static meter_logger.asm
                    r0x08   0x000008       data     static sprintf.asm
                    r0x08   0x000008       data     static meter_logger.asm
                    r0x08   0x000008       data     static vfprintf.asm
                    r0x08   0x000008       data     static ltoa.asm
                    r0x08   0x000008       data     static modulong.asm
                    r0x09   0x000009       data     static divulong.asm
                    r0x09   0x000009       data     static ltoa.asm
                    r0x09   0x000009       data     static modulong.asm
                    r0x09   0x000009       data     static meter_logger.asm
                    r0x09   0x000009       data     static vfprintf.asm
                    r0x0a   0x00000a       data     static divulong.asm
                    r0x0a   0x00000a       data     static vfprintf.asm
                    r0x0a   0x00000a       data     static modulong.asm
                    r0x0a   0x00000a       data     static meter_logger.asm
                    r0x0a   0x00000a       data     static ltoa.asm
                    r0x0b   0x00000b       data     static divulong.asm
                    r0x0b   0x00000b       data     static vfprintf.asm
                    r0x0b   0x00000b       data     static ltoa.asm
                    r0x0b   0x00000b       data     static meter_logger.asm
                    r0x0c   0x00000c       data     static vfprintf.asm
  ___stream_usart_putchar   0x00000c    program     extern strmusart.asm
                    r0x0c   0x00000c       data     static divulong.asm
                       @1   0x00000c    program     static strmusart.asm
                    r0x0c   0x00000c       data     static ltoa.asm
                    r0x0c   0x00000c       data     static meter_logger.asm
                    r0x0d   0x00000d       data     static divulong.asm
                    r0x0d   0x00000d       data     static vfprintf.asm
                    r0x0d   0x00000d       data     static meter_logger.asm
                    r0x0d   0x00000d       data     static ltoa.asm
                    r0x0e   0x00000e       data     static vfprintf.asm
                    r0x0e   0x00000e       data     static ltoa.asm
                    r0x0f   0x00000f       data     static ltoa.asm
                    r0x0f   0x00000f       data     static vfprintf.asm
                    r0x10   0x000010       data     static vfprintf.asm
                    r0x11   0x000011       data     static vfprintf.asm
                    r0x12   0x000012       data     static vfprintf.asm
                    r0x13   0x000013       data     static vfprintf.asm
                    r0x14   0x000014       data     static vfprintf.asm
                _adc_conv   0x000014    program     extern libio18f2550_a-adcconv.asm
                    r0x15   0x000015       data     static vfprintf.asm
                    r0x16   0x000016       data     static vfprintf.asm
                    r0x17   0x000017       data     static vfprintf.asm
    ivec_0x2_isr_low_prio   0x000018    program     static meter_logger.asm
                    r0x18   0x000018       data     static vfprintf.asm
                    r0x19   0x000019       data     static vfprintf.asm
                    r0x1a   0x00001a       data     static vfprintf.asm
                    r0x1b   0x00001b       data     static vfprintf.asm
                    r0x1c   0x00001c       data     static vfprintf.asm
                    _main   0x00001c    program     extern meter_logger.asm
                    r0x1d   0x00001d       data     static vfprintf.asm
                    r0x1e   0x00001e       data     static vfprintf.asm
            _debug_buffer   0x000060       data     extern meter_logger.asm
               _00325_DS_   0x00008a    program     static meter_logger.asm
               _00326_DS_   0x00008c    program     static meter_logger.asm
               _00109_DS_   0x0000c6    program     static meter_logger.asm
               _00327_DS_   0x0000d2    program     static meter_logger.asm
               _00328_DS_   0x0000d4    program     static meter_logger.asm
        _ultoa_buffer_1_2   0x0000e0       data     static ltoa.asm
           _fifo_buffer_1   0x000100       data     extern meter_logger.asm
               _00106_DS_   0x00010e    program     static meter_logger.asm
               _00110_DS_   0x00014e    program     static meter_logger.asm
               _00168_DS_   0x000172    program     static meter_logger.asm
               _00330_DS_   0x0001c4    program     static meter_logger.asm
               _00111_DS_   0x0001d8    program     static meter_logger.asm
           _fifo_buffer_2   0x000200       data     extern meter_logger.asm
               _00112_DS_   0x00021e    program     static meter_logger.asm
               _00331_DS_   0x000228    program     static meter_logger.asm
               _00114_DS_   0x00024e    program     static meter_logger.asm
               _00171_DS_   0x000276    program     static meter_logger.asm
               _00332_DS_   0x00028a    program     static meter_logger.asm
           _fifo_buffer_3   0x000300       data     extern meter_logger.asm
               _00115_DS_   0x000326    program     static meter_logger.asm
               _00116_DS_   0x00032a    program     static meter_logger.asm
               _00118_DS_   0x00036e    program     static meter_logger.asm
               _00119_DS_   0x000398    program     static meter_logger.asm
               _00120_DS_   0x0003de    program     static meter_logger.asm
               _00333_DS_   0x0003e8    program     static meter_logger.asm
                   _stack   0x000400       data     extern stack/stack.S
               _00122_DS_   0x00040e    program     static meter_logger.asm
               _00174_DS_   0x000416    program     static meter_logger.asm
               _00334_DS_   0x00042a    program     static meter_logger.asm
               _00123_DS_   0x0004c6    program     static meter_logger.asm
               _00124_DS_   0x0004ca    program     static meter_logger.asm
               _stack_end   0x0004ff       data     extern stack/stack.S
               _fsk_proto   0x000500       data     extern meter_logger.asm
               _00126_DS_   0x00050e    program     static meter_logger.asm
    _vfprintf_buffer_1_41   0x000510       data     static vfprintf.asm
          _testo_ir_proto   0x00051d       data     extern meter_logger.asm
             _rs232_proto   0x000523       data     extern meter_logger.asm
          __mullong_x_1_2   0x000529       data     static mullong.asm
          __mullong_y_1_2   0x00052d       data     static mullong.asm
          __mullong_t_1_2   0x000531       data     static mullong.asm
         __mullong_t1_1_2   0x000535       data     static mullong.asm
               _00127_DS_   0x000538    program     static meter_logger.asm
         __mullong_t2_1_2   0x000539       data     static mullong.asm
_vfprintf_stringbuffer_1_41   0x00053d       data     static vfprintf.asm
              _timer_1_ms   0x000540       data     extern meter_logger.asm
               _fifo_head   0x000542       data     extern meter_logger.asm
               _fifo_tail   0x000544       data     extern meter_logger.asm
                 _timer_0   0x000546       data     extern meter_logger.asm
           _timer0_reload   0x000548       data     extern meter_logger.asm
            _last_timer_0   0x00054a       data     extern meter_logger.asm
               _led_flash   0x00054c       data     extern meter_logger.asm
                       _c   0x00054e       data     extern meter_logger.asm
           _main_cmd_1_90   0x00054f       data     static meter_logger.asm
       _main_sub_cmd_1_90   0x000550       data     static meter_logger.asm
              _codec_type   0x000551       data     extern meter_logger.asm
            _USART_Status   0x000552       data     extern libio18f2550_a-usartd.asm
               _00128_DS_   0x00057e    program     static meter_logger.asm
               _00335_DS_   0x000588    program     static meter_logger.asm
               _00130_DS_   0x0005ae    program     static meter_logger.asm
               _00177_DS_   0x0005d6    program     static meter_logger.asm
               _00336_DS_   0x0005ea    program     static meter_logger.asm
               _00131_DS_   0x000686    program     static meter_logger.asm
               _00132_DS_   0x000696    program     static meter_logger.asm
               _00134_DS_   0x0006da    program     static meter_logger.asm
           _fifo_buffer_0   0x000700       data     extern meter_logger.asm
               _00135_DS_   0x00070c    program     static meter_logger.asm
               _00337_DS_   0x000716    program     static meter_logger.asm
               _00137_DS_   0x00073c    program     static meter_logger.asm
               _00180_DS_   0x000764    program     static meter_logger.asm
               _00338_DS_   0x000778    program     static meter_logger.asm
               _00138_DS_   0x000814    program     static meter_logger.asm
               _00139_DS_   0x000830    program     static meter_logger.asm
               _00141_DS_   0x000874    program     static meter_logger.asm
               _00143_DS_   0x00087a    program     static meter_logger.asm
               _00144_DS_   0x000908    program     static meter_logger.asm
               _00145_DS_   0x000930    program     static meter_logger.asm
               _00146_DS_   0x000976    program     static meter_logger.asm
               _00339_DS_   0x000980    program     static meter_logger.asm
               _00148_DS_   0x0009a6    program     static meter_logger.asm
               _00183_DS_   0x0009ce    program     static meter_logger.asm
               _00340_DS_   0x0009e2    program     static meter_logger.asm
               _00149_DS_   0x000a7e    program     static meter_logger.asm
               _00150_DS_   0x000a8e    program     static meter_logger.asm
               _00152_DS_   0x000ad2    program     static meter_logger.asm
               _00153_DS_   0x000b04    program     static meter_logger.asm
               _00341_DS_   0x000b0e    program     static meter_logger.asm
               _00155_DS_   0x000b34    program     static meter_logger.asm
               _00186_DS_   0x000b5c    program     static meter_logger.asm
               _00342_DS_   0x000b70    program     static meter_logger.asm
               _00156_DS_   0x000c0c    program     static meter_logger.asm
               _00157_DS_   0x000c28    program     static meter_logger.asm
               _00159_DS_   0x000c6c    program     static meter_logger.asm
               _00161_DS_   0x000c72    program     static meter_logger.asm
               _00162_DS_   0x000d00    program     static meter_logger.asm
               _00163_DS_   0x000d28    program     static meter_logger.asm
           _send_fsk_high   0x000d3a    program     extern meter_logger.asm
                   _UFRML   0x000f66       data     extern libdev18f2550_a-pic18f2550.asm
               _UFRMLbits   0x000f66       data     extern libdev18f2550_a-pic18f2550.asm
                    _UFRM   0x000f66       data     extern libdev18f2550_a-pic18f2550.asm
                   _UFRMH   0x000f67       data     extern libdev18f2550_a-pic18f2550.asm
               _UFRMHbits   0x000f67       data     extern libdev18f2550_a-pic18f2550.asm
                 _UIRbits   0x000f68       data     extern libdev18f2550_a-pic18f2550.asm
                     _UIR   0x000f68       data     extern libdev18f2550_a-pic18f2550.asm
                     _UIE   0x000f69       data     extern libdev18f2550_a-pic18f2550.asm
                 _UIEbits   0x000f69       data     extern libdev18f2550_a-pic18f2550.asm
                    _UEIR   0x000f6a       data     extern libdev18f2550_a-pic18f2550.asm
                _UEIRbits   0x000f6a       data     extern libdev18f2550_a-pic18f2550.asm
                    _UEIE   0x000f6b       data     extern libdev18f2550_a-pic18f2550.asm
                _UEIEbits   0x000f6b       data     extern libdev18f2550_a-pic18f2550.asm
                   _USTAT   0x000f6c       data     extern libdev18f2550_a-pic18f2550.asm
               _USTATbits   0x000f6c       data     extern libdev18f2550_a-pic18f2550.asm
                    _UCON   0x000f6d       data     extern libdev18f2550_a-pic18f2550.asm
                _UCONbits   0x000f6d       data     extern libdev18f2550_a-pic18f2550.asm
               _UADDRbits   0x000f6e       data     extern libdev18f2550_a-pic18f2550.asm
                   _UADDR   0x000f6e       data     extern libdev18f2550_a-pic18f2550.asm
                _UCFGbits   0x000f6f       data     extern libdev18f2550_a-pic18f2550.asm
                    _UCFG   0x000f6f       data     extern libdev18f2550_a-pic18f2550.asm
                    _UEP0   0x000f70       data     extern libdev18f2550_a-pic18f2550.asm
                _UEP0bits   0x000f70       data     extern libdev18f2550_a-pic18f2550.asm
                _UEP1bits   0x000f71       data     extern libdev18f2550_a-pic18f2550.asm
                    _UEP1   0x000f71       data     extern libdev18f2550_a-pic18f2550.asm
                _UEP2bits   0x000f72       data     extern libdev18f2550_a-pic18f2550.asm
                    _UEP2   0x000f72       data     extern libdev18f2550_a-pic18f2550.asm
                _UEP3bits   0x000f73       data     extern libdev18f2550_a-pic18f2550.asm
                    _UEP3   0x000f73       data     extern libdev18f2550_a-pic18f2550.asm
                _UEP4bits   0x000f74       data     extern libdev18f2550_a-pic18f2550.asm
                    _UEP4   0x000f74       data     extern libdev18f2550_a-pic18f2550.asm
                _UEP5bits   0x000f75       data     extern libdev18f2550_a-pic18f2550.asm
                    _UEP5   0x000f75       data     extern libdev18f2550_a-pic18f2550.asm
                _UEP6bits   0x000f76       data     extern libdev18f2550_a-pic18f2550.asm
                    _UEP6   0x000f76       data     extern libdev18f2550_a-pic18f2550.asm
                    _UEP7   0x000f77       data     extern libdev18f2550_a-pic18f2550.asm
                _UEP7bits   0x000f77       data     extern libdev18f2550_a-pic18f2550.asm
                    _UEP8   0x000f78       data     extern libdev18f2550_a-pic18f2550.asm
                _UEP8bits   0x000f78       data     extern libdev18f2550_a-pic18f2550.asm
                    _UEP9   0x000f79       data     extern libdev18f2550_a-pic18f2550.asm
                _UEP9bits   0x000f79       data     extern libdev18f2550_a-pic18f2550.asm
                   _UEP10   0x000f7a       data     extern libdev18f2550_a-pic18f2550.asm
               _UEP10bits   0x000f7a       data     extern libdev18f2550_a-pic18f2550.asm
                   _UEP11   0x000f7b       data     extern libdev18f2550_a-pic18f2550.asm
               _UEP11bits   0x000f7b       data     extern libdev18f2550_a-pic18f2550.asm
                   _UEP12   0x000f7c       data     extern libdev18f2550_a-pic18f2550.asm
               _UEP12bits   0x000f7c       data     extern libdev18f2550_a-pic18f2550.asm
                   _UEP13   0x000f7d       data     extern libdev18f2550_a-pic18f2550.asm
               _UEP13bits   0x000f7d       data     extern libdev18f2550_a-pic18f2550.asm
                   _UEP14   0x000f7e       data     extern libdev18f2550_a-pic18f2550.asm
               _UEP14bits   0x000f7e       data     extern libdev18f2550_a-pic18f2550.asm
                   _UEP15   0x000f7f       data     extern libdev18f2550_a-pic18f2550.asm
               _UEP15bits   0x000f7f       data     extern libdev18f2550_a-pic18f2550.asm
               _PORTAbits   0x000f80       data     extern libdev18f2550_a-pic18f2550.asm
                   _PORTA   0x000f80       data     extern libdev18f2550_a-pic18f2550.asm
               _PORTBbits   0x000f81       data     extern libdev18f2550_a-pic18f2550.asm
                   _PORTB   0x000f81       data     extern libdev18f2550_a-pic18f2550.asm
               _PORTCbits   0x000f82       data     extern libdev18f2550_a-pic18f2550.asm
                   _PORTC   0x000f82       data     extern libdev18f2550_a-pic18f2550.asm
               _PORTEbits   0x000f84       data     extern libdev18f2550_a-pic18f2550.asm
                   _PORTE   0x000f84       data     extern libdev18f2550_a-pic18f2550.asm
                    _LATA   0x000f89       data     extern libdev18f2550_a-pic18f2550.asm
                _LATAbits   0x000f89       data     extern libdev18f2550_a-pic18f2550.asm
                _LATBbits   0x000f8a       data     extern libdev18f2550_a-pic18f2550.asm
                    _LATB   0x000f8a       data     extern libdev18f2550_a-pic18f2550.asm
                    _LATC   0x000f8b       data     extern libdev18f2550_a-pic18f2550.asm
                _LATCbits   0x000f8b       data     extern libdev18f2550_a-pic18f2550.asm
                   _TRISA   0x000f92       data     extern libdev18f2550_a-pic18f2550.asm
                _DDRAbits   0x000f92       data     extern libdev18f2550_a-pic18f2550.asm
                    _DDRA   0x000f92       data     extern libdev18f2550_a-pic18f2550.asm
               _TRISAbits   0x000f92       data     extern libdev18f2550_a-pic18f2550.asm
                    _DDRB   0x000f93       data     extern libdev18f2550_a-pic18f2550.asm
               _TRISBbits   0x000f93       data     extern libdev18f2550_a-pic18f2550.asm
                   _TRISB   0x000f93       data     extern libdev18f2550_a-pic18f2550.asm
                _DDRBbits   0x000f93       data     extern libdev18f2550_a-pic18f2550.asm
               _TRISCbits   0x000f94       data     extern libdev18f2550_a-pic18f2550.asm
                _DDRCbits   0x000f94       data     extern libdev18f2550_a-pic18f2550.asm
                    _DDRC   0x000f94       data     extern libdev18f2550_a-pic18f2550.asm
                   _TRISC   0x000f94       data     extern libdev18f2550_a-pic18f2550.asm
                 _OSCTUNE   0x000f9b       data     extern libdev18f2550_a-pic18f2550.asm
             _OSCTUNEbits   0x000f9b       data     extern libdev18f2550_a-pic18f2550.asm
                    _PIE1   0x000f9d       data     extern libdev18f2550_a-pic18f2550.asm
                _PIE1bits   0x000f9d       data     extern libdev18f2550_a-pic18f2550.asm
                    _PIR1   0x000f9e       data     extern libdev18f2550_a-pic18f2550.asm
                _PIR1bits   0x000f9e       data     extern libdev18f2550_a-pic18f2550.asm
                _IPR1bits   0x000f9f       data     extern libdev18f2550_a-pic18f2550.asm
                    _IPR1   0x000f9f       data     extern libdev18f2550_a-pic18f2550.asm
                    _PIE2   0x000fa0       data     extern libdev18f2550_a-pic18f2550.asm
                _PIE2bits   0x000fa0       data     extern libdev18f2550_a-pic18f2550.asm
                    _PIR2   0x000fa1       data     extern libdev18f2550_a-pic18f2550.asm
                _PIR2bits   0x000fa1       data     extern libdev18f2550_a-pic18f2550.asm
                    _IPR2   0x000fa2       data     extern libdev18f2550_a-pic18f2550.asm
                _IPR2bits   0x000fa2       data     extern libdev18f2550_a-pic18f2550.asm
                  _EECON1   0x000fa6       data     extern libdev18f2550_a-pic18f2550.asm
              _EECON1bits   0x000fa6       data     extern libdev18f2550_a-pic18f2550.asm
                  _EECON2   0x000fa7       data     extern libdev18f2550_a-pic18f2550.asm
                  _EEDATA   0x000fa8       data     extern libdev18f2550_a-pic18f2550.asm
                   _EEADR   0x000fa9       data     extern libdev18f2550_a-pic18f2550.asm
               _RCSTAbits   0x000fab       data     extern libdev18f2550_a-pic18f2550.asm
                   _RCSTA   0x000fab       data     extern libdev18f2550_a-pic18f2550.asm
               _TXSTAbits   0x000fac       data     extern libdev18f2550_a-pic18f2550.asm
                   _TXSTA   0x000fac       data     extern libdev18f2550_a-pic18f2550.asm
                   _TXREG   0x000fad       data     extern libdev18f2550_a-pic18f2550.asm
                   _RCREG   0x000fae       data     extern libdev18f2550_a-pic18f2550.asm
                   _SPBRG   0x000faf       data     extern libdev18f2550_a-pic18f2550.asm
                  _SPBRGH   0x000fb0       data     extern libdev18f2550_a-pic18f2550.asm
                   _T3CON   0x000fb1       data     extern libdev18f2550_a-pic18f2550.asm
               _T3CONbits   0x000fb1       data     extern libdev18f2550_a-pic18f2550.asm
                   _TMR3L   0x000fb2       data     extern libdev18f2550_a-pic18f2550.asm
                    _TMR3   0x000fb2       data     extern libdev18f2550_a-pic18f2550.asm
                   _TMR3H   0x000fb3       data     extern libdev18f2550_a-pic18f2550.asm
               _CMCONbits   0x000fb4       data     extern libdev18f2550_a-pic18f2550.asm
                   _CMCON   0x000fb4       data     extern libdev18f2550_a-pic18f2550.asm
              _CVRCONbits   0x000fb5       data     extern libdev18f2550_a-pic18f2550.asm
                  _CVRCON   0x000fb5       data     extern libdev18f2550_a-pic18f2550.asm
                  _CCP1AS   0x000fb6       data     extern libdev18f2550_a-pic18f2550.asm
              _CCP1ASbits   0x000fb6       data     extern libdev18f2550_a-pic18f2550.asm
                 _ECCP1AS   0x000fb6       data     extern libdev18f2550_a-pic18f2550.asm
             _ECCP1ASbits   0x000fb6       data     extern libdev18f2550_a-pic18f2550.asm
             _CCP1DELbits   0x000fb7       data     extern libdev18f2550_a-pic18f2550.asm
            _ECCP1DELbits   0x000fb7       data     extern libdev18f2550_a-pic18f2550.asm
                _ECCP1DEL   0x000fb7       data     extern libdev18f2550_a-pic18f2550.asm
                 _CCP1DEL   0x000fb7       data     extern libdev18f2550_a-pic18f2550.asm
                 _BAUDCTL   0x000fb8       data     extern libdev18f2550_a-pic18f2550.asm
             _BAUDCTLbits   0x000fb8       data     extern libdev18f2550_a-pic18f2550.asm
                 _BAUDCON   0x000fb8       data     extern libdev18f2550_a-pic18f2550.asm
             _BAUDCONbits   0x000fb8       data     extern libdev18f2550_a-pic18f2550.asm
             _CCP2CONbits   0x000fba       data     extern libdev18f2550_a-pic18f2550.asm
                 _CCP2CON   0x000fba       data     extern libdev18f2550_a-pic18f2550.asm
                   _CCPR2   0x000fbb       data     extern libdev18f2550_a-pic18f2550.asm
                  _CCPR2L   0x000fbb       data     extern libdev18f2550_a-pic18f2550.asm
                  _CCPR2H   0x000fbc       data     extern libdev18f2550_a-pic18f2550.asm
                 _CCP1CON   0x000fbd       data     extern libdev18f2550_a-pic18f2550.asm
             _CCP1CONbits   0x000fbd       data     extern libdev18f2550_a-pic18f2550.asm
                  _CCPR1L   0x000fbe       data     extern libdev18f2550_a-pic18f2550.asm
                   _CCPR1   0x000fbe       data     extern libdev18f2550_a-pic18f2550.asm
                  _CCPR1H   0x000fbf       data     extern libdev18f2550_a-pic18f2550.asm
                  _ADCON2   0x000fc0       data     extern libdev18f2550_a-pic18f2550.asm
              _ADCON2bits   0x000fc0       data     extern libdev18f2550_a-pic18f2550.asm
                  _ADCON1   0x000fc1       data     extern libdev18f2550_a-pic18f2550.asm
              _ADCON1bits   0x000fc1       data     extern libdev18f2550_a-pic18f2550.asm
                  _ADCON0   0x000fc2       data     extern libdev18f2550_a-pic18f2550.asm
              _ADCON0bits   0x000fc2       data     extern libdev18f2550_a-pic18f2550.asm
                   _ADRES   0x000fc3       data     extern libdev18f2550_a-pic18f2550.asm
                  _ADRESL   0x000fc3       data     extern libdev18f2550_a-pic18f2550.asm
                  _ADRESH   0x000fc4       data     extern libdev18f2550_a-pic18f2550.asm
             _SSPCON2bits   0x000fc5       data     extern libdev18f2550_a-pic18f2550.asm
                 _SSPCON2   0x000fc5       data     extern libdev18f2550_a-pic18f2550.asm
                 _SSPCON1   0x000fc6       data     extern libdev18f2550_a-pic18f2550.asm
             _SSPCON1bits   0x000fc6       data     extern libdev18f2550_a-pic18f2550.asm
             _SSPSTATbits   0x000fc7       data     extern libdev18f2550_a-pic18f2550.asm
                 _SSPSTAT   0x000fc7       data     extern libdev18f2550_a-pic18f2550.asm
                  _SSPADD   0x000fc8       data     extern libdev18f2550_a-pic18f2550.asm
                  _SSPBUF   0x000fc9       data     extern libdev18f2550_a-pic18f2550.asm
                   _T2CON   0x000fca       data     extern libdev18f2550_a-pic18f2550.asm
               _T2CONbits   0x000fca       data     extern libdev18f2550_a-pic18f2550.asm
                     _PR2   0x000fcb       data     extern libdev18f2550_a-pic18f2550.asm
                    _TMR2   0x000fcc       data     extern libdev18f2550_a-pic18f2550.asm
                   _T1CON   0x000fcd       data     extern libdev18f2550_a-pic18f2550.asm
               _T1CONbits   0x000fcd       data     extern libdev18f2550_a-pic18f2550.asm
                   _TMR1L   0x000fce       data     extern libdev18f2550_a-pic18f2550.asm
                    _TMR1   0x000fce       data     extern libdev18f2550_a-pic18f2550.asm
                   _TMR1H   0x000fcf       data     extern libdev18f2550_a-pic18f2550.asm
                    _RCON   0x000fd0       data     extern libdev18f2550_a-pic18f2550.asm
                _RCONbits   0x000fd0       data     extern libdev18f2550_a-pic18f2550.asm
                  _WDTCON   0x000fd1       data     extern libdev18f2550_a-pic18f2550.asm
              _WDTCONbits   0x000fd1       data     extern libdev18f2550_a-pic18f2550.asm
                 _HLVDCON   0x000fd2       data     extern libdev18f2550_a-pic18f2550.asm
             _HLVDCONbits   0x000fd2       data     extern libdev18f2550_a-pic18f2550.asm
              _LVDCONbits   0x000fd2       data     extern libdev18f2550_a-pic18f2550.asm
                  _LVDCON   0x000fd2       data     extern libdev18f2550_a-pic18f2550.asm
                  _OSCCON   0x000fd3       data     extern libdev18f2550_a-pic18f2550.asm
              _OSCCONbits   0x000fd3       data     extern libdev18f2550_a-pic18f2550.asm
               _T0CONbits   0x000fd5       data     extern libdev18f2550_a-pic18f2550.asm
                   _T0CON   0x000fd5       data     extern libdev18f2550_a-pic18f2550.asm
                   _TMR0L   0x000fd6       data     extern libdev18f2550_a-pic18f2550.asm
                    _TMR0   0x000fd6       data     extern libdev18f2550_a-pic18f2550.asm
                   _TMR0H   0x000fd7       data     extern libdev18f2550_a-pic18f2550.asm
                  _STATUS   0x000fd8       data     extern libdev18f2550_a-pic18f2550.asm
              _STATUSbits   0x000fd8       data     extern libdev18f2550_a-pic18f2550.asm
                   _FSR2L   0x000fd9       data     extern libdev18f2550_a-pic18f2550.asm
                   _FSR2H   0x000fda       data     extern libdev18f2550_a-pic18f2550.asm
                  _PLUSW2   0x000fdb       data     extern libdev18f2550_a-pic18f2550.asm
                 _PREINC2   0x000fdc       data     extern libdev18f2550_a-pic18f2550.asm
                _POSTDEC2   0x000fdd       data     extern libdev18f2550_a-pic18f2550.asm
                _POSTINC2   0x000fde       data     extern libdev18f2550_a-pic18f2550.asm
                   _INDF2   0x000fdf       data     extern libdev18f2550_a-pic18f2550.asm
                     _BSR   0x000fe0       data     extern libdev18f2550_a-pic18f2550.asm
                   _FSR1L   0x000fe1       data     extern libdev18f2550_a-pic18f2550.asm
                   _FSR1H   0x000fe2       data     extern libdev18f2550_a-pic18f2550.asm
                  _PLUSW1   0x000fe3       data     extern libdev18f2550_a-pic18f2550.asm
                 _PREINC1   0x000fe4       data     extern libdev18f2550_a-pic18f2550.asm
                _POSTDEC1   0x000fe5       data     extern libdev18f2550_a-pic18f2550.asm
                _POSTINC1   0x000fe6       data     extern libdev18f2550_a-pic18f2550.asm
                   _INDF1   0x000fe7       data     extern libdev18f2550_a-pic18f2550.asm
                    _WREG   0x000fe8       data     extern libdev18f2550_a-pic18f2550.asm
                   _FSR0L   0x000fe9       data     extern libdev18f2550_a-pic18f2550.asm
                   _FSR0H   0x000fea       data     extern libdev18f2550_a-pic18f2550.asm
                  _PLUSW0   0x000feb       data     extern libdev18f2550_a-pic18f2550.asm
                 _PREINC0   0x000fec       data     extern libdev18f2550_a-pic18f2550.asm
                _POSTDEC0   0x000fed       data     extern libdev18f2550_a-pic18f2550.asm
                _POSTINC0   0x000fee       data     extern libdev18f2550_a-pic18f2550.asm
                   _INDF0   0x000fef       data     extern libdev18f2550_a-pic18f2550.asm
                 _INTCON3   0x000ff0       data     extern libdev18f2550_a-pic18f2550.asm
             _INTCON3bits   0x000ff0       data     extern libdev18f2550_a-pic18f2550.asm
                 _INTCON2   0x000ff1       data     extern libdev18f2550_a-pic18f2550.asm
             _INTCON2bits   0x000ff1       data     extern libdev18f2550_a-pic18f2550.asm
              _INTCONbits   0x000ff2       data     extern libdev18f2550_a-pic18f2550.asm
                  _INTCON   0x000ff2       data     extern libdev18f2550_a-pic18f2550.asm
                   _PRODL   0x000ff3       data     extern libdev18f2550_a-pic18f2550.asm
                    _PROD   0x000ff3       data     extern libdev18f2550_a-pic18f2550.asm
                   _PRODH   0x000ff4       data     extern libdev18f2550_a-pic18f2550.asm
                  _TABLAT   0x000ff5       data     extern libdev18f2550_a-pic18f2550.asm
                  _TBLPTR   0x000ff6       data     extern libdev18f2550_a-pic18f2550.asm
                 _TBLPTRL   0x000ff6       data     extern libdev18f2550_a-pic18f2550.asm
                 _TBLPTRH   0x000ff7       data     extern libdev18f2550_a-pic18f2550.asm
                 _TBLPTRU   0x000ff8       data     extern libdev18f2550_a-pic18f2550.asm
                      _PC   0x000ff9       data     extern libdev18f2550_a-pic18f2550.asm
                     _PCL   0x000ff9       data     extern libdev18f2550_a-pic18f2550.asm
                  _PCLATH   0x000ffa       data     extern libdev18f2550_a-pic18f2550.asm
                  _PCLATU   0x000ffb       data     extern libdev18f2550_a-pic18f2550.asm
                  _STKPTR   0x000ffc       data     extern libdev18f2550_a-pic18f2550.asm
              _STKPTRbits   0x000ffc       data     extern libdev18f2550_a-pic18f2550.asm
                    _TOSL   0x000ffd       data     extern libdev18f2550_a-pic18f2550.asm
                     _TOS   0x000ffd       data     extern libdev18f2550_a-pic18f2550.asm
                    _TOSH   0x000ffe       data     extern libdev18f2550_a-pic18f2550.asm
                    _TOSU   0x000fff       data     extern libdev18f2550_a-pic18f2550.asm
            _send_fsk_low   0x0018fa    program     extern meter_logger.asm
           _isr_high_prio   0x002440    program     static meter_logger.asm
               _00694_DS_   0x0024c2    program     static meter_logger.asm
               _00696_DS_   0x0024cc    program     static meter_logger.asm
               _00698_DS_   0x0024d6    program     static meter_logger.asm
               _00347_DS_   0x0024d8    program     static meter_logger.asm
               _00704_DS_   0x0024fc    program     static meter_logger.asm
               _00348_DS_   0x0024fe    program     static meter_logger.asm
               _00349_DS_   0x00250c    program     static meter_logger.asm
               _00705_DS_   0x002526    program     static meter_logger.asm
               _00706_DS_   0x002542    program     static meter_logger.asm
               _00351_DS_   0x002558    program     static meter_logger.asm
               _00354_DS_   0x002566    program     static meter_logger.asm
               _00357_DS_   0x002572    program     static meter_logger.asm
               _00709_DS_   0x002596    program     static meter_logger.asm
               _00710_DS_   0x0025b2    program     static meter_logger.asm
               _00373_DS_   0x0025b4    program     static meter_logger.asm
               _00711_DS_   0x0025ce    program     static meter_logger.asm
               _00712_DS_   0x0025ea    program     static meter_logger.asm
               _00368_DS_   0x0025ec    program     static meter_logger.asm
               _00359_DS_   0x002606    program     static meter_logger.asm
               _00360_DS_   0x00262c    program     static meter_logger.asm
               _00369_DS_   0x00263a    program     static meter_logger.asm
               _00715_DS_   0x002654    program     static meter_logger.asm
               _00716_DS_   0x002670    program     static meter_logger.asm
               _00362_DS_   0x00269e    program     static meter_logger.asm
               _00363_DS_   0x0026b2    program     static meter_logger.asm
               _00365_DS_   0x0026c0    program     static meter_logger.asm
               _00370_DS_   0x0026ca    program     static meter_logger.asm
               _00720_DS_   0x0026d4    program     static meter_logger.asm
               _00375_DS_   0x002700    program     static meter_logger.asm
               _00381_DS_   0x002706    program     static meter_logger.asm
               _00723_DS_   0x002710    program     static meter_logger.asm
               _00384_DS_   0x002762    program     static meter_logger.asm
               _00387_DS_   0x0027cc    program     static meter_logger.asm
               _00389_DS_   0x0027ce    program     static meter_logger.asm
               _00729_DS_   0x002822    program     static meter_logger.asm
               _00391_DS_   0x00283e    program     static meter_logger.asm
               _00392_DS_   0x002848    program     static meter_logger.asm
               _00393_DS_   0x002868    program     static meter_logger.asm
               _00739_DS_   0x002872    program     static meter_logger.asm
               _00396_DS_   0x00287c    program     static meter_logger.asm
               _00398_DS_   0x0028bc    program     static meter_logger.asm
               _00400_DS_   0x0028c6    program     static meter_logger.asm
               _00401_DS_   0x0028d0    program     static meter_logger.asm
               _00403_DS_   0x0028da    program     static meter_logger.asm
               _00404_DS_   0x0028ec    program     static meter_logger.asm
               _00406_DS_   0x00290e    program     static meter_logger.asm
               _00409_DS_   0x002926    program     static meter_logger.asm
               _00411_DS_   0x00292e    program     static meter_logger.asm
               _00413_DS_   0x00294c    program     static meter_logger.asm
               _00753_DS_   0x002966    program     static meter_logger.asm
               _00755_DS_   0x00296e    program     static meter_logger.asm
               _00414_DS_   0x002970    program     static meter_logger.asm
               _00757_DS_   0x00297a    program     static meter_logger.asm
               _00417_DS_   0x00298e    program     static meter_logger.asm
               _00419_DS_   0x0029e2    program     static meter_logger.asm
               _00421_DS_   0x002a0c    program     static meter_logger.asm
               _00422_DS_   0x002a16    program     static meter_logger.asm
               _00424_DS_   0x002a20    program     static meter_logger.asm
               _00425_DS_   0x002a38    program     static meter_logger.asm
               _00427_DS_   0x002a5a    program     static meter_logger.asm
               _00430_DS_   0x002a72    program     static meter_logger.asm
               _00432_DS_   0x002a7a    program     static meter_logger.asm
               _00433_DS_   0x002a82    program     static meter_logger.asm
               _00435_DS_   0x002aaa    program     static meter_logger.asm
               _00436_DS_   0x002abc    program     static meter_logger.asm
               _00776_DS_   0x002ad8    program     static meter_logger.asm
               _00777_DS_   0x002ae6    program     static meter_logger.asm
               _00438_DS_   0x002af6    program     static meter_logger.asm
               _00442_DS_   0x002b0e    program     static meter_logger.asm
               _00444_DS_   0x002b16    program     static meter_logger.asm
               _00446_DS_   0x002b2e    program     static meter_logger.asm
               _00786_DS_   0x002b4e    program     static meter_logger.asm
               _00788_DS_   0x002b56    program     static meter_logger.asm
               _00447_DS_   0x002b58    program     static meter_logger.asm
               _00449_DS_   0x002b66    program     static meter_logger.asm
               _00450_DS_   0x002b6a    program     static meter_logger.asm
               _00451_DS_   0x002b78    program     static meter_logger.asm
               _00792_DS_   0x002b96    program     static meter_logger.asm
               _00791_DS_   0x002b9c    program     static meter_logger.asm
               _00453_DS_   0x002bae    program     static meter_logger.asm
               _00456_DS_   0x002bb4    program     static meter_logger.asm
               _00459_DS_   0x002bc0    program     static meter_logger.asm
               _00460_DS_   0x002bce    program     static meter_logger.asm
               _00462_DS_   0x002bd8    program     static meter_logger.asm
               _00464_DS_   0x002bda    program     static meter_logger.asm
               _00794_DS_   0x002c38    program     static meter_logger.asm
               _00795_DS_   0x002c46    program     static meter_logger.asm
               _00798_DS_   0x002c70    program     static meter_logger.asm
               _00474_DS_   0x002c9a    program     static meter_logger.asm
               _00800_DS_   0x002ca2    program     static meter_logger.asm
               _00471_DS_   0x002cae    program     static meter_logger.asm
               _00478_DS_   0x002cc6    program     static meter_logger.asm
               _00479_DS_   0x002cc8    program     static meter_logger.asm
               _00483_DS_   0x002cca    program     static meter_logger.asm
                 ___str_0   0x002d0a    program     static meter_logger.asm
                 ___str_1   0x002d2c    program     static meter_logger.asm
                 ___str_2   0x002d44    program     static meter_logger.asm
                 ___str_3   0x002d5c    program     static meter_logger.asm
                 ___str_4   0x002d88    program     static meter_logger.asm
                 ___str_5   0x002da2    program     static meter_logger.asm
                 ___str_6   0x002dce    program     static meter_logger.asm
                 ___str_7   0x002dd2    program     static meter_logger.asm
                 ___str_8   0x002dee    program     static meter_logger.asm
                 ___str_9   0x002e0e    program     static meter_logger.asm
                ___str_10   0x002e32    program     static meter_logger.asm
                ___str_11   0x002e56    program     static meter_logger.asm
                ___str_12   0x002e7a    program     static meter_logger.asm
                ___str_13   0x002e92    program     static meter_logger.asm
                ___str_14   0x002eba    program     static meter_logger.asm
                ___str_15   0x002ee2    program     static meter_logger.asm
                ___str_16   0x002f0a    program     static meter_logger.asm
                _vfprintf   0x002f1a    program     extern vfprintf.asm
               _00215_DS_   0x002ffc    program     static vfprintf.asm
               _00393_DS_   0x00301e    program     static vfprintf.asm
               _00394_DS_   0x003046    program     static vfprintf.asm
               _00397_DS_   0x00307e    program     static vfprintf.asm
               _00108_DS_   0x003080    program     static vfprintf.asm
               _00110_DS_   0x003092    program     static vfprintf.asm
               _00400_DS_   0x003092    program     static vfprintf.asm
               _00112_DS_   0x0030b0    program     static vfprintf.asm
               _00403_DS_   0x0030b0    program     static vfprintf.asm
               _00114_DS_   0x0030d2    program     static vfprintf.asm
               _00406_DS_   0x0030d2    program     static vfprintf.asm
               _00409_DS_   0x0030f0    program     static vfprintf.asm
               _00116_DS_   0x0030f0    program     static vfprintf.asm
               _00118_DS_   0x00311a    program     static vfprintf.asm
               _00414_DS_   0x003152    program     static vfprintf.asm
               _00274_DS_   0x003154    program     static vfprintf.asm
               _00122_DS_   0x003160    program     static vfprintf.asm
               _00417_DS_   0x00317a    program     static vfprintf.asm
               _00125_DS_   0x003188    program     static vfprintf.asm
               _00420_DS_   0x0031c0    program     static vfprintf.asm
               _00275_DS_   0x0031c2    program     static vfprintf.asm
               _00129_DS_   0x0031ce    program     static vfprintf.asm
               _00423_DS_   0x0031ee    program     static vfprintf.asm
               _00133_DS_   0x0031f0    program     static vfprintf.asm
               _00134_DS_   0x003202    program     static vfprintf.asm
               _00426_DS_   0x003202    program     static vfprintf.asm
               _00429_DS_   0x003220    program     static vfprintf.asm
               _00136_DS_   0x003220    program     static vfprintf.asm
               _00160_DS_   0x00323e    program     static vfprintf.asm
               _00157_DS_   0x00324a    program     static vfprintf.asm
               _00154_DS_   0x00325a    program     static vfprintf.asm
               _00151_DS_   0x003264    program     static vfprintf.asm
               _00148_DS_   0x003270    program     static vfprintf.asm
               _00145_DS_   0x00327c    program     static vfprintf.asm
               _00138_DS_   0x003296    program     static vfprintf.asm
               _00446_DS_   0x0032ba    program     static vfprintf.asm
               _00161_DS_   0x0032bc    program     static vfprintf.asm
               _00187_DS_   0x003302    program     static vfprintf.asm
               _00184_DS_   0x003320    program     static vfprintf.asm
               _00172_DS_   0x00336c    program     static vfprintf.asm
               _00162_DS_   0x0033c4    program     static vfprintf.asm
               _00169_DS_   0x0033d4    program     static vfprintf.asm
               _00165_DS_   0x00342c    program     static vfprintf.asm
               _00173_DS_   0x003440    program     static vfprintf.asm
               _00175_DS_   0x00347c    program     static vfprintf.asm
               _00176_DS_   0x0034a0    program     static vfprintf.asm
               _00181_DS_   0x0034d2    program     static vfprintf.asm
               _00263_DS_   0x003502    program     static vfprintf.asm
               _00190_DS_   0x003512    program     static vfprintf.asm
               _00453_DS_   0x003532    program     static vfprintf.asm
               _00276_DS_   0x003536    program     static vfprintf.asm
               _00193_DS_   0x00354a    program     static vfprintf.asm
               _00277_DS_   0x00356e    program     static vfprintf.asm
               _00270_DS_   0x00357a    program     static vfprintf.asm
               _00204_DS_   0x003592    program     static vfprintf.asm
               _00205_DS_   0x0035c2    program     static vfprintf.asm
               _00220_DS_   0x0035ee    program     static vfprintf.asm
               _00221_DS_   0x0035f2    program     static vfprintf.asm
               _00199_DS_   0x0035f6    program     static vfprintf.asm
               _00455_DS_   0x003616    program     static vfprintf.asm
               _00278_DS_   0x003624    program     static vfprintf.asm
               _00207_DS_   0x00363c    program     static vfprintf.asm
               _00213_DS_   0x003660    program     static vfprintf.asm
               _00279_DS_   0x00367e    program     static vfprintf.asm
               _00214_DS_   0x003686    program     static vfprintf.asm
               _00456_DS_   0x00368e    program     static vfprintf.asm
               _00217_DS_   0x003692    program     static vfprintf.asm
                 ___str_0   0x00371a    program     static vfprintf.asm
       _get_battery_level   0x003726    program     extern meter_logger.asm
               _01168_DS_   0x003774    program     static meter_logger.asm
               _01191_DS_   0x003794    program     static meter_logger.asm
               _01192_DS_   0x003796    program     static meter_logger.asm
               _01175_DS_   0x003818    program     static meter_logger.asm
               _01193_DS_   0x003824    program     static meter_logger.asm
               _01194_DS_   0x003826    program     static meter_logger.asm
               _01172_DS_   0x0038bc    program     static meter_logger.asm
               _01176_DS_   0x0038c0    program     static meter_logger.asm
                __mullong   0x003950    program     extern mullong.asm
    _testo_valid_err_corr   0x003b64    program     extern meter_logger.asm
               _00886_DS_   0x003ba8    program     static meter_logger.asm
               _00929_DS_   0x003bb8    program     static meter_logger.asm
               _00928_DS_   0x003bc0    program     static meter_logger.asm
               _00931_DS_   0x003bd6    program     static meter_logger.asm
               _00932_DS_   0x003bd8    program     static meter_logger.asm
               _00888_DS_   0x003c08    program     static meter_logger.asm
               _00937_DS_   0x003c18    program     static meter_logger.asm
               _00936_DS_   0x003c20    program     static meter_logger.asm
               _00939_DS_   0x003c36    program     static meter_logger.asm
               _00940_DS_   0x003c38    program     static meter_logger.asm
               _00890_DS_   0x003c6a    program     static meter_logger.asm
               _00946_DS_   0x003c7a    program     static meter_logger.asm
               _00945_DS_   0x003c82    program     static meter_logger.asm
               _00948_DS_   0x003c98    program     static meter_logger.asm
               _00949_DS_   0x003c9a    program     static meter_logger.asm
               _00892_DS_   0x003ccc    program     static meter_logger.asm
               _00955_DS_   0x003cdc    program     static meter_logger.asm
               _00954_DS_   0x003ce4    program     static meter_logger.asm
               _00957_DS_   0x003cfa    program     static meter_logger.asm
               _00958_DS_   0x003cfc    program     static meter_logger.asm
               _00962_DS_   0x003d32    program     static meter_logger.asm
               _00963_DS_   0x003d34    program     static meter_logger.asm
               _00884_DS_   0x003d38    program     static meter_logger.asm
               _00894_DS_   0x003d3a    program     static meter_logger.asm
                   _ultoa   0x003d64    program     extern ltoa.asm
               _00107_DS_   0x003ddc    program     static ltoa.asm
               _00106_DS_   0x003e1e    program     static ltoa.asm
               _00110_DS_   0x003e8e    program     static ltoa.asm
               _00132_DS_   0x003ec8    program     static ltoa.asm
              _fifo_snoop   0x003f1c    program     extern meter_logger.asm
               _01161_DS_   0x003f72    program     static meter_logger.asm
               _01162_DS_   0x003f88    program     static meter_logger.asm
               _01163_DS_   0x003faa    program     static meter_logger.asm
               _01145_DS_   0x003fba    program     static meter_logger.asm
               _01146_DS_   0x003ff2    program     static meter_logger.asm
               _01147_DS_   0x00402a    program     static meter_logger.asm
               _01148_DS_   0x004062    program     static meter_logger.asm
               _01149_DS_   0x004094    program     static meter_logger.asm
               _01151_DS_   0x004098    program     static meter_logger.asm
               _01153_DS_   0x00409a    program     static meter_logger.asm
                _fifo_get   0x0040bc    program     extern meter_logger.asm
               _01133_DS_   0x00410e    program     static meter_logger.asm
               _01134_DS_   0x004130    program     static meter_logger.asm
               _01112_DS_   0x004140    program     static meter_logger.asm
               _01113_DS_   0x004170    program     static meter_logger.asm
               _01114_DS_   0x0041a0    program     static meter_logger.asm
               _01115_DS_   0x0041d0    program     static meter_logger.asm
               _01116_DS_   0x0041fe    program     static meter_logger.asm
               _11209_DS_   0x004206    program     static meter_logger.asm
               _01139_DS_   0x004212    program     static meter_logger.asm
               _01140_DS_   0x004214    program     static meter_logger.asm
               _01118_DS_   0x00421a    program     static meter_logger.asm
               _01120_DS_   0x00421e    program     static meter_logger.asm
               _01122_DS_   0x004220    program     static meter_logger.asm
               __modulong   0x00423a    program     extern modulong.asm
               _00122_DS_   0x0042b4    program     static modulong.asm
               _00109_DS_   0x0042b6    program     static modulong.asm
               _00141_DS_   0x0042e2    program     static modulong.asm
               _00108_DS_   0x0042f0    program     static modulong.asm
               _00114_DS_   0x0042f8    program     static modulong.asm
               _00142_DS_   0x00430e    program     static modulong.asm
               _00113_DS_   0x004320    program     static modulong.asm
               _00117_DS_   0x004342    program     static modulong.asm
                _fifo_put   0x004374    program     extern meter_logger.asm
               _01099_DS_   0x0043a4    program     static meter_logger.asm
               _01100_DS_   0x0043b6    program     static meter_logger.asm
               _01101_DS_   0x0043d8    program     static meter_logger.asm
               _01077_DS_   0x0043e8    program     static meter_logger.asm
               _01078_DS_   0x004406    program     static meter_logger.asm
               _01079_DS_   0x004424    program     static meter_logger.asm
               _01080_DS_   0x004442    program     static meter_logger.asm
               _01081_DS_   0x00445e    program     static meter_logger.asm
               _21210_DS_   0x004466    program     static meter_logger.asm
               _01106_DS_   0x004472    program     static meter_logger.asm
               _01107_DS_   0x004474    program     static meter_logger.asm
               _01083_DS_   0x00447a    program     static meter_logger.asm
               _01085_DS_   0x00447e    program     static meter_logger.asm
               _01087_DS_   0x004480    program     static meter_logger.asm
               __divulong   0x004492    program     extern divulong.asm
               _00109_DS_   0x00450e    program     static divulong.asm
               _00128_DS_   0x004546    program     static divulong.asm
               _00110_DS_   0x00455a    program     static divulong.asm
                 _sprintf   0x0045aa    program     extern sprintf.asm
        ___stream_putchar   0x0046be    program     extern strmputchar.asm
               _00143_DS_   0x004754    program     static strmputchar.asm
               _00119_DS_   0x004770    program     static strmputchar.asm
               _00114_DS_   0x004782    program     static strmputchar.asm
               _00111_DS_   0x004790    program     static strmputchar.asm
               _00108_DS_   0x00479e    program     static strmputchar.asm
               _00121_DS_   0x0047aa    program     static strmputchar.asm
                 __debug2   0x0047d0    program     extern meter_logger.asm
                  __debug   0x004896    program     extern meter_logger.asm
                    _ltoa   0x00495c    program     extern ltoa.asm
               _00138_DS_   0x0049dc    program     static ltoa.asm
            _isr_low_prio   0x004a22    program     static meter_logger.asm
               _00805_DS_   0x004a74    program     static meter_logger.asm
               _00806_DS_   0x004a7e    program     static meter_logger.asm
               _00809_DS_   0x004a96    program     static meter_logger.asm
               _31211_DS_   0x004a9e    program     static meter_logger.asm
               _00811_DS_   0x004aa0    program     static meter_logger.asm
               _00814_DS_   0x004ab6    program     static meter_logger.asm
                _sleep_ms   0x004ae6    program     extern meter_logger.asm
               _00842_DS_   0x004b2e    program     static meter_logger.asm
               _00853_DS_   0x004b3a    program     static meter_logger.asm
               _00840_DS_   0x004b4c    program     static meter_logger.asm
               _00843_DS_   0x004b5a    program     static meter_logger.asm
               _00854_DS_   0x004b64    program     static meter_logger.asm
                 _reverse   0x004b8c    program     extern meter_logger.asm
                _adc_open   0x004c18    program     extern libio18f2550_a-adcopen.asm
               _00106_DS_   0x004c7c    program     static libio18f2550_a-adcopen.asm
              _usart_puts   0x004c94    program     extern libio18f2550_a-uputs.asm
               _00105_DS_   0x004cbe    program     static libio18f2550_a-uputs.asm
               _00120_DS_   0x004cf2    program     static libio18f2550_a-uputs.asm
              _get_dev_id   0x004d0c    program     extern meter_logger.asm
           _fsk_rx_enable   0x004d7e    program     extern meter_logger.asm
             _init_system   0x004dda    program     extern meter_logger.asm
     _rs232_7e1_rx_enable   0x004e30    program     extern meter_logger.asm
     _rs232_8n2_rx_enable   0x004e70    program     extern meter_logger.asm
               __gptrget4   0x004eb0    program     extern gptrget4.asm
                 _lab_01_   0x004ec8    program     static gptrget4.asm
     _rs232_7e1_tx_enable   0x004ef0    program     extern meter_logger.asm
     _rs232_8n2_tx_enable   0x004f2e    program     extern meter_logger.asm
         _testo_ir_enable   0x004f6c    program     extern meter_logger.asm
          _adc_setchannel   0x004fa8    program     extern libio18f2550_a-adcsetch.asm
             _fifo_in_use   0x004fe2    program     extern meter_logger.asm
               __gptrget3   0x00501a    program     extern gptrget3.asm
                 _lab_01_   0x00502e    program     static gptrget3.asm
           _fsk_tx_enable   0x005050    program     extern meter_logger.asm
       _rs232_7e1_tx_byte   0x005084    program     extern meter_logger.asm
               _01026_DS_   0x0050a4    program     static meter_logger.asm
       _rs232_8n2_tx_byte   0x0050b4    program     extern meter_logger.asm
               _00998_DS_   0x0050d4    program     static meter_logger.asm
      ___eeprom8_gptrput3   0x0050e4    program     extern eeprom8_gptrput3.asm
      ___eeprom8_gptrget4   0x005114    program     extern eeprom8_gptrget4.asm
                 _islower   0x005144    program     extern islower.asm
               _00106_DS_   0x005166    program     static islower.asm
               _00108_DS_   0x005168    program     static islower.asm
             _fsk_tx_byte   0x005172    program     extern meter_logger.asm
               _01064_DS_   0x00518e    program     static meter_logger.asm
               __gptrget2   0x00519e    program     extern gptrget2.asm
                 _lab_01_   0x0051ae    program     static gptrget2.asm
           _my_usart_open   0x0051ca    program     extern meter_logger.asm
              _usart_getc   0x0051f4    program     extern libio18f2550_a-ugetc.asm
               _10105_DS_   0x005208    program     static libio18f2550_a-ugetc.asm
               _00108_DS_   0x005208    program     static libio18f2550_a-ugetc.asm
               _00110_DS_   0x005210    program     static libio18f2550_a-ugetc.asm
               _00112_DS_   0x005218    program     static libio18f2550_a-ugetc.asm
      ___eeprom8_gptrget3   0x00521c    program     extern eeprom8_gptrget3.asm
               _flash_led   0x005244    program     extern meter_logger.asm
               __gptrget1   0x005268    program     extern gptrget1.asm
                 _lab_01_   0x005274    program     static gptrget1.asm
      ___eeprom8_gptrput1   0x00528a    program     extern eeprom8_gptrput1.asm
      ___eeprom8_gptrget2   0x0052aa    program     extern eeprom8_gptrget2.asm
               __gptrput3   0x0052ca    program     extern gptrput3.asm
                 _lab_01_   0x0052e0    program     static gptrput3.asm
      ___eeprom8_gptrget1   0x0052e8    program     extern eeprom8_gptrget1.asm
          _fsk_tx_disable   0x005300    program     extern meter_logger.asm
    _rs232_7e1_rx_disable   0x005316    program     extern meter_logger.asm
    _rs232_7e1_tx_disable   0x00532c    program     extern meter_logger.asm
    _rs232_8n2_rx_disable   0x005342    program     extern meter_logger.asm
    _rs232_8n2_tx_disable   0x005358    program     extern meter_logger.asm
               __gptrput1   0x00536e    program     extern gptrput1.asm
                 _lab_01_   0x00537c    program     static gptrput1.asm
          _fsk_rx_disable   0x005384    program     extern meter_logger.asm
        _testo_ir_disable   0x005398    program     extern meter_logger.asm
                __startup   0x0053ac    program     extern crt0.asm
                   lockup   0x0053be    program     static crt0.asm
              _usart_putc   0x0053c0    program     extern libio18f2550_a-uputc.asm
                     _01_   0x0053cc    program     static libio18f2550_a-uputc.asm
         ___eeprom8_write   0x0053d0    program     extern eeprom8_write.asm
           wait_till_done   0x0053da    program     static eeprom8_write.asm
                _adc_read   0x0053e0    program     extern libio18f2550_a-adcread.asm
              _usart_busy   0x0053e8    program     extern libio18f2550_a-ubusy.asm
                _adc_busy   0x0053f0    program     extern libio18f2550_a-adcbusy.asm
              _usart_drdy   0x0053f8    program     extern libio18f2550_a-udrdy.asm
  ___stream_gpsim_putchar   0x005400    program     extern strmgpsim.asm
               _adc_close   0x005406    program     extern libio18f2550_a-adcclose.asm
       ___eeprom_gptrput1   0x00540c    program     extern gptr/eeprom8_gptrput1_dispatch.S
       ___eeprom_gptrget1   0x005410    program     extern gptr/eeprom8_gptrget1_dispatch.S
       ___eeprom_gptrget2   0x005414    program     extern gptr/eeprom8_gptrget2_dispatch.S
       ___eeprom_gptrget3   0x005418    program     extern gptr/eeprom8_gptrget3_dispatch.S
       ___eeprom_gptrget4   0x00541c    program     extern gptr/eeprom8_gptrget4_dispatch.S
       ___eeprom_gptrput3   0x005420    program     extern gptr/eeprom8_gptrput3_dispatch.S
                 _putchar   0x005424    program     extern putchar.asm


