;--------------------------------------------------------
; File Created by SDCC : free open source ANSI-C Compiler
; Version 3.4.0 #8981 (Jun  6 2014) (Mac OS X x86_64)
; This file was generated Wed Jun 18 16:47:08 2014
;--------------------------------------------------------
; PIC16 port for the Microchip 16-bit core micros
;--------------------------------------------------------
	list	p=18f2550
	radix	dec
	CONFIG	PLLDIV=2
	CONFIG	CPUDIV=OSC1_PLL2
	CONFIG	USBDIV=1
	CONFIG	FOSC=INTOSC_XT
	CONFIG	FCMEN=OFF
	CONFIG	IESO=OFF
	CONFIG	PWRT=OFF
	CONFIG	BOR=OFF
	CONFIG	BORV=3
	CONFIG	VREGEN=OFF
	CONFIG	WDT=OFF
	CONFIG	WDTPS=32768
	CONFIG	CCP2MX=ON
	CONFIG	PBADEN=OFF
	CONFIG	LPT1OSC=OFF
	CONFIG	MCLRE=ON
	CONFIG	STVREN=ON
	CONFIG	LVP=ON
	CONFIG	XINST=OFF
	CONFIG	CP0=OFF
	CONFIG	CP1=OFF
	CONFIG	CP2=OFF
	CONFIG	CP3=OFF
	CONFIG	CPB=OFF
	CONFIG	CPD=OFF
	CONFIG	WRT0=OFF
	CONFIG	WRT1=OFF
	CONFIG	WRT2=OFF
	CONFIG	WRT3=OFF
	CONFIG	WRTC=OFF
	CONFIG	WRTB=OFF
	CONFIG	WRTD=OFF
	CONFIG	EBTR0=OFF
	CONFIG	EBTR1=OFF
	CONFIG	EBTR2=OFF
	CONFIG	EBTR3=OFF
	CONFIG	EBTRB=OFF


;--------------------------------------------------------
; public variables in this module
;--------------------------------------------------------
	global	_c
	global	_sleep_ms
	global	_init_system
	global	_get_dev_id
	global	_my_usart_open
	global	_reverse
	global	_testo_valid_err_corr
	global	_testo_ir_enable
	global	_testo_ir_disable
	global	_rs232_8n2_tx_enable
	global	_rs232_8n2_tx_disable
	global	_rs232_8n2_rx_enable
	global	_rs232_8n2_rx_disable
	global	_rs232_8n2_tx_byte
	global	_rs232_7e1_tx_enable
	global	_rs232_7e1_tx_disable
	global	_rs232_7e1_rx_enable
	global	_rs232_7e1_rx_disable
	global	_rs232_7e1_tx_byte
	global	_fsk_tx_enable
	global	_fsk_tx_disable
	global	_fsk_rx_enable
	global	_fsk_rx_disable
	global	_send_fsk_high
	global	_send_fsk_low
	global	_fsk_tx_byte
	global	_fifo_in_use
	global	_fifo_put
	global	_fifo_get
	global	_fifo_snoop
	global	_get_battery_level
	global	_flash_led
	global	__debug
	global	__debug2
	global	_timer_0
	global	_last_timer_0
	global	_timer_1_ms
	global	_timer0_reload
	global	_debug_buffer
	global	_fifo_head
	global	_fifo_tail
	global	_fifo_buffer_0
	global	_fifo_buffer_1
	global	_fifo_buffer_2
	global	_fifo_buffer_3
	global	_codec_type
	global	_led_flash
	global	_testo_ir_proto
	global	_rs232_proto
	global	_fsk_proto
	global	_main

;--------------------------------------------------------
; extern variables in this module
;--------------------------------------------------------
	extern	__gptrput1
	extern	_UFRMLbits
	extern	_UFRMHbits
	extern	_UIRbits
	extern	_UIEbits
	extern	_UEIRbits
	extern	_UEIEbits
	extern	_USTATbits
	extern	_UCONbits
	extern	_UADDRbits
	extern	_UCFGbits
	extern	_UEP0bits
	extern	_UEP1bits
	extern	_UEP2bits
	extern	_UEP3bits
	extern	_UEP4bits
	extern	_UEP5bits
	extern	_UEP6bits
	extern	_UEP7bits
	extern	_UEP8bits
	extern	_UEP9bits
	extern	_UEP10bits
	extern	_UEP11bits
	extern	_UEP12bits
	extern	_UEP13bits
	extern	_UEP14bits
	extern	_UEP15bits
	extern	_PORTAbits
	extern	_PORTBbits
	extern	_PORTCbits
	extern	_PORTEbits
	extern	_LATAbits
	extern	_LATBbits
	extern	_LATCbits
	extern	_DDRAbits
	extern	_TRISAbits
	extern	_DDRBbits
	extern	_TRISBbits
	extern	_DDRCbits
	extern	_TRISCbits
	extern	_OSCTUNEbits
	extern	_PIE1bits
	extern	_PIR1bits
	extern	_IPR1bits
	extern	_PIE2bits
	extern	_PIR2bits
	extern	_IPR2bits
	extern	_EECON1bits
	extern	_RCSTAbits
	extern	_TXSTAbits
	extern	_T3CONbits
	extern	_CMCONbits
	extern	_CVRCONbits
	extern	_CCP1ASbits
	extern	_ECCP1ASbits
	extern	_CCP1DELbits
	extern	_ECCP1DELbits
	extern	_BAUDCONbits
	extern	_BAUDCTLbits
	extern	_CCP2CONbits
	extern	_CCP1CONbits
	extern	_ADCON2bits
	extern	_ADCON1bits
	extern	_ADCON0bits
	extern	_SSPCON2bits
	extern	_SSPCON1bits
	extern	_SSPSTATbits
	extern	_T2CONbits
	extern	_T1CONbits
	extern	_RCONbits
	extern	_WDTCONbits
	extern	_HLVDCONbits
	extern	_LVDCONbits
	extern	_OSCCONbits
	extern	_T0CONbits
	extern	_STATUSbits
	extern	_INTCON3bits
	extern	_INTCON2bits
	extern	_INTCONbits
	extern	_STKPTRbits
	extern	_stdin
	extern	_stdout
	extern	_UFRM
	extern	_UFRML
	extern	_UFRMH
	extern	_UIR
	extern	_UIE
	extern	_UEIR
	extern	_UEIE
	extern	_USTAT
	extern	_UCON
	extern	_UADDR
	extern	_UCFG
	extern	_UEP0
	extern	_UEP1
	extern	_UEP2
	extern	_UEP3
	extern	_UEP4
	extern	_UEP5
	extern	_UEP6
	extern	_UEP7
	extern	_UEP8
	extern	_UEP9
	extern	_UEP10
	extern	_UEP11
	extern	_UEP12
	extern	_UEP13
	extern	_UEP14
	extern	_UEP15
	extern	_PORTA
	extern	_PORTB
	extern	_PORTC
	extern	_PORTE
	extern	_LATA
	extern	_LATB
	extern	_LATC
	extern	_DDRA
	extern	_TRISA
	extern	_DDRB
	extern	_TRISB
	extern	_DDRC
	extern	_TRISC
	extern	_OSCTUNE
	extern	_PIE1
	extern	_PIR1
	extern	_IPR1
	extern	_PIE2
	extern	_PIR2
	extern	_IPR2
	extern	_EECON1
	extern	_EECON2
	extern	_EEDATA
	extern	_EEADR
	extern	_RCSTA
	extern	_TXSTA
	extern	_TXREG
	extern	_RCREG
	extern	_SPBRG
	extern	_SPBRGH
	extern	_T3CON
	extern	_TMR3
	extern	_TMR3L
	extern	_TMR3H
	extern	_CMCON
	extern	_CVRCON
	extern	_CCP1AS
	extern	_ECCP1AS
	extern	_CCP1DEL
	extern	_ECCP1DEL
	extern	_BAUDCON
	extern	_BAUDCTL
	extern	_CCP2CON
	extern	_CCPR2
	extern	_CCPR2L
	extern	_CCPR2H
	extern	_CCP1CON
	extern	_CCPR1
	extern	_CCPR1L
	extern	_CCPR1H
	extern	_ADCON2
	extern	_ADCON1
	extern	_ADCON0
	extern	_ADRES
	extern	_ADRESL
	extern	_ADRESH
	extern	_SSPCON2
	extern	_SSPCON1
	extern	_SSPSTAT
	extern	_SSPADD
	extern	_SSPBUF
	extern	_T2CON
	extern	_PR2
	extern	_TMR2
	extern	_T1CON
	extern	_TMR1
	extern	_TMR1L
	extern	_TMR1H
	extern	_RCON
	extern	_WDTCON
	extern	_HLVDCON
	extern	_LVDCON
	extern	_OSCCON
	extern	_T0CON
	extern	_TMR0
	extern	_TMR0L
	extern	_TMR0H
	extern	_STATUS
	extern	_FSR2L
	extern	_FSR2H
	extern	_PLUSW2
	extern	_PREINC2
	extern	_POSTDEC2
	extern	_POSTINC2
	extern	_INDF2
	extern	_BSR
	extern	_FSR1L
	extern	_FSR1H
	extern	_PLUSW1
	extern	_PREINC1
	extern	_POSTDEC1
	extern	_POSTINC1
	extern	_INDF1
	extern	_WREG
	extern	_FSR0L
	extern	_FSR0H
	extern	_PLUSW0
	extern	_PREINC0
	extern	_POSTDEC0
	extern	_POSTINC0
	extern	_INDF0
	extern	_INTCON3
	extern	_INTCON2
	extern	_INTCON
	extern	_PROD
	extern	_PRODL
	extern	_PRODH
	extern	_TABLAT
	extern	_TBLPTR
	extern	_TBLPTRL
	extern	_TBLPTRH
	extern	_TBLPTRU
	extern	_PC
	extern	_PCL
	extern	_PCLATH
	extern	_PCLATU
	extern	_STKPTR
	extern	_TOS
	extern	_TOSL
	extern	_TOSH
	extern	_TOSU
	extern	_sprintf
	extern	_usart_drdy
	extern	_usart_getc
	extern	_usart_putc
	extern	_usart_puts
	extern	_adc_open
	extern	_adc_close
	extern	_adc_conv
	extern	_adc_busy
	extern	_adc_read
	extern	_adc_setchannel
	extern	__mullong
	extern	__divulong

;--------------------------------------------------------
;	Equates to used internal registers
;--------------------------------------------------------
STATUS	equ	0xfd8
PCL	equ	0xff9
PCLATH	equ	0xffa
PCLATU	equ	0xffb
WREG	equ	0xfe8
BSR	equ	0xfe0
FSR0L	equ	0xfe9
FSR0H	equ	0xfea
FSR1L	equ	0xfe1
FSR2L	equ	0xfd9
INDF0	equ	0xfef
POSTINC1	equ	0xfe6
POSTDEC1	equ	0xfe5
PREINC1	equ	0xfe4
PLUSW2	equ	0xfdb
PRODL	equ	0xff3
PRODH	equ	0xff4


; Internal registers
.registers	udata_ovr	0x0000
r0x00	res	1
r0x01	res	1
r0x02	res	1
r0x03	res	1
r0x04	res	1
r0x05	res	1
r0x06	res	1
r0x07	res	1
r0x08	res	1
r0x09	res	1
r0x0a	res	1
r0x0b	res	1
r0x0c	res	1
r0x0d	res	1

udata_meter_logger_0	udata
_c	res	1

udata_meter_logger_1	udata
_timer_1_ms	res	2

udata_meter_logger_2	udata
_fifo_head	res	2

udata_meter_logger_3	udata
_fifo_tail	res	2

udata_meter_logger_4	udata
_debug_buffer	res	128

udata_meter_logger_5	udata
_main_cmd_1_90	res	1

udata_meter_logger_6	udata
_main_sub_cmd_1_90	res	1

udata_meter_logger_7	udata
_timer_0	res	2

udata_meter_logger_8	udata
_timer0_reload	res	2

udata_meter_logger_9	udata
_testo_ir_proto	res	6

udata_meter_logger_10	udata
_rs232_proto	res	6

udata_meter_logger_11	udata
_fsk_proto	res	16

udata_meter_logger_12	udata
_last_timer_0	res	2

udata_meter_logger_13	udata
_codec_type	res	1

udata_meter_logger_14	udata
_led_flash	res	2

udata_meter_logger_15	udata
_fifo_buffer_0	res	256

udata_meter_logger_16	udata
_fifo_buffer_1	res	256

udata_meter_logger_17	udata
_fifo_buffer_2	res	256

udata_meter_logger_18	udata
_fifo_buffer_3	res	256

;--------------------------------------------------------
; interrupt vector
;--------------------------------------------------------

;--------------------------------------------------------
; global & static initialisations
;--------------------------------------------------------
; ; Starting pCode block for absolute section
; ;-----------------------------------------
S_meter_logger_ivec_0x1_isr_high_prio	code	0X000008
ivec_0x1_isr_high_prio:
	GOTO	_isr_high_prio

; ; Starting pCode block for absolute section
; ;-----------------------------------------
S_meter_logger_ivec_0x2_isr_low_prio	code	0X000018
ivec_0x2_isr_low_prio:
	GOTO	_isr_low_prio

; I code from now on!
; ; Starting pCode block
S_meter_logger__main	code
_main:
;	.line	120; meter_logger.c	OSCCONbits.SCS = 0x10;
	MOVF	_OSCCONbits, W
	ANDLW	0xfc
	MOVWF	_OSCCONbits
;	.line	122; meter_logger.c	OSCCONbits.IRCF = 0x7;	// 8 MHz
	MOVF	_OSCCONbits, W
	ANDLW	0x8f
	IORLW	0x70
	MOVWF	_OSCCONbits
	BANKSEL	_timer_1_ms
;	.line	125; meter_logger.c	timer_1_ms = 0;
	CLRF	_timer_1_ms, B
; removed redundant BANKSEL
	CLRF	(_timer_1_ms + 1), B
	BANKSEL	_fifo_head
;	.line	127; meter_logger.c	fifo_head = 0;
	CLRF	_fifo_head, B
; removed redundant BANKSEL
	CLRF	(_fifo_head + 1), B
	BANKSEL	_fifo_tail
;	.line	128; meter_logger.c	fifo_tail = 0;
	CLRF	_fifo_tail, B
; removed redundant BANKSEL
	CLRF	(_fifo_tail + 1), B
;	.line	130; meter_logger.c	init_system();	
	CALL	_init_system
;	.line	131; meter_logger.c	sleep_ms(100);
	MOVLW	0x00
	MOVWF	POSTDEC1
	MOVLW	0x64
	MOVWF	POSTDEC1
	CALL	_sleep_ms
	MOVF	POSTINC1, F
	MOVF	POSTINC1, F
;	.line	134; meter_logger.c	usart_puts("\n\rMeterLogger... serial working\n\r");
	MOVLW	UPPER(___str_0)
	MOVWF	r0x02
	MOVLW	HIGH(___str_0)
	MOVWF	r0x01
	MOVLW	LOW(___str_0)
	MOVWF	r0x00
	MOVF	r0x02, W
	MOVWF	POSTDEC1
	MOVF	r0x01, W
	MOVWF	POSTDEC1
	MOVF	r0x00, W
	MOVWF	POSTDEC1
	CALL	_usart_puts
	MOVLW	0x03
	ADDWF	FSR1L, F
;	.line	138; meter_logger.c	get_battery_level();
	CALL	_get_battery_level
;	.line	141; meter_logger.c	dev_id = get_dev_id();
	CALL	_get_dev_id
	MOVWF	r0x00
	MOVFF	PRODL, r0x01
;	.line	143; meter_logger.c	if (dev_id == 0x1240) {
	MOVF	r0x00, W
	XORLW	0x40
	BNZ	_00325_DS_
	MOVF	r0x01, W
	XORLW	0x12
	BZ	_00326_DS_
_00325_DS_:
	BRA	_00109_DS_
_00326_DS_:
;	.line	144; meter_logger.c	sprintf(debug_buffer, "Processor: pic18f2550\n\r");
	MOVLW	UPPER(___str_1)
	MOVWF	r0x04
	MOVLW	HIGH(___str_1)
	MOVWF	r0x03
	MOVLW	LOW(___str_1)
	MOVWF	r0x02
	MOVLW	HIGH(_debug_buffer)
	MOVWF	r0x06
	MOVLW	LOW(_debug_buffer)
	MOVWF	r0x05
	MOVLW	0x80
	MOVWF	r0x07
	MOVF	r0x04, W
	MOVWF	POSTDEC1
	MOVF	r0x03, W
	MOVWF	POSTDEC1
	MOVF	r0x02, W
	MOVWF	POSTDEC1
	MOVF	r0x07, W
	MOVWF	POSTDEC1
	MOVF	r0x06, W
	MOVWF	POSTDEC1
	MOVF	r0x05, W
	MOVWF	POSTDEC1
	CALL	_sprintf
	MOVLW	0x06
	ADDWF	FSR1L, F
	BRA	_00110_DS_
_00109_DS_:
;	.line	146; meter_logger.c	else if (dev_id == 0x2a40) {
	MOVF	r0x00, W
	XORLW	0x40
	BNZ	_00327_DS_
	MOVF	r0x01, W
	XORLW	0x2a
	BZ	_00328_DS_
_00327_DS_:
	BRA	_00106_DS_
_00328_DS_:
;	.line	147; meter_logger.c	sprintf(debug_buffer, "Processor: pic18f2553\n\r");
	MOVLW	UPPER(___str_2)
	MOVWF	r0x04
	MOVLW	HIGH(___str_2)
	MOVWF	r0x03
	MOVLW	LOW(___str_2)
	MOVWF	r0x02
	MOVLW	HIGH(_debug_buffer)
	MOVWF	r0x06
	MOVLW	LOW(_debug_buffer)
	MOVWF	r0x05
	MOVLW	0x80
	MOVWF	r0x07
	MOVF	r0x04, W
	MOVWF	POSTDEC1
	MOVF	r0x03, W
	MOVWF	POSTDEC1
	MOVF	r0x02, W
	MOVWF	POSTDEC1
	MOVF	r0x07, W
	MOVWF	POSTDEC1
	MOVF	r0x06, W
	MOVWF	POSTDEC1
	MOVF	r0x05, W
	MOVWF	POSTDEC1
	CALL	_sprintf
	MOVLW	0x06
	ADDWF	FSR1L, F
	BRA	_00110_DS_
_00106_DS_:
;	.line	150; meter_logger.c	sprintf(debug_buffer, "Processor: unsupported, device id: 0x%04x\n\r", dev_id);
	MOVLW	UPPER(___str_3)
	MOVWF	r0x04
	MOVLW	HIGH(___str_3)
	MOVWF	r0x03
	MOVLW	LOW(___str_3)
	MOVWF	r0x02
	MOVLW	HIGH(_debug_buffer)
	MOVWF	r0x06
	MOVLW	LOW(_debug_buffer)
	MOVWF	r0x05
	MOVLW	0x80
	MOVWF	r0x07
	MOVF	r0x01, W
	MOVWF	POSTDEC1
	MOVF	r0x00, W
	MOVWF	POSTDEC1
	MOVF	r0x04, W
	MOVWF	POSTDEC1
	MOVF	r0x03, W
	MOVWF	POSTDEC1
	MOVF	r0x02, W
	MOVWF	POSTDEC1
	MOVF	r0x07, W
	MOVWF	POSTDEC1
	MOVF	r0x06, W
	MOVWF	POSTDEC1
	MOVF	r0x05, W
	MOVWF	POSTDEC1
	CALL	_sprintf
	MOVLW	0x08
	ADDWF	FSR1L, F
_00110_DS_:
;	.line	152; meter_logger.c	usart_puts(debug_buffer);
	MOVLW	HIGH(_debug_buffer)
	MOVWF	r0x01
	MOVLW	LOW(_debug_buffer)
	MOVWF	r0x00
	MOVLW	0x80
	MOVWF	r0x02
	MOVF	r0x02, W
	MOVWF	POSTDEC1
	MOVF	r0x01, W
	MOVWF	POSTDEC1
	MOVF	r0x00, W
	MOVWF	POSTDEC1
	CALL	_usart_puts
	MOVLW	0x03
	ADDWF	FSR1L, F
;	.line	155; meter_logger.c	fsk_rx_enable();
	CALL	_fsk_rx_enable
_00168_DS_:
;	.line	157; meter_logger.c	if (fifo_get(&cmd)) {
	MOVLW	HIGH(_main_cmd_1_90)
	MOVWF	r0x01
	MOVLW	LOW(_main_cmd_1_90)
	MOVWF	r0x00
	MOVLW	0x80
	MOVWF	r0x02
	MOVF	r0x02, W
	MOVWF	POSTDEC1
	MOVF	r0x01, W
	MOVWF	POSTDEC1
	MOVF	r0x00, W
	MOVWF	POSTDEC1
	CALL	_fifo_get
	MOVWF	r0x00
	MOVLW	0x03
	ADDWF	FSR1L, F
	MOVF	r0x00, W
	BZ	_00168_DS_
;	.line	158; meter_logger.c	switch (cmd) {
	MOVLW	0xfb
	BANKSEL	_main_cmd_1_90
	SUBWF	_main_cmd_1_90, W, B
	BNC	_00168_DS_
	MOVLW	0x05
; removed redundant BANKSEL
	ADDWF	_main_cmd_1_90, W, B
	MOVWF	r0x00
	CLRF	PCLATH
	CLRF	PCLATU
	RLCF	r0x00, W
	RLCF	PCLATH, F
	RLCF	WREG, W
	RLCF	PCLATH, F
	ANDLW	0xfc
	ADDLW	LOW(_00330_DS_)
	MOVWF	POSTDEC1
	MOVLW	HIGH(_00330_DS_)
	ADDWFC	PCLATH, F
	MOVLW	UPPER(_00330_DS_)
	ADDWFC	PCLATU, F
	MOVF	PREINC1, W
	MOVWF	PCL
_00330_DS_:
	GOTO	_00163_DS_
	GOTO	_00145_DS_
	GOTO	_00127_DS_
	GOTO	_00111_DS_
	GOTO	_00119_DS_
_00111_DS_:
;	.line	160; meter_logger.c	fsk_rx_disable();
	CALL	_fsk_rx_disable
;	.line	161; meter_logger.c	usart_puts("\n\rpress print on testo\n\r");
	MOVLW	UPPER(___str_4)
	MOVWF	r0x02
	MOVLW	HIGH(___str_4)
	MOVWF	r0x01
	MOVLW	LOW(___str_4)
	MOVWF	r0x00
	MOVF	r0x02, W
	MOVWF	POSTDEC1
	MOVF	r0x01, W
	MOVWF	POSTDEC1
	MOVF	r0x00, W
	MOVWF	POSTDEC1
	CALL	_usart_puts
	MOVLW	0x03
	ADDWF	FSR1L, F
;	.line	162; meter_logger.c	testo_ir_enable();
	CALL	_testo_ir_enable
;	.line	164; meter_logger.c	last_fifo_size = 0;
	CLRF	r0x00
	CLRF	r0x01
;	.line	165; meter_logger.c	sleep_ms(10000);						// 10 seconds to start printing
	MOVLW	0x27
	MOVWF	POSTDEC1
	MOVLW	0x10
	MOVWF	POSTDEC1
	CALL	_sleep_ms
	MOVF	POSTINC1, F
	MOVF	POSTINC1, F
;	.line	166; meter_logger.c	fifo_size = fifo_in_use();
	CALL	_fifo_in_use
	MOVWF	r0x02
	MOVFF	PRODL, r0x03
_00112_DS_:
;	.line	167; meter_logger.c	while (fifo_size > last_fifo_size) {	// and wait while we are still receiving data
	MOVF	r0x03, W
	SUBWF	r0x01, W
	BNZ	_00331_DS_
	MOVF	r0x02, W
	SUBWF	r0x00, W
_00331_DS_:
	BC	_00114_DS_
;	.line	168; meter_logger.c	last_fifo_size = fifo_size;
	MOVFF	r0x02, r0x00
	MOVFF	r0x03, r0x01
;	.line	169; meter_logger.c	sleep_ms(200);						// return data when no data for 200 ms
	MOVLW	0x00
	MOVWF	POSTDEC1
	MOVLW	0xc8
	MOVWF	POSTDEC1
	CALL	_sleep_ms
	MOVF	POSTINC1, F
	MOVF	POSTINC1, F
;	.line	170; meter_logger.c	fifo_size = fifo_in_use();
	CALL	_fifo_in_use
	MOVWF	r0x02
	MOVFF	PRODL, r0x03
	BRA	_00112_DS_
_00114_DS_:
;	.line	172; meter_logger.c	testo_ir_disable();
	CALL	_testo_ir_disable
;	.line	175; meter_logger.c	usart_puts("\n\rdone receiving - sending via serial/fsk\n\r");
	MOVLW	UPPER(___str_5)
	MOVWF	r0x06
	MOVLW	HIGH(___str_5)
	MOVWF	r0x05
	MOVLW	LOW(___str_5)
	MOVWF	r0x04
	MOVF	r0x06, W
	MOVWF	POSTDEC1
	MOVF	r0x05, W
	MOVWF	POSTDEC1
	MOVF	r0x04, W
	MOVWF	POSTDEC1
	CALL	_usart_puts
	MOVLW	0x03
	ADDWF	FSR1L, F
;	.line	178; meter_logger.c	for (i = 0; i < fifo_in_use(); i++) {
	CLRF	r0x04
	CLRF	r0x05
_00171_DS_:
	CALL	_fifo_in_use
	MOVWF	r0x06
	MOVFF	PRODL, r0x07
	MOVF	r0x07, W
	SUBWF	r0x05, W
	BNZ	_00332_DS_
	MOVF	r0x06, W
	SUBWF	r0x04, W
_00332_DS_:
	BTFSC	STATUS, 0
	BRA	_00115_DS_
;	.line	180; meter_logger.c	fifo_get(&sub_cmd);
	MOVLW	HIGH(_main_sub_cmd_1_90)
	MOVWF	r0x07
	MOVLW	LOW(_main_sub_cmd_1_90)
	MOVWF	r0x06
	MOVLW	0x80
	MOVWF	r0x08
	MOVF	r0x08, W
	MOVWF	POSTDEC1
	MOVF	r0x07, W
	MOVWF	POSTDEC1
	MOVF	r0x06, W
	MOVWF	POSTDEC1
	CALL	_fifo_get
	MOVLW	0x03
	ADDWF	FSR1L, F
;	.line	182; meter_logger.c	sprintf(debug_buffer, "%d ", sub_cmd);
	MOVFF	_main_sub_cmd_1_90, r0x06
	CLRF	r0x07
	MOVLW	UPPER(___str_6)
	MOVWF	r0x0a
	MOVLW	HIGH(___str_6)
	MOVWF	r0x09
	MOVLW	LOW(___str_6)
	MOVWF	r0x08
	MOVLW	HIGH(_debug_buffer)
	MOVWF	r0x0c
	MOVLW	LOW(_debug_buffer)
	MOVWF	r0x0b
	MOVLW	0x80
	MOVWF	r0x0d
	MOVF	r0x07, W
	MOVWF	POSTDEC1
	MOVF	r0x06, W
	MOVWF	POSTDEC1
	MOVF	r0x0a, W
	MOVWF	POSTDEC1
	MOVF	r0x09, W
	MOVWF	POSTDEC1
	MOVF	r0x08, W
	MOVWF	POSTDEC1
	MOVF	r0x0d, W
	MOVWF	POSTDEC1
	MOVF	r0x0c, W
	MOVWF	POSTDEC1
	MOVF	r0x0b, W
	MOVWF	POSTDEC1
	CALL	_sprintf
	MOVLW	0x08
	ADDWF	FSR1L, F
;	.line	183; meter_logger.c	usart_puts(debug_buffer);
	MOVLW	HIGH(_debug_buffer)
	MOVWF	r0x07
	MOVLW	LOW(_debug_buffer)
	MOVWF	r0x06
	MOVLW	0x80
	MOVWF	r0x08
	MOVF	r0x08, W
	MOVWF	POSTDEC1
	MOVF	r0x07, W
	MOVWF	POSTDEC1
	MOVF	r0x06, W
	MOVWF	POSTDEC1
	CALL	_usart_puts
	MOVLW	0x03
	ADDWF	FSR1L, F
	BANKSEL	_main_sub_cmd_1_90
;	.line	185; meter_logger.c	fifo_put(sub_cmd);
	MOVF	_main_sub_cmd_1_90, W, B
	MOVWF	POSTDEC1
	CALL	_fifo_put
	MOVF	POSTINC1, F
;	.line	178; meter_logger.c	for (i = 0; i < fifo_in_use(); i++) {
	INFSNZ	r0x04, F
	INCF	r0x05, F
	BRA	_00171_DS_
_00115_DS_:
;	.line	188; meter_logger.c	fsk_tx_enable();
	CALL	_fsk_tx_enable
_00116_DS_:
;	.line	189; meter_logger.c	while (fifo_get(&cmd)) {	// and print them to serial
	MOVLW	HIGH(_main_cmd_1_90)
	MOVWF	r0x05
	MOVLW	LOW(_main_cmd_1_90)
	MOVWF	r0x04
	MOVLW	0x80
	MOVWF	r0x06
	MOVF	r0x06, W
	MOVWF	POSTDEC1
	MOVF	r0x05, W
	MOVWF	POSTDEC1
	MOVF	r0x04, W
	MOVWF	POSTDEC1
	CALL	_fifo_get
	MOVWF	r0x04
	MOVLW	0x03
	ADDWF	FSR1L, F
	MOVF	r0x04, W
	BZ	_00118_DS_
	BANKSEL	_main_cmd_1_90
;	.line	190; meter_logger.c	fsk_tx_byte(cmd);
	MOVF	_main_cmd_1_90, W, B
	MOVWF	POSTDEC1
	CALL	_fsk_tx_byte
	MOVF	POSTINC1, F
;	.line	191; meter_logger.c	sleep_ms(FSK_TX_SLEEP);
	MOVLW	0x00
	MOVWF	POSTDEC1
	MOVLW	0x02
	MOVWF	POSTDEC1
	CALL	_sleep_ms
	MOVF	POSTINC1, F
	MOVF	POSTINC1, F
	BRA	_00116_DS_
_00118_DS_:
;	.line	193; meter_logger.c	fsk_tx_disable();
	CALL	_fsk_tx_disable
;	.line	195; meter_logger.c	usart_puts("\n\rwaiting for new command\n\r");
	MOVLW	UPPER(___str_7)
	MOVWF	r0x06
	MOVLW	HIGH(___str_7)
	MOVWF	r0x05
	MOVLW	LOW(___str_7)
	MOVWF	r0x04
	MOVF	r0x06, W
	MOVWF	POSTDEC1
	MOVF	r0x05, W
	MOVWF	POSTDEC1
	MOVF	r0x04, W
	MOVWF	POSTDEC1
	CALL	_usart_puts
	MOVLW	0x03
	ADDWF	FSR1L, F
;	.line	197; meter_logger.c	fsk_rx_enable();
	CALL	_fsk_rx_enable
;	.line	198; meter_logger.c	break;
	BRA	_00168_DS_
_00119_DS_:
;	.line	202; meter_logger.c	fsk_rx_disable();
	CALL	_fsk_rx_disable
;	.line	203; meter_logger.c	usart_puts("\n\recho test - send some data\n\r");
	MOVLW	UPPER(___str_8)
	MOVWF	r0x06
	MOVLW	HIGH(___str_8)
	MOVWF	r0x05
	MOVLW	LOW(___str_8)
	MOVWF	r0x04
	MOVF	r0x06, W
	MOVWF	POSTDEC1
	MOVF	r0x05, W
	MOVWF	POSTDEC1
	MOVF	r0x04, W
	MOVWF	POSTDEC1
	CALL	_usart_puts
	MOVLW	0x03
	ADDWF	FSR1L, F
;	.line	204; meter_logger.c	fsk_rx_enable();
	CALL	_fsk_rx_enable
;	.line	208; meter_logger.c	last_fifo_size = 0;
	CLRF	r0x00
	CLRF	r0x01
;	.line	209; meter_logger.c	sleep_ms(1000);							// 1 second
	MOVLW	0x03
	MOVWF	POSTDEC1
	MOVLW	0xe8
	MOVWF	POSTDEC1
	CALL	_sleep_ms
	MOVF	POSTINC1, F
	MOVF	POSTINC1, F
;	.line	210; meter_logger.c	fifo_size = fifo_in_use();
	CALL	_fifo_in_use
	MOVWF	r0x02
	MOVFF	PRODL, r0x03
_00120_DS_:
;	.line	211; meter_logger.c	while (fifo_size > last_fifo_size) {	// and wait while we are still receiving data
	MOVF	r0x03, W
	SUBWF	r0x01, W
	BNZ	_00333_DS_
	MOVF	r0x02, W
	SUBWF	r0x00, W
_00333_DS_:
	BC	_00122_DS_
;	.line	212; meter_logger.c	last_fifo_size = fifo_size;
	MOVFF	r0x02, r0x00
	MOVFF	r0x03, r0x01
;	.line	213; meter_logger.c	sleep_ms(500);						// return data when no data for 500 ms
	MOVLW	0x01
	MOVWF	POSTDEC1
	MOVLW	0xf4
	MOVWF	POSTDEC1
	CALL	_sleep_ms
	MOVF	POSTINC1, F
	MOVF	POSTINC1, F
;	.line	214; meter_logger.c	fifo_size = fifo_in_use();
	CALL	_fifo_in_use
	MOVWF	r0x02
	MOVFF	PRODL, r0x03
	BRA	_00120_DS_
_00122_DS_:
;	.line	216; meter_logger.c	fsk_rx_disable();
	CALL	_fsk_rx_disable
;	.line	219; meter_logger.c	for (i = 0; i < fifo_in_use(); i++) {
	CLRF	r0x04
	CLRF	r0x05
_00174_DS_:
	CALL	_fifo_in_use
	MOVWF	r0x06
	MOVFF	PRODL, r0x07
	MOVF	r0x07, W
	SUBWF	r0x05, W
	BNZ	_00334_DS_
	MOVF	r0x06, W
	SUBWF	r0x04, W
_00334_DS_:
	BTFSC	STATUS, 0
	BRA	_00123_DS_
;	.line	221; meter_logger.c	fifo_get(&sub_cmd);
	MOVLW	HIGH(_main_sub_cmd_1_90)
	MOVWF	r0x07
	MOVLW	LOW(_main_sub_cmd_1_90)
	MOVWF	r0x06
	MOVLW	0x80
	MOVWF	r0x08
	MOVF	r0x08, W
	MOVWF	POSTDEC1
	MOVF	r0x07, W
	MOVWF	POSTDEC1
	MOVF	r0x06, W
	MOVWF	POSTDEC1
	CALL	_fifo_get
	MOVLW	0x03
	ADDWF	FSR1L, F
;	.line	223; meter_logger.c	sprintf(debug_buffer, "%d ", sub_cmd);
	MOVFF	_main_sub_cmd_1_90, r0x06
	CLRF	r0x07
	MOVLW	UPPER(___str_6)
	MOVWF	r0x0a
	MOVLW	HIGH(___str_6)
	MOVWF	r0x09
	MOVLW	LOW(___str_6)
	MOVWF	r0x08
	MOVLW	HIGH(_debug_buffer)
	MOVWF	r0x0c
	MOVLW	LOW(_debug_buffer)
	MOVWF	r0x0b
	MOVLW	0x80
	MOVWF	r0x0d
	MOVF	r0x07, W
	MOVWF	POSTDEC1
	MOVF	r0x06, W
	MOVWF	POSTDEC1
	MOVF	r0x0a, W
	MOVWF	POSTDEC1
	MOVF	r0x09, W
	MOVWF	POSTDEC1
	MOVF	r0x08, W
	MOVWF	POSTDEC1
	MOVF	r0x0d, W
	MOVWF	POSTDEC1
	MOVF	r0x0c, W
	MOVWF	POSTDEC1
	MOVF	r0x0b, W
	MOVWF	POSTDEC1
	CALL	_sprintf
	MOVLW	0x08
	ADDWF	FSR1L, F
;	.line	224; meter_logger.c	usart_puts(debug_buffer);
	MOVLW	HIGH(_debug_buffer)
	MOVWF	r0x07
	MOVLW	LOW(_debug_buffer)
	MOVWF	r0x06
	MOVLW	0x80
	MOVWF	r0x08
	MOVF	r0x08, W
	MOVWF	POSTDEC1
	MOVF	r0x07, W
	MOVWF	POSTDEC1
	MOVF	r0x06, W
	MOVWF	POSTDEC1
	CALL	_usart_puts
	MOVLW	0x03
	ADDWF	FSR1L, F
	BANKSEL	_main_sub_cmd_1_90
;	.line	226; meter_logger.c	fifo_put(sub_cmd);
	MOVF	_main_sub_cmd_1_90, W, B
	MOVWF	POSTDEC1
	CALL	_fifo_put
	MOVF	POSTINC1, F
;	.line	219; meter_logger.c	for (i = 0; i < fifo_in_use(); i++) {
	INFSNZ	r0x04, F
	INCF	r0x05, F
	BRA	_00174_DS_
_00123_DS_:
;	.line	231; meter_logger.c	fsk_tx_enable();
	CALL	_fsk_tx_enable
_00124_DS_:
;	.line	232; meter_logger.c	while (fifo_get(&sub_cmd)) {
	MOVLW	HIGH(_main_sub_cmd_1_90)
	MOVWF	r0x05
	MOVLW	LOW(_main_sub_cmd_1_90)
	MOVWF	r0x04
	MOVLW	0x80
	MOVWF	r0x06
	MOVF	r0x06, W
	MOVWF	POSTDEC1
	MOVF	r0x05, W
	MOVWF	POSTDEC1
	MOVF	r0x04, W
	MOVWF	POSTDEC1
	CALL	_fifo_get
	MOVWF	r0x04
	MOVLW	0x03
	ADDWF	FSR1L, F
	MOVF	r0x04, W
	BZ	_00126_DS_
	BANKSEL	_main_sub_cmd_1_90
;	.line	233; meter_logger.c	fsk_tx_byte(sub_cmd);
	MOVF	_main_sub_cmd_1_90, W, B
	MOVWF	POSTDEC1
	CALL	_fsk_tx_byte
	MOVF	POSTINC1, F
;	.line	234; meter_logger.c	sleep_ms(FSK_TX_SLEEP);
	MOVLW	0x00
	MOVWF	POSTDEC1
	MOVLW	0x02
	MOVWF	POSTDEC1
	CALL	_sleep_ms
	MOVF	POSTINC1, F
	MOVF	POSTINC1, F
	BRA	_00124_DS_
_00126_DS_:
;	.line	236; meter_logger.c	fsk_tx_disable();
	CALL	_fsk_tx_disable
;	.line	239; meter_logger.c	usart_puts("\n\rwaiting for new command\n\r");
	MOVLW	UPPER(___str_7)
	MOVWF	r0x06
	MOVLW	HIGH(___str_7)
	MOVWF	r0x05
	MOVLW	LOW(___str_7)
	MOVWF	r0x04
	MOVF	r0x06, W
	MOVWF	POSTDEC1
	MOVF	r0x05, W
	MOVWF	POSTDEC1
	MOVF	r0x04, W
	MOVWF	POSTDEC1
	CALL	_usart_puts
	MOVLW	0x03
	ADDWF	FSR1L, F
;	.line	241; meter_logger.c	fsk_rx_enable();
	CALL	_fsk_rx_enable
;	.line	242; meter_logger.c	break;
	BRA	_00168_DS_
_00127_DS_:
;	.line	245; meter_logger.c	fsk_rx_disable();
	CALL	_fsk_rx_disable
;	.line	247; meter_logger.c	usart_puts("\n\rkamstrup - send kmp frame data\n\r");
	MOVLW	UPPER(___str_9)
	MOVWF	r0x06
	MOVLW	HIGH(___str_9)
	MOVWF	r0x05
	MOVLW	LOW(___str_9)
	MOVWF	r0x04
	MOVF	r0x06, W
	MOVWF	POSTDEC1
	MOVF	r0x05, W
	MOVWF	POSTDEC1
	MOVF	r0x04, W
	MOVWF	POSTDEC1
	CALL	_usart_puts
	MOVLW	0x03
	ADDWF	FSR1L, F
;	.line	251; meter_logger.c	fsk_rx_enable();
	CALL	_fsk_rx_enable
;	.line	252; meter_logger.c	last_fifo_size = 0;
	CLRF	r0x00
	CLRF	r0x01
;	.line	253; meter_logger.c	sleep_ms(400);							// sleep 400 ms to let some data come in
	MOVLW	0x01
	MOVWF	POSTDEC1
	MOVLW	0x90
	MOVWF	POSTDEC1
	CALL	_sleep_ms
	MOVF	POSTINC1, F
	MOVF	POSTINC1, F
;	.line	254; meter_logger.c	fifo_size = fifo_in_use();
	CALL	_fifo_in_use
	MOVWF	r0x02
	MOVFF	PRODL, r0x03
_00128_DS_:
;	.line	255; meter_logger.c	while (fifo_size > last_fifo_size) {	// and wait while we are still receiving data
	MOVF	r0x03, W
	SUBWF	r0x01, W
	BNZ	_00335_DS_
	MOVF	r0x02, W
	SUBWF	r0x00, W
_00335_DS_:
	BC	_00130_DS_
;	.line	256; meter_logger.c	last_fifo_size = fifo_size;
	MOVFF	r0x02, r0x00
	MOVFF	r0x03, r0x01
;	.line	257; meter_logger.c	sleep_ms(200);						// return data when no data for 100 ms
	MOVLW	0x00
	MOVWF	POSTDEC1
	MOVLW	0xc8
	MOVWF	POSTDEC1
	CALL	_sleep_ms
	MOVF	POSTINC1, F
	MOVF	POSTINC1, F
;	.line	258; meter_logger.c	fifo_size = fifo_in_use();
	CALL	_fifo_in_use
	MOVWF	r0x02
	MOVFF	PRODL, r0x03
	BRA	_00128_DS_
_00130_DS_:
;	.line	260; meter_logger.c	fsk_rx_disable();
	CALL	_fsk_rx_disable
;	.line	263; meter_logger.c	usart_puts("\n\rkamstrup - kmp frame received:\n\r");
	MOVLW	UPPER(___str_10)
	MOVWF	r0x06
	MOVLW	HIGH(___str_10)
	MOVWF	r0x05
	MOVLW	LOW(___str_10)
	MOVWF	r0x04
	MOVF	r0x06, W
	MOVWF	POSTDEC1
	MOVF	r0x05, W
	MOVWF	POSTDEC1
	MOVF	r0x04, W
	MOVWF	POSTDEC1
	CALL	_usart_puts
	MOVLW	0x03
	ADDWF	FSR1L, F
;	.line	266; meter_logger.c	for (i = 0; i < fifo_in_use(); i++) {
	CLRF	r0x04
	CLRF	r0x05
_00177_DS_:
	CALL	_fifo_in_use
	MOVWF	r0x06
	MOVFF	PRODL, r0x07
	MOVF	r0x07, W
	SUBWF	r0x05, W
	BNZ	_00336_DS_
	MOVF	r0x06, W
	SUBWF	r0x04, W
_00336_DS_:
	BTFSC	STATUS, 0
	BRA	_00131_DS_
;	.line	268; meter_logger.c	fifo_get(&sub_cmd);
	MOVLW	HIGH(_main_sub_cmd_1_90)
	MOVWF	r0x07
	MOVLW	LOW(_main_sub_cmd_1_90)
	MOVWF	r0x06
	MOVLW	0x80
	MOVWF	r0x08
	MOVF	r0x08, W
	MOVWF	POSTDEC1
	MOVF	r0x07, W
	MOVWF	POSTDEC1
	MOVF	r0x06, W
	MOVWF	POSTDEC1
	CALL	_fifo_get
	MOVLW	0x03
	ADDWF	FSR1L, F
;	.line	270; meter_logger.c	sprintf(debug_buffer, "%d ", sub_cmd);
	MOVFF	_main_sub_cmd_1_90, r0x06
	CLRF	r0x07
	MOVLW	UPPER(___str_6)
	MOVWF	r0x0a
	MOVLW	HIGH(___str_6)
	MOVWF	r0x09
	MOVLW	LOW(___str_6)
	MOVWF	r0x08
	MOVLW	HIGH(_debug_buffer)
	MOVWF	r0x0c
	MOVLW	LOW(_debug_buffer)
	MOVWF	r0x0b
	MOVLW	0x80
	MOVWF	r0x0d
	MOVF	r0x07, W
	MOVWF	POSTDEC1
	MOVF	r0x06, W
	MOVWF	POSTDEC1
	MOVF	r0x0a, W
	MOVWF	POSTDEC1
	MOVF	r0x09, W
	MOVWF	POSTDEC1
	MOVF	r0x08, W
	MOVWF	POSTDEC1
	MOVF	r0x0d, W
	MOVWF	POSTDEC1
	MOVF	r0x0c, W
	MOVWF	POSTDEC1
	MOVF	r0x0b, W
	MOVWF	POSTDEC1
	CALL	_sprintf
	MOVLW	0x08
	ADDWF	FSR1L, F
;	.line	271; meter_logger.c	usart_puts(debug_buffer);
	MOVLW	HIGH(_debug_buffer)
	MOVWF	r0x07
	MOVLW	LOW(_debug_buffer)
	MOVWF	r0x06
	MOVLW	0x80
	MOVWF	r0x08
	MOVF	r0x08, W
	MOVWF	POSTDEC1
	MOVF	r0x07, W
	MOVWF	POSTDEC1
	MOVF	r0x06, W
	MOVWF	POSTDEC1
	CALL	_usart_puts
	MOVLW	0x03
	ADDWF	FSR1L, F
	BANKSEL	_main_sub_cmd_1_90
;	.line	273; meter_logger.c	fifo_put(sub_cmd);
	MOVF	_main_sub_cmd_1_90, W, B
	MOVWF	POSTDEC1
	CALL	_fifo_put
	MOVF	POSTINC1, F
;	.line	266; meter_logger.c	for (i = 0; i < fifo_in_use(); i++) {
	INFSNZ	r0x04, F
	INCF	r0x05, F
	BRA	_00177_DS_
_00131_DS_:
;	.line	277; meter_logger.c	rs232_8n2_tx_enable(TIMER0_RS232_1200);
	MOVLW	0xf9
	MOVWF	POSTDEC1
	MOVLW	0xae
	MOVWF	POSTDEC1
	CALL	_rs232_8n2_tx_enable
	MOVF	POSTINC1, F
	MOVF	POSTINC1, F
_00132_DS_:
;	.line	278; meter_logger.c	while (fifo_get(&sub_cmd)) {
	MOVLW	HIGH(_main_sub_cmd_1_90)
	MOVWF	r0x05
	MOVLW	LOW(_main_sub_cmd_1_90)
	MOVWF	r0x04
	MOVLW	0x80
	MOVWF	r0x06
	MOVF	r0x06, W
	MOVWF	POSTDEC1
	MOVF	r0x05, W
	MOVWF	POSTDEC1
	MOVF	r0x04, W
	MOVWF	POSTDEC1
	CALL	_fifo_get
	MOVWF	r0x04
	MOVLW	0x03
	ADDWF	FSR1L, F
	MOVF	r0x04, W
	BZ	_00134_DS_
	BANKSEL	_main_sub_cmd_1_90
;	.line	279; meter_logger.c	rs232_8n2_tx_byte(sub_cmd);
	MOVF	_main_sub_cmd_1_90, W, B
	MOVWF	POSTDEC1
	CALL	_rs232_8n2_tx_byte
	MOVF	POSTINC1, F
;	.line	280; meter_logger.c	sleep_ms(RS232_TX_SLEEP);
	MOVLW	0x00
	MOVWF	POSTDEC1
	MOVLW	0x0c
	MOVWF	POSTDEC1
	CALL	_sleep_ms
	MOVF	POSTINC1, F
	MOVF	POSTINC1, F
	BRA	_00132_DS_
_00134_DS_:
;	.line	282; meter_logger.c	rs232_8n2_tx_disable();
	CALL	_rs232_8n2_tx_disable
;	.line	288; meter_logger.c	rs232_8n2_rx_enable(TIMER0_RS232_1200);
	MOVLW	0xf9
	MOVWF	POSTDEC1
	MOVLW	0xae
	MOVWF	POSTDEC1
	CALL	_rs232_8n2_rx_enable
	MOVF	POSTINC1, F
	MOVF	POSTINC1, F
;	.line	289; meter_logger.c	last_fifo_size = 0;
	CLRF	r0x00
	CLRF	r0x01
;	.line	290; meter_logger.c	sleep_ms(400);							// sleep 400 ms to let some data come in
	MOVLW	0x01
	MOVWF	POSTDEC1
	MOVLW	0x90
	MOVWF	POSTDEC1
	CALL	_sleep_ms
	MOVF	POSTINC1, F
	MOVF	POSTINC1, F
;	.line	291; meter_logger.c	fifo_size = fifo_in_use();
	CALL	_fifo_in_use
	MOVWF	r0x02
	MOVFF	PRODL, r0x03
_00135_DS_:
;	.line	293; meter_logger.c	while (fifo_size > last_fifo_size) {	// and wait while we are still receiving data
	MOVF	r0x03, W
	SUBWF	r0x01, W
	BNZ	_00337_DS_
	MOVF	r0x02, W
	SUBWF	r0x00, W
_00337_DS_:
	BC	_00137_DS_
;	.line	294; meter_logger.c	last_fifo_size = fifo_size;
	MOVFF	r0x02, r0x00
	MOVFF	r0x03, r0x01
;	.line	295; meter_logger.c	sleep_ms(200);						// return data when no data for 200 ms
	MOVLW	0x00
	MOVWF	POSTDEC1
	MOVLW	0xc8
	MOVWF	POSTDEC1
	CALL	_sleep_ms
	MOVF	POSTINC1, F
	MOVF	POSTINC1, F
;	.line	296; meter_logger.c	fifo_size = fifo_in_use();
	CALL	_fifo_in_use
	MOVWF	r0x02
	MOVFF	PRODL, r0x03
	BRA	_00135_DS_
_00137_DS_:
;	.line	299; meter_logger.c	rs232_8n2_rx_disable();
	CALL	_rs232_8n2_rx_disable
;	.line	303; meter_logger.c	usart_puts("\n\rkamstrup - kmp reply received:\n\r");
	MOVLW	UPPER(___str_11)
	MOVWF	r0x06
	MOVLW	HIGH(___str_11)
	MOVWF	r0x05
	MOVLW	LOW(___str_11)
	MOVWF	r0x04
	MOVF	r0x06, W
	MOVWF	POSTDEC1
	MOVF	r0x05, W
	MOVWF	POSTDEC1
	MOVF	r0x04, W
	MOVWF	POSTDEC1
	CALL	_usart_puts
	MOVLW	0x03
	ADDWF	FSR1L, F
;	.line	306; meter_logger.c	for (i = 0; i < fifo_in_use(); i++) {
	CLRF	r0x04
	CLRF	r0x05
_00180_DS_:
	CALL	_fifo_in_use
	MOVWF	r0x06
	MOVFF	PRODL, r0x07
	MOVF	r0x07, W
	SUBWF	r0x05, W
	BNZ	_00338_DS_
	MOVF	r0x06, W
	SUBWF	r0x04, W
_00338_DS_:
	BTFSC	STATUS, 0
	BRA	_00138_DS_
;	.line	308; meter_logger.c	fifo_get(&sub_cmd);
	MOVLW	HIGH(_main_sub_cmd_1_90)
	MOVWF	r0x07
	MOVLW	LOW(_main_sub_cmd_1_90)
	MOVWF	r0x06
	MOVLW	0x80
	MOVWF	r0x08
	MOVF	r0x08, W
	MOVWF	POSTDEC1
	MOVF	r0x07, W
	MOVWF	POSTDEC1
	MOVF	r0x06, W
	MOVWF	POSTDEC1
	CALL	_fifo_get
	MOVLW	0x03
	ADDWF	FSR1L, F
;	.line	310; meter_logger.c	sprintf(debug_buffer, "%d ", sub_cmd);
	MOVFF	_main_sub_cmd_1_90, r0x06
	CLRF	r0x07
	MOVLW	UPPER(___str_6)
	MOVWF	r0x0a
	MOVLW	HIGH(___str_6)
	MOVWF	r0x09
	MOVLW	LOW(___str_6)
	MOVWF	r0x08
	MOVLW	HIGH(_debug_buffer)
	MOVWF	r0x0c
	MOVLW	LOW(_debug_buffer)
	MOVWF	r0x0b
	MOVLW	0x80
	MOVWF	r0x0d
	MOVF	r0x07, W
	MOVWF	POSTDEC1
	MOVF	r0x06, W
	MOVWF	POSTDEC1
	MOVF	r0x0a, W
	MOVWF	POSTDEC1
	MOVF	r0x09, W
	MOVWF	POSTDEC1
	MOVF	r0x08, W
	MOVWF	POSTDEC1
	MOVF	r0x0d, W
	MOVWF	POSTDEC1
	MOVF	r0x0c, W
	MOVWF	POSTDEC1
	MOVF	r0x0b, W
	MOVWF	POSTDEC1
	CALL	_sprintf
	MOVLW	0x08
	ADDWF	FSR1L, F
;	.line	311; meter_logger.c	usart_puts(debug_buffer);
	MOVLW	HIGH(_debug_buffer)
	MOVWF	r0x07
	MOVLW	LOW(_debug_buffer)
	MOVWF	r0x06
	MOVLW	0x80
	MOVWF	r0x08
	MOVF	r0x08, W
	MOVWF	POSTDEC1
	MOVF	r0x07, W
	MOVWF	POSTDEC1
	MOVF	r0x06, W
	MOVWF	POSTDEC1
	CALL	_usart_puts
	MOVLW	0x03
	ADDWF	FSR1L, F
	BANKSEL	_main_sub_cmd_1_90
;	.line	313; meter_logger.c	fifo_put(sub_cmd);
	MOVF	_main_sub_cmd_1_90, W, B
	MOVWF	POSTDEC1
	CALL	_fifo_put
	MOVF	POSTINC1, F
;	.line	306; meter_logger.c	for (i = 0; i < fifo_in_use(); i++) {
	INFSNZ	r0x04, F
	INCF	r0x05, F
	BRA	_00180_DS_
_00138_DS_:
;	.line	316; meter_logger.c	if (fifo_in_use()) {
	CALL	_fifo_in_use
	MOVWF	r0x04
	MOVFF	PRODL, r0x05
	MOVF	r0x04, W
	IORWF	r0x05, W
	BZ	_00143_DS_
;	.line	318; meter_logger.c	DEBUG2_PIN = 1;
	BSF	_PORTBbits, 3
	nop
	nop
	
;	.line	323; meter_logger.c	DEBUG2_PIN = 0;
	BCF	_PORTBbits, 3
;	.line	324; meter_logger.c	fsk_tx_enable();
	CALL	_fsk_tx_enable
_00139_DS_:
;	.line	325; meter_logger.c	while (fifo_get(&sub_cmd)) {
	MOVLW	HIGH(_main_sub_cmd_1_90)
	MOVWF	r0x05
	MOVLW	LOW(_main_sub_cmd_1_90)
	MOVWF	r0x04
	MOVLW	0x80
	MOVWF	r0x06
	MOVF	r0x06, W
	MOVWF	POSTDEC1
	MOVF	r0x05, W
	MOVWF	POSTDEC1
	MOVF	r0x04, W
	MOVWF	POSTDEC1
	CALL	_fifo_get
	MOVWF	r0x04
	MOVLW	0x03
	ADDWF	FSR1L, F
	MOVF	r0x04, W
	BZ	_00141_DS_
	BANKSEL	_main_sub_cmd_1_90
;	.line	326; meter_logger.c	fsk_tx_byte(sub_cmd);
	MOVF	_main_sub_cmd_1_90, W, B
	MOVWF	POSTDEC1
	CALL	_fsk_tx_byte
	MOVF	POSTINC1, F
;	.line	327; meter_logger.c	sleep_ms(FSK_TX_SLEEP);
	MOVLW	0x00
	MOVWF	POSTDEC1
	MOVLW	0x02
	MOVWF	POSTDEC1
	CALL	_sleep_ms
	MOVF	POSTINC1, F
	MOVF	POSTINC1, F
	BRA	_00139_DS_
_00141_DS_:
;	.line	329; meter_logger.c	fsk_tx_disable();
	CALL	_fsk_tx_disable
	BRA	_00144_DS_
_00143_DS_:
;	.line	333; meter_logger.c	DEBUG2_PIN = 1;
	BSF	_PORTBbits, 3
	nop
	nop
	
;	.line	338; meter_logger.c	DEBUG2_PIN = 0;
	BCF	_PORTBbits, 3
	nop
	nop
	
;	.line	343; meter_logger.c	DEBUG2_PIN = 1;
	BSF	_PORTBbits, 3
	nop
	nop
	
;	.line	348; meter_logger.c	DEBUG2_PIN = 0;
	BCF	_PORTBbits, 3
;	.line	350; meter_logger.c	sprintf(debug_buffer, "\n\rno reply from meter\n\r");
	MOVLW	UPPER(___str_12)
	MOVWF	r0x06
	MOVLW	HIGH(___str_12)
	MOVWF	r0x05
	MOVLW	LOW(___str_12)
	MOVWF	r0x04
	MOVLW	HIGH(_debug_buffer)
	MOVWF	r0x08
	MOVLW	LOW(_debug_buffer)
	MOVWF	r0x07
	MOVLW	0x80
	MOVWF	r0x09
	MOVF	r0x06, W
	MOVWF	POSTDEC1
	MOVF	r0x05, W
	MOVWF	POSTDEC1
	MOVF	r0x04, W
	MOVWF	POSTDEC1
	MOVF	r0x09, W
	MOVWF	POSTDEC1
	MOVF	r0x08, W
	MOVWF	POSTDEC1
	MOVF	r0x07, W
	MOVWF	POSTDEC1
	CALL	_sprintf
	MOVLW	0x06
	ADDWF	FSR1L, F
;	.line	351; meter_logger.c	usart_puts(debug_buffer);
	MOVLW	HIGH(_debug_buffer)
	MOVWF	r0x05
	MOVLW	LOW(_debug_buffer)
	MOVWF	r0x04
	MOVLW	0x80
	MOVWF	r0x06
	MOVF	r0x06, W
	MOVWF	POSTDEC1
	MOVF	r0x05, W
	MOVWF	POSTDEC1
	MOVF	r0x04, W
	MOVWF	POSTDEC1
	CALL	_usart_puts
	MOVLW	0x03
	ADDWF	FSR1L, F
;	.line	353; meter_logger.c	fsk_tx_enable();
	CALL	_fsk_tx_enable
;	.line	354; meter_logger.c	fsk_tx_byte(0x0d);
	MOVLW	0x0d
	MOVWF	POSTDEC1
	CALL	_fsk_tx_byte
	MOVF	POSTINC1, F
;	.line	355; meter_logger.c	sleep_ms(FSK_TX_SLEEP);
	MOVLW	0x00
	MOVWF	POSTDEC1
	MOVLW	0x02
	MOVWF	POSTDEC1
	CALL	_sleep_ms
	MOVF	POSTINC1, F
	MOVF	POSTINC1, F
;	.line	356; meter_logger.c	fsk_tx_disable();
	CALL	_fsk_tx_disable
_00144_DS_:
;	.line	359; meter_logger.c	usart_puts("\n\rwaiting for new command\n\r");
	MOVLW	UPPER(___str_7)
	MOVWF	r0x06
	MOVLW	HIGH(___str_7)
	MOVWF	r0x05
	MOVLW	LOW(___str_7)
	MOVWF	r0x04
	MOVF	r0x06, W
	MOVWF	POSTDEC1
	MOVF	r0x05, W
	MOVWF	POSTDEC1
	MOVF	r0x04, W
	MOVWF	POSTDEC1
	CALL	_usart_puts
	MOVLW	0x03
	ADDWF	FSR1L, F
;	.line	361; meter_logger.c	fsk_rx_enable();
	CALL	_fsk_rx_enable
;	.line	362; meter_logger.c	break;
	GOTO	_00168_DS_
_00145_DS_:
;	.line	364; meter_logger.c	fsk_rx_disable();
	CALL	_fsk_rx_disable
;	.line	366; meter_logger.c	usart_puts("\n\rkamstrup - send IEC61107 frame data\n\r");
	MOVLW	UPPER(___str_13)
	MOVWF	r0x06
	MOVLW	HIGH(___str_13)
	MOVWF	r0x05
	MOVLW	LOW(___str_13)
	MOVWF	r0x04
	MOVF	r0x06, W
	MOVWF	POSTDEC1
	MOVF	r0x05, W
	MOVWF	POSTDEC1
	MOVF	r0x04, W
	MOVWF	POSTDEC1
	CALL	_usart_puts
	MOVLW	0x03
	ADDWF	FSR1L, F
;	.line	370; meter_logger.c	fsk_rx_enable();
	CALL	_fsk_rx_enable
;	.line	371; meter_logger.c	last_fifo_size = 0;
	CLRF	r0x00
	CLRF	r0x01
;	.line	372; meter_logger.c	sleep_ms(400);							// sleep 400 ms to let some data come in
	MOVLW	0x01
	MOVWF	POSTDEC1
	MOVLW	0x90
	MOVWF	POSTDEC1
	CALL	_sleep_ms
	MOVF	POSTINC1, F
	MOVF	POSTINC1, F
;	.line	373; meter_logger.c	fifo_size = fifo_in_use();
	CALL	_fifo_in_use
	MOVWF	r0x02
	MOVFF	PRODL, r0x03
_00146_DS_:
;	.line	374; meter_logger.c	while (fifo_size > last_fifo_size) {	// and wait while we are still receiving data
	MOVF	r0x03, W
	SUBWF	r0x01, W
	BNZ	_00339_DS_
	MOVF	r0x02, W
	SUBWF	r0x00, W
_00339_DS_:
	BC	_00148_DS_
;	.line	375; meter_logger.c	last_fifo_size = fifo_size;
	MOVFF	r0x02, r0x00
	MOVFF	r0x03, r0x01
;	.line	376; meter_logger.c	sleep_ms(200);						// return data when no data for 100 ms
	MOVLW	0x00
	MOVWF	POSTDEC1
	MOVLW	0xc8
	MOVWF	POSTDEC1
	CALL	_sleep_ms
	MOVF	POSTINC1, F
	MOVF	POSTINC1, F
;	.line	377; meter_logger.c	fifo_size = fifo_in_use();
	CALL	_fifo_in_use
	MOVWF	r0x02
	MOVFF	PRODL, r0x03
	BRA	_00146_DS_
_00148_DS_:
;	.line	379; meter_logger.c	fsk_rx_disable();
	CALL	_fsk_rx_disable
;	.line	382; meter_logger.c	usart_puts("\n\rkamstrup - IEC61107 frame received:\n\r");
	MOVLW	UPPER(___str_14)
	MOVWF	r0x06
	MOVLW	HIGH(___str_14)
	MOVWF	r0x05
	MOVLW	LOW(___str_14)
	MOVWF	r0x04
	MOVF	r0x06, W
	MOVWF	POSTDEC1
	MOVF	r0x05, W
	MOVWF	POSTDEC1
	MOVF	r0x04, W
	MOVWF	POSTDEC1
	CALL	_usart_puts
	MOVLW	0x03
	ADDWF	FSR1L, F
;	.line	385; meter_logger.c	for (i = 0; i < fifo_in_use(); i++) {
	CLRF	r0x04
	CLRF	r0x05
_00183_DS_:
	CALL	_fifo_in_use
	MOVWF	r0x06
	MOVFF	PRODL, r0x07
	MOVF	r0x07, W
	SUBWF	r0x05, W
	BNZ	_00340_DS_
	MOVF	r0x06, W
	SUBWF	r0x04, W
_00340_DS_:
	BTFSC	STATUS, 0
	BRA	_00149_DS_
;	.line	387; meter_logger.c	fifo_get(&sub_cmd);
	MOVLW	HIGH(_main_sub_cmd_1_90)
	MOVWF	r0x07
	MOVLW	LOW(_main_sub_cmd_1_90)
	MOVWF	r0x06
	MOVLW	0x80
	MOVWF	r0x08
	MOVF	r0x08, W
	MOVWF	POSTDEC1
	MOVF	r0x07, W
	MOVWF	POSTDEC1
	MOVF	r0x06, W
	MOVWF	POSTDEC1
	CALL	_fifo_get
	MOVLW	0x03
	ADDWF	FSR1L, F
;	.line	389; meter_logger.c	sprintf(debug_buffer, "%d ", sub_cmd);
	MOVFF	_main_sub_cmd_1_90, r0x06
	CLRF	r0x07
	MOVLW	UPPER(___str_6)
	MOVWF	r0x0a
	MOVLW	HIGH(___str_6)
	MOVWF	r0x09
	MOVLW	LOW(___str_6)
	MOVWF	r0x08
	MOVLW	HIGH(_debug_buffer)
	MOVWF	r0x0c
	MOVLW	LOW(_debug_buffer)
	MOVWF	r0x0b
	MOVLW	0x80
	MOVWF	r0x0d
	MOVF	r0x07, W
	MOVWF	POSTDEC1
	MOVF	r0x06, W
	MOVWF	POSTDEC1
	MOVF	r0x0a, W
	MOVWF	POSTDEC1
	MOVF	r0x09, W
	MOVWF	POSTDEC1
	MOVF	r0x08, W
	MOVWF	POSTDEC1
	MOVF	r0x0d, W
	MOVWF	POSTDEC1
	MOVF	r0x0c, W
	MOVWF	POSTDEC1
	MOVF	r0x0b, W
	MOVWF	POSTDEC1
	CALL	_sprintf
	MOVLW	0x08
	ADDWF	FSR1L, F
;	.line	390; meter_logger.c	usart_puts(debug_buffer);
	MOVLW	HIGH(_debug_buffer)
	MOVWF	r0x07
	MOVLW	LOW(_debug_buffer)
	MOVWF	r0x06
	MOVLW	0x80
	MOVWF	r0x08
	MOVF	r0x08, W
	MOVWF	POSTDEC1
	MOVF	r0x07, W
	MOVWF	POSTDEC1
	MOVF	r0x06, W
	MOVWF	POSTDEC1
	CALL	_usart_puts
	MOVLW	0x03
	ADDWF	FSR1L, F
	BANKSEL	_main_sub_cmd_1_90
;	.line	392; meter_logger.c	fifo_put(sub_cmd);
	MOVF	_main_sub_cmd_1_90, W, B
	MOVWF	POSTDEC1
	CALL	_fifo_put
	MOVF	POSTINC1, F
;	.line	385; meter_logger.c	for (i = 0; i < fifo_in_use(); i++) {
	INFSNZ	r0x04, F
	INCF	r0x05, F
	BRA	_00183_DS_
_00149_DS_:
;	.line	395; meter_logger.c	rs232_7e1_tx_enable(TIMER0_RS232_300);
	MOVLW	0xe6
	MOVWF	POSTDEC1
	MOVLW	0x1b
	MOVWF	POSTDEC1
	CALL	_rs232_7e1_tx_enable
	MOVF	POSTINC1, F
	MOVF	POSTINC1, F
_00150_DS_:
;	.line	396; meter_logger.c	while (fifo_get(&sub_cmd)) {
	MOVLW	HIGH(_main_sub_cmd_1_90)
	MOVWF	r0x05
	MOVLW	LOW(_main_sub_cmd_1_90)
	MOVWF	r0x04
	MOVLW	0x80
	MOVWF	r0x06
	MOVF	r0x06, W
	MOVWF	POSTDEC1
	MOVF	r0x05, W
	MOVWF	POSTDEC1
	MOVF	r0x04, W
	MOVWF	POSTDEC1
	CALL	_fifo_get
	MOVWF	r0x04
	MOVLW	0x03
	ADDWF	FSR1L, F
	MOVF	r0x04, W
	BZ	_00152_DS_
	BANKSEL	_main_sub_cmd_1_90
;	.line	397; meter_logger.c	rs232_7e1_tx_byte(sub_cmd);
	MOVF	_main_sub_cmd_1_90, W, B
	MOVWF	POSTDEC1
	CALL	_rs232_7e1_tx_byte
	MOVF	POSTINC1, F
;	.line	398; meter_logger.c	sleep_ms(RS232_TX_SLEEP);
	MOVLW	0x00
	MOVWF	POSTDEC1
	MOVLW	0x0c
	MOVWF	POSTDEC1
	CALL	_sleep_ms
	MOVF	POSTINC1, F
	MOVF	POSTINC1, F
	BRA	_00150_DS_
_00152_DS_:
;	.line	400; meter_logger.c	rs232_7e1_tx_disable();
	CALL	_rs232_7e1_tx_disable
;	.line	406; meter_logger.c	rs232_7e1_rx_enable(TIMER0_RS232_300);
	MOVLW	0xe6
	MOVWF	POSTDEC1
	MOVLW	0x1b
	MOVWF	POSTDEC1
	CALL	_rs232_7e1_rx_enable
	MOVF	POSTINC1, F
	MOVF	POSTINC1, F
;	.line	407; meter_logger.c	last_fifo_size = 0;
	CLRF	r0x00
	CLRF	r0x01
;	.line	408; meter_logger.c	sleep_ms(1500);							// sleep 1500 ms to let some data come in
	MOVLW	0x05
	MOVWF	POSTDEC1
	MOVLW	0xdc
	MOVWF	POSTDEC1
	CALL	_sleep_ms
	MOVF	POSTINC1, F
	MOVF	POSTINC1, F
;	.line	409; meter_logger.c	fifo_size = fifo_in_use();
	CALL	_fifo_in_use
	MOVWF	r0x02
	MOVFF	PRODL, r0x03
_00153_DS_:
;	.line	411; meter_logger.c	while (fifo_size > last_fifo_size) {	// and wait while we are still receiving data
	MOVF	r0x03, W
	SUBWF	r0x01, W
	BNZ	_00341_DS_
	MOVF	r0x02, W
	SUBWF	r0x00, W
_00341_DS_:
	BC	_00155_DS_
;	.line	412; meter_logger.c	last_fifo_size = fifo_size;
	MOVFF	r0x02, r0x00
	MOVFF	r0x03, r0x01
;	.line	413; meter_logger.c	sleep_ms(200);						// return data when no data for 200 ms
	MOVLW	0x00
	MOVWF	POSTDEC1
	MOVLW	0xc8
	MOVWF	POSTDEC1
	CALL	_sleep_ms
	MOVF	POSTINC1, F
	MOVF	POSTINC1, F
;	.line	414; meter_logger.c	fifo_size = fifo_in_use();
	CALL	_fifo_in_use
	MOVWF	r0x02
	MOVFF	PRODL, r0x03
	BRA	_00153_DS_
_00155_DS_:
;	.line	417; meter_logger.c	rs232_7e1_rx_disable();
	CALL	_rs232_7e1_rx_disable
;	.line	421; meter_logger.c	usart_puts("\n\rkamstrup - IEC61107 reply received:\n\r");
	MOVLW	UPPER(___str_15)
	MOVWF	r0x02
	MOVLW	HIGH(___str_15)
	MOVWF	r0x01
	MOVLW	LOW(___str_15)
	MOVWF	r0x00
	MOVF	r0x02, W
	MOVWF	POSTDEC1
	MOVF	r0x01, W
	MOVWF	POSTDEC1
	MOVF	r0x00, W
	MOVWF	POSTDEC1
	CALL	_usart_puts
	MOVLW	0x03
	ADDWF	FSR1L, F
;	.line	424; meter_logger.c	for (i = 0; i < fifo_in_use(); i++) {
	CLRF	r0x00
	CLRF	r0x01
_00186_DS_:
	CALL	_fifo_in_use
	MOVWF	r0x02
	MOVFF	PRODL, r0x03
	MOVF	r0x03, W
	SUBWF	r0x01, W
	BNZ	_00342_DS_
	MOVF	r0x02, W
	SUBWF	r0x00, W
_00342_DS_:
	BTFSC	STATUS, 0
	BRA	_00156_DS_
;	.line	426; meter_logger.c	fifo_get(&sub_cmd);
	MOVLW	HIGH(_main_sub_cmd_1_90)
	MOVWF	r0x03
	MOVLW	LOW(_main_sub_cmd_1_90)
	MOVWF	r0x02
	MOVLW	0x80
	MOVWF	r0x04
	MOVF	r0x04, W
	MOVWF	POSTDEC1
	MOVF	r0x03, W
	MOVWF	POSTDEC1
	MOVF	r0x02, W
	MOVWF	POSTDEC1
	CALL	_fifo_get
	MOVLW	0x03
	ADDWF	FSR1L, F
;	.line	428; meter_logger.c	sprintf(debug_buffer, "%d ", sub_cmd);
	MOVFF	_main_sub_cmd_1_90, r0x02
	CLRF	r0x03
	MOVLW	UPPER(___str_6)
	MOVWF	r0x06
	MOVLW	HIGH(___str_6)
	MOVWF	r0x05
	MOVLW	LOW(___str_6)
	MOVWF	r0x04
	MOVLW	HIGH(_debug_buffer)
	MOVWF	r0x08
	MOVLW	LOW(_debug_buffer)
	MOVWF	r0x07
	MOVLW	0x80
	MOVWF	r0x09
	MOVF	r0x03, W
	MOVWF	POSTDEC1
	MOVF	r0x02, W
	MOVWF	POSTDEC1
	MOVF	r0x06, W
	MOVWF	POSTDEC1
	MOVF	r0x05, W
	MOVWF	POSTDEC1
	MOVF	r0x04, W
	MOVWF	POSTDEC1
	MOVF	r0x09, W
	MOVWF	POSTDEC1
	MOVF	r0x08, W
	MOVWF	POSTDEC1
	MOVF	r0x07, W
	MOVWF	POSTDEC1
	CALL	_sprintf
	MOVLW	0x08
	ADDWF	FSR1L, F
;	.line	429; meter_logger.c	usart_puts(debug_buffer);
	MOVLW	HIGH(_debug_buffer)
	MOVWF	r0x03
	MOVLW	LOW(_debug_buffer)
	MOVWF	r0x02
	MOVLW	0x80
	MOVWF	r0x04
	MOVF	r0x04, W
	MOVWF	POSTDEC1
	MOVF	r0x03, W
	MOVWF	POSTDEC1
	MOVF	r0x02, W
	MOVWF	POSTDEC1
	CALL	_usart_puts
	MOVLW	0x03
	ADDWF	FSR1L, F
	BANKSEL	_main_sub_cmd_1_90
;	.line	431; meter_logger.c	fifo_put(sub_cmd);
	MOVF	_main_sub_cmd_1_90, W, B
	MOVWF	POSTDEC1
	CALL	_fifo_put
	MOVF	POSTINC1, F
;	.line	424; meter_logger.c	for (i = 0; i < fifo_in_use(); i++) {
	INFSNZ	r0x00, F
	INCF	r0x01, F
	BRA	_00186_DS_
_00156_DS_:
;	.line	434; meter_logger.c	if (fifo_in_use()) {
	CALL	_fifo_in_use
	MOVWF	r0x00
	MOVFF	PRODL, r0x01
	MOVF	r0x00, W
	IORWF	r0x01, W
	BZ	_00161_DS_
;	.line	436; meter_logger.c	DEBUG2_PIN = 1;
	BSF	_PORTBbits, 3
	nop
	nop
	
;	.line	441; meter_logger.c	DEBUG2_PIN = 0;
	BCF	_PORTBbits, 3
;	.line	442; meter_logger.c	fsk_tx_enable();
	CALL	_fsk_tx_enable
_00157_DS_:
;	.line	443; meter_logger.c	while (fifo_get(&sub_cmd)) {
	MOVLW	HIGH(_main_sub_cmd_1_90)
	MOVWF	r0x01
	MOVLW	LOW(_main_sub_cmd_1_90)
	MOVWF	r0x00
	MOVLW	0x80
	MOVWF	r0x02
	MOVF	r0x02, W
	MOVWF	POSTDEC1
	MOVF	r0x01, W
	MOVWF	POSTDEC1
	MOVF	r0x00, W
	MOVWF	POSTDEC1
	CALL	_fifo_get
	MOVWF	r0x00
	MOVLW	0x03
	ADDWF	FSR1L, F
	MOVF	r0x00, W
	BZ	_00159_DS_
	BANKSEL	_main_sub_cmd_1_90
;	.line	444; meter_logger.c	fsk_tx_byte(sub_cmd);
	MOVF	_main_sub_cmd_1_90, W, B
	MOVWF	POSTDEC1
	CALL	_fsk_tx_byte
	MOVF	POSTINC1, F
;	.line	445; meter_logger.c	sleep_ms(FSK_TX_SLEEP);
	MOVLW	0x00
	MOVWF	POSTDEC1
	MOVLW	0x02
	MOVWF	POSTDEC1
	CALL	_sleep_ms
	MOVF	POSTINC1, F
	MOVF	POSTINC1, F
	BRA	_00157_DS_
_00159_DS_:
;	.line	447; meter_logger.c	fsk_tx_disable();
	CALL	_fsk_tx_disable
	BRA	_00162_DS_
_00161_DS_:
;	.line	451; meter_logger.c	DEBUG2_PIN = 1;
	BSF	_PORTBbits, 3
	nop
	nop
	
;	.line	456; meter_logger.c	DEBUG2_PIN = 0;
	BCF	_PORTBbits, 3
	nop
	nop
	
;	.line	461; meter_logger.c	DEBUG2_PIN = 1;
	BSF	_PORTBbits, 3
	nop
	nop
	
;	.line	466; meter_logger.c	DEBUG2_PIN = 0;
	BCF	_PORTBbits, 3
;	.line	468; meter_logger.c	sprintf(debug_buffer, "\n\rno reply from meter\n\r");
	MOVLW	UPPER(___str_12)
	MOVWF	r0x02
	MOVLW	HIGH(___str_12)
	MOVWF	r0x01
	MOVLW	LOW(___str_12)
	MOVWF	r0x00
	MOVLW	HIGH(_debug_buffer)
	MOVWF	r0x04
	MOVLW	LOW(_debug_buffer)
	MOVWF	r0x03
	MOVLW	0x80
	MOVWF	r0x05
	MOVF	r0x02, W
	MOVWF	POSTDEC1
	MOVF	r0x01, W
	MOVWF	POSTDEC1
	MOVF	r0x00, W
	MOVWF	POSTDEC1
	MOVF	r0x05, W
	MOVWF	POSTDEC1
	MOVF	r0x04, W
	MOVWF	POSTDEC1
	MOVF	r0x03, W
	MOVWF	POSTDEC1
	CALL	_sprintf
	MOVLW	0x06
	ADDWF	FSR1L, F
;	.line	469; meter_logger.c	usart_puts(debug_buffer);
	MOVLW	HIGH(_debug_buffer)
	MOVWF	r0x01
	MOVLW	LOW(_debug_buffer)
	MOVWF	r0x00
	MOVLW	0x80
	MOVWF	r0x02
	MOVF	r0x02, W
	MOVWF	POSTDEC1
	MOVF	r0x01, W
	MOVWF	POSTDEC1
	MOVF	r0x00, W
	MOVWF	POSTDEC1
	CALL	_usart_puts
	MOVLW	0x03
	ADDWF	FSR1L, F
;	.line	471; meter_logger.c	fsk_tx_enable();
	CALL	_fsk_tx_enable
;	.line	472; meter_logger.c	fsk_tx_byte(0x0d);
	MOVLW	0x0d
	MOVWF	POSTDEC1
	CALL	_fsk_tx_byte
	MOVF	POSTINC1, F
;	.line	473; meter_logger.c	sleep_ms(FSK_TX_SLEEP);
	MOVLW	0x00
	MOVWF	POSTDEC1
	MOVLW	0x02
	MOVWF	POSTDEC1
	CALL	_sleep_ms
	MOVF	POSTINC1, F
	MOVF	POSTINC1, F
;	.line	474; meter_logger.c	fsk_tx_disable();
	CALL	_fsk_tx_disable
_00162_DS_:
;	.line	477; meter_logger.c	usart_puts("\n\rwaiting for new command\n\r");
	MOVLW	UPPER(___str_7)
	MOVWF	r0x02
	MOVLW	HIGH(___str_7)
	MOVWF	r0x01
	MOVLW	LOW(___str_7)
	MOVWF	r0x00
	MOVF	r0x02, W
	MOVWF	POSTDEC1
	MOVF	r0x01, W
	MOVWF	POSTDEC1
	MOVF	r0x00, W
	MOVWF	POSTDEC1
	CALL	_usart_puts
	MOVLW	0x03
	ADDWF	FSR1L, F
;	.line	479; meter_logger.c	fsk_rx_enable();
	CALL	_fsk_rx_enable
;	.line	480; meter_logger.c	break;
	GOTO	_00168_DS_
_00163_DS_:
;	.line	482; meter_logger.c	fsk_rx_disable();
	CALL	_fsk_rx_disable
;	.line	483; meter_logger.c	get_battery_level();
	CALL	_get_battery_level
;	.line	484; meter_logger.c	fsk_rx_enable();
	CALL	_fsk_rx_enable
;	.line	486; meter_logger.c	}
	GOTO	_00168_DS_
	RETURN	

; ; Starting pCode block
S_meter_logger___debug2	code
__debug2:
;	.line	4664; meter_logger.c	void _debug2() {
	MOVFF	FSR2L, POSTDEC1
	MOVFF	FSR1L, FSR2L
;	.line	4665; meter_logger.c	DEBUG2_PIN = 0x1;
	BSF	_PORTBbits, 3
	nop
	nop
	nop
	nop
	nop
	nop
	nop
	nop
	nop
	nop
	nop
	nop
	nop
	nop
	nop
	nop
	nop
	nop
	nop
	nop
	nop
	nop
	nop
	nop
	nop
	nop
	nop
	nop
	nop
	nop
	nop
	nop
	nop
	nop
	nop
	nop
	nop
	nop
	nop
	nop
	nop
	nop
	nop
	nop
	nop
	
;	.line	4713; meter_logger.c	DEBUG2_PIN = 0x0;
	BCF	_PORTBbits, 3
	nop
	nop
	nop
	nop
	nop
	nop
	nop
	nop
	nop
	nop
	nop
	nop
	nop
	nop
	nop
	nop
	nop
	nop
	nop
	nop
	nop
	nop
	nop
	nop
	nop
	nop
	nop
	nop
	nop
	nop
	nop
	nop
	nop
	nop
	nop
	nop
	nop
	nop
	nop
	nop
	nop
	nop
	nop
	nop
	nop
	
	MOVFF	PREINC1, FSR2L
	RETURN	

; ; Starting pCode block
S_meter_logger___debug	code
__debug:
;	.line	4564; meter_logger.c	void _debug() {
	MOVFF	FSR2L, POSTDEC1
	MOVFF	FSR1L, FSR2L
;	.line	4565; meter_logger.c	DEBUG_PIN = 0x1;
	BSF	_PORTBbits, 2
	nop
	nop
	nop
	nop
	nop
	nop
	nop
	nop
	nop
	nop
	nop
	nop
	nop
	nop
	nop
	nop
	nop
	nop
	nop
	nop
	nop
	nop
	nop
	nop
	nop
	nop
	nop
	nop
	nop
	nop
	nop
	nop
	nop
	nop
	nop
	nop
	nop
	nop
	nop
	nop
	nop
	nop
	nop
	nop
	nop
	
;	.line	4613; meter_logger.c	DEBUG_PIN = 0x0;
	BCF	_PORTBbits, 2
	nop
	nop
	nop
	nop
	nop
	nop
	nop
	nop
	nop
	nop
	nop
	nop
	nop
	nop
	nop
	nop
	nop
	nop
	nop
	nop
	nop
	nop
	nop
	nop
	nop
	nop
	nop
	nop
	nop
	nop
	nop
	nop
	nop
	nop
	nop
	nop
	nop
	nop
	nop
	nop
	nop
	nop
	nop
	nop
	nop
	
	MOVFF	PREINC1, FSR2L
	RETURN	

; ; Starting pCode block
S_meter_logger__flash_led	code
_flash_led:
;	.line	4559; meter_logger.c	void flash_led(unsigned char ms) {
	MOVFF	FSR2L, POSTDEC1
	MOVFF	FSR1L, FSR2L
	MOVFF	r0x00, POSTDEC1
	MOVLW	0x02
	MOVFF	PLUSW2, r0x00
;	.line	4560; meter_logger.c	led_flash.timer = ms;
	MOVF	r0x00, W
	BANKSEL	(_led_flash + 1)
	MOVWF	(_led_flash + 1), B
; removed redundant BANKSEL
;	.line	4561; meter_logger.c	led_flash.state = LED_FLASH_RUN;
	CLRF	_led_flash, B
	MOVFF	PREINC1, r0x00
	MOVFF	PREINC1, FSR2L
	RETURN	

; ; Starting pCode block
S_meter_logger__get_battery_level	code
_get_battery_level:
;	.line	4528; meter_logger.c	unsigned int get_battery_level() {
	MOVFF	FSR2L, POSTDEC1
	MOVFF	FSR1L, FSR2L
	MOVFF	r0x00, POSTDEC1
	MOVFF	r0x01, POSTDEC1
	MOVFF	r0x02, POSTDEC1
	MOVFF	r0x03, POSTDEC1
	MOVFF	r0x04, POSTDEC1
	MOVFF	r0x05, POSTDEC1
	MOVFF	r0x06, POSTDEC1
	MOVFF	r0x07, POSTDEC1
;	.line	4532; meter_logger.c	adc_open(ADC_CHN_4 , ADC_FOSC_64, ADC_CFG_5A, ADC_FRM_RJUST | ADC_INT_OFF | ADC_VCFG_VDD_VSS);
	MOVLW	0x80
	MOVWF	POSTDEC1
	MOVLW	0x0a
	MOVWF	POSTDEC1
	MOVLW	0x06
	MOVWF	POSTDEC1
	MOVLW	0x04
	MOVWF	POSTDEC1
	CALL	_adc_open
	MOVLW	0x04
	ADDWF	FSR1L, F
;	.line	4534; meter_logger.c	adc_setchannel(ADC_CHN_4);
	MOVLW	0x04
	MOVWF	POSTDEC1
	CALL	_adc_setchannel
	MOVF	POSTINC1, F
;	.line	4535; meter_logger.c	adc_conv();
	CALL	_adc_conv
_01167_DS_:
;	.line	4536; meter_logger.c	while(adc_busy()) {
	CALL	_adc_busy
	MOVWF	r0x00
	MOVF	r0x00, W
	BNZ	_01167_DS_
;	.line	4540; meter_logger.c	dev_id = get_dev_id();
	CALL	_get_dev_id
	MOVWF	r0x00
	MOVFF	PRODL, r0x01
;	.line	4541; meter_logger.c	if (dev_id == 0x1240) {
	MOVF	r0x00, W
	XORLW	0x40
	BNZ	_01190_DS_
	MOVF	r0x01, W
	XORLW	0x12
	BZ	_01191_DS_
_01190_DS_:
	BRA	_01174_DS_
_01191_DS_:
;	.line	4543; meter_logger.c	v_level = (unsigned long)1000 * (unsigned long)adc_read() * (unsigned long)833/(unsigned long)93600;
	CALL	_adc_read
	MOVWF	r0x02
	MOVFF	PRODL, r0x03
	CLRF	WREG
	BTFSC	r0x03, 7
	MOVLW	0xff
	MOVWF	r0x04
	MOVWF	r0x05
	MOVF	r0x05, W
	MOVWF	POSTDEC1
	MOVF	r0x04, W
	MOVWF	POSTDEC1
	MOVF	r0x03, W
	MOVWF	POSTDEC1
	MOVF	r0x02, W
	MOVWF	POSTDEC1
	MOVLW	0x00
	MOVWF	POSTDEC1
	MOVLW	0x0c
	MOVWF	POSTDEC1
	MOVLW	0xb5
	MOVWF	POSTDEC1
	MOVLW	0xe8
	MOVWF	POSTDEC1
	CALL	__mullong
	MOVWF	r0x02
	MOVFF	PRODL, r0x03
	MOVFF	PRODH, r0x04
	MOVFF	FSR0L, r0x05
	MOVLW	0x08
	ADDWF	FSR1L, F
	MOVLW	0x00
	MOVWF	POSTDEC1
	MOVLW	0x01
	MOVWF	POSTDEC1
	MOVLW	0x6d
	MOVWF	POSTDEC1
	MOVLW	0xa0
	MOVWF	POSTDEC1
	MOVF	r0x05, W
	MOVWF	POSTDEC1
	MOVF	r0x04, W
	MOVWF	POSTDEC1
	MOVF	r0x03, W
	MOVWF	POSTDEC1
	MOVF	r0x02, W
	MOVWF	POSTDEC1
	CALL	__divulong
	MOVWF	r0x02
	MOVFF	PRODL, r0x03
	MOVFF	PRODH, r0x04
	MOVFF	FSR0L, r0x05
	MOVLW	0x08
	ADDWF	FSR1L, F
	BRA	_01175_DS_
_01174_DS_:
;	.line	4545; meter_logger.c	else if (dev_id == 0x2a40) {
	MOVF	r0x00, W
	XORLW	0x40
	BNZ	_01192_DS_
	MOVF	r0x01, W
	XORLW	0x2a
	BZ	_01193_DS_
_01192_DS_:
	BRA	_01171_DS_
_01193_DS_:
;	.line	4547; meter_logger.c	v_level = (unsigned long)1000 * (unsigned long)(adc_read() >> 2) * (unsigned long)833/(unsigned long)93600;
	CALL	_adc_read
	MOVWF	r0x00
	MOVFF	PRODL, r0x01
	RLCF	r0x01, W
	RRCF	r0x01, F
	RRCF	r0x00, F
	RLCF	r0x01, W
	RRCF	r0x01, F
	RRCF	r0x00, F
	CLRF	WREG
	BTFSC	r0x01, 7
	MOVLW	0xff
	MOVWF	r0x04
	MOVWF	r0x05
	MOVF	r0x05, W
	MOVWF	POSTDEC1
	MOVF	r0x04, W
	MOVWF	POSTDEC1
	MOVF	r0x01, W
	MOVWF	POSTDEC1
	MOVF	r0x00, W
	MOVWF	POSTDEC1
	MOVLW	0x00
	MOVWF	POSTDEC1
	MOVLW	0x0c
	MOVWF	POSTDEC1
	MOVLW	0xb5
	MOVWF	POSTDEC1
	MOVLW	0xe8
	MOVWF	POSTDEC1
	CALL	__mullong
	MOVWF	r0x00
	MOVFF	PRODL, r0x01
	MOVFF	PRODH, r0x04
	MOVFF	FSR0L, r0x05
	MOVLW	0x08
	ADDWF	FSR1L, F
	MOVLW	0x00
	MOVWF	POSTDEC1
	MOVLW	0x01
	MOVWF	POSTDEC1
	MOVLW	0x6d
	MOVWF	POSTDEC1
	MOVLW	0xa0
	MOVWF	POSTDEC1
	MOVF	r0x05, W
	MOVWF	POSTDEC1
	MOVF	r0x04, W
	MOVWF	POSTDEC1
	MOVF	r0x01, W
	MOVWF	POSTDEC1
	MOVF	r0x00, W
	MOVWF	POSTDEC1
	CALL	__divulong
	MOVWF	r0x00
	MOVFF	PRODL, r0x01
	MOVFF	PRODH, r0x04
	MOVFF	FSR0L, r0x05
	MOVLW	0x08
	ADDWF	FSR1L, F
	MOVF	r0x00, W
	MOVWF	r0x02
	MOVF	r0x01, W
	MOVWF	r0x03
	BRA	_01175_DS_
_01171_DS_:
;	.line	4550; meter_logger.c	v_level = 0;
	CLRF	r0x02
	CLRF	r0x03
_01175_DS_:
;	.line	4552; meter_logger.c	sprintf(debug_buffer, "Battery: %dmV\n\r", v_level);
	MOVLW	UPPER(___str_16)
	MOVWF	r0x04
	MOVLW	HIGH(___str_16)
	MOVWF	r0x01
	MOVLW	LOW(___str_16)
	MOVWF	r0x00
	MOVLW	HIGH(_debug_buffer)
	MOVWF	r0x06
	MOVLW	LOW(_debug_buffer)
	MOVWF	r0x05
	MOVLW	0x80
	MOVWF	r0x07
	MOVF	r0x03, W
	MOVWF	POSTDEC1
	MOVF	r0x02, W
	MOVWF	POSTDEC1
	MOVF	r0x04, W
	MOVWF	POSTDEC1
	MOVF	r0x01, W
	MOVWF	POSTDEC1
	MOVF	r0x00, W
	MOVWF	POSTDEC1
	MOVF	r0x07, W
	MOVWF	POSTDEC1
	MOVF	r0x06, W
	MOVWF	POSTDEC1
	MOVF	r0x05, W
	MOVWF	POSTDEC1
	CALL	_sprintf
	MOVLW	0x08
	ADDWF	FSR1L, F
;	.line	4553; meter_logger.c	usart_puts(debug_buffer);	
	MOVLW	HIGH(_debug_buffer)
	MOVWF	r0x01
	MOVLW	LOW(_debug_buffer)
	MOVWF	r0x00
	MOVLW	0x80
	MOVWF	r0x04
	MOVF	r0x04, W
	MOVWF	POSTDEC1
	MOVF	r0x01, W
	MOVWF	POSTDEC1
	MOVF	r0x00, W
	MOVWF	POSTDEC1
	CALL	_usart_puts
	MOVLW	0x03
	ADDWF	FSR1L, F
;	.line	4555; meter_logger.c	adc_close();
	CALL	_adc_close
;	.line	4556; meter_logger.c	return v_level;
	MOVFF	r0x03, PRODL
	MOVF	r0x02, W
	MOVFF	PREINC1, r0x07
	MOVFF	PREINC1, r0x06
	MOVFF	PREINC1, r0x05
	MOVFF	PREINC1, r0x04
	MOVFF	PREINC1, r0x03
	MOVFF	PREINC1, r0x02
	MOVFF	PREINC1, r0x01
	MOVFF	PREINC1, r0x00
	MOVFF	PREINC1, FSR2L
	RETURN	

; ; Starting pCode block
S_meter_logger__fifo_snoop	code
_fifo_snoop:
;	.line	4505; meter_logger.c	unsigned char fifo_snoop(unsigned char *c, unsigned int pos) {
	MOVFF	FSR2L, POSTDEC1
	MOVFF	FSR1L, FSR2L
	MOVFF	r0x00, POSTDEC1
	MOVFF	r0x01, POSTDEC1
	MOVFF	r0x02, POSTDEC1
	MOVFF	r0x03, POSTDEC1
	MOVFF	r0x04, POSTDEC1
	MOVFF	r0x05, POSTDEC1
	MOVFF	r0x06, POSTDEC1
	MOVLW	0x02
	MOVFF	PLUSW2, r0x00
	MOVLW	0x03
	MOVFF	PLUSW2, r0x01
	MOVLW	0x04
	MOVFF	PLUSW2, r0x02
	MOVLW	0x05
	MOVFF	PLUSW2, r0x03
	MOVLW	0x06
	MOVFF	PLUSW2, r0x04
;	.line	4506; meter_logger.c	if (fifo_in_use() > (pos)) {
	CALL	_fifo_in_use
	MOVWF	r0x05
	MOVFF	PRODL, r0x06
	MOVF	r0x06, W
	SUBWF	r0x04, W
	BNZ	_01160_DS_
	MOVF	r0x05, W
	SUBWF	r0x03, W
_01160_DS_:
	BTFSC	STATUS, 0
	BRA	_01150_DS_
	BANKSEL	(_fifo_tail + 1)
;	.line	4507; meter_logger.c	switch (fifo_tail/QUEUE_SIZE) {
	MOVF	(_fifo_tail + 1), W, B
	MOVWF	r0x05
	CLRF	r0x06
	MOVLW	0x00
	SUBWF	r0x06, W
	BNZ	_01161_DS_
	MOVLW	0x04
	SUBWF	r0x05, W
_01161_DS_:
	BTFSC	STATUS, 0
	BRA	_01148_DS_
	CLRF	PCLATH
	CLRF	PCLATU
	RLCF	r0x05, W
	RLCF	PCLATH, F
	RLCF	WREG, W
	RLCF	PCLATH, F
	ANDLW	0xfc
	ADDLW	LOW(_01162_DS_)
	MOVWF	POSTDEC1
	MOVLW	HIGH(_01162_DS_)
	ADDWFC	PCLATH, F
	MOVLW	UPPER(_01162_DS_)
	ADDWFC	PCLATU, F
	MOVF	PREINC1, W
	MOVWF	PCL
_01162_DS_:
	GOTO	_01144_DS_
	GOTO	_01145_DS_
	GOTO	_01146_DS_
	GOTO	_01147_DS_
_01144_DS_:
;	.line	4509; meter_logger.c	*c = fifo_buffer_0[(fifo_tail + pos) % QUEUE_SIZE];
	MOVF	r0x03, W
	BANKSEL	_fifo_tail
	ADDWF	_fifo_tail, W, B
	MOVWF	r0x05
	MOVF	r0x04, W
; removed redundant BANKSEL
	ADDWFC	(_fifo_tail + 1), W, B
	MOVWF	r0x06
	CLRF	r0x06
	MOVLW	LOW(_fifo_buffer_0)
	ADDWF	r0x05, F
	MOVLW	HIGH(_fifo_buffer_0)
	ADDWFC	r0x06, F
	MOVFF	r0x05, FSR0L
	MOVFF	r0x06, FSR0H
	MOVFF	INDF0, r0x05
	MOVFF	r0x05, POSTDEC1
	MOVFF	r0x00, FSR0L
	MOVFF	r0x01, PRODL
	MOVF	r0x02, W
	CALL	__gptrput1
;	.line	4510; meter_logger.c	break;
	BRA	_01148_DS_
_01145_DS_:
;	.line	4512; meter_logger.c	*c = fifo_buffer_1[(fifo_tail + pos) % QUEUE_SIZE];
	MOVF	r0x03, W
	BANKSEL	_fifo_tail
	ADDWF	_fifo_tail, W, B
	MOVWF	r0x05
	MOVF	r0x04, W
; removed redundant BANKSEL
	ADDWFC	(_fifo_tail + 1), W, B
	MOVWF	r0x06
	CLRF	r0x06
	MOVLW	LOW(_fifo_buffer_1)
	ADDWF	r0x05, F
	MOVLW	HIGH(_fifo_buffer_1)
	ADDWFC	r0x06, F
	MOVFF	r0x05, FSR0L
	MOVFF	r0x06, FSR0H
	MOVFF	INDF0, r0x05
	MOVFF	r0x05, POSTDEC1
	MOVFF	r0x00, FSR0L
	MOVFF	r0x01, PRODL
	MOVF	r0x02, W
	CALL	__gptrput1
;	.line	4513; meter_logger.c	break;
	BRA	_01148_DS_
_01146_DS_:
;	.line	4515; meter_logger.c	*c = fifo_buffer_2[(fifo_tail + pos) % QUEUE_SIZE];
	MOVF	r0x03, W
	BANKSEL	_fifo_tail
	ADDWF	_fifo_tail, W, B
	MOVWF	r0x05
	MOVF	r0x04, W
; removed redundant BANKSEL
	ADDWFC	(_fifo_tail + 1), W, B
	MOVWF	r0x06
	CLRF	r0x06
	MOVLW	LOW(_fifo_buffer_2)
	ADDWF	r0x05, F
	MOVLW	HIGH(_fifo_buffer_2)
	ADDWFC	r0x06, F
	MOVFF	r0x05, FSR0L
	MOVFF	r0x06, FSR0H
	MOVFF	INDF0, r0x05
	MOVFF	r0x05, POSTDEC1
	MOVFF	r0x00, FSR0L
	MOVFF	r0x01, PRODL
	MOVF	r0x02, W
	CALL	__gptrput1
;	.line	4516; meter_logger.c	break;
	BRA	_01148_DS_
_01147_DS_:
	BANKSEL	_fifo_tail
;	.line	4518; meter_logger.c	*c = fifo_buffer_3[(fifo_tail + pos) % QUEUE_SIZE];
	MOVF	_fifo_tail, W, B
	ADDWF	r0x03, F
; removed redundant BANKSEL
	MOVF	(_fifo_tail + 1), W, B
	ADDWFC	r0x04, F
	CLRF	r0x04
	MOVLW	LOW(_fifo_buffer_3)
	ADDWF	r0x03, F
	MOVLW	HIGH(_fifo_buffer_3)
	ADDWFC	r0x04, F
	MOVFF	r0x03, FSR0L
	MOVFF	r0x04, FSR0H
	MOVFF	INDF0, r0x03
	MOVFF	r0x03, POSTDEC1
	MOVFF	r0x00, FSR0L
	MOVFF	r0x01, PRODL
	MOVF	r0x02, W
	CALL	__gptrput1
_01148_DS_:
;	.line	4521; meter_logger.c	return 1;
	MOVLW	0x01
	BRA	_01152_DS_
_01150_DS_:
;	.line	4524; meter_logger.c	return 0;
	CLRF	WREG
_01152_DS_:
	MOVFF	PREINC1, r0x06
	MOVFF	PREINC1, r0x05
	MOVFF	PREINC1, r0x04
	MOVFF	PREINC1, r0x03
	MOVFF	PREINC1, r0x02
	MOVFF	PREINC1, r0x01
	MOVFF	PREINC1, r0x00
	MOVFF	PREINC1, FSR2L
	RETURN	

; ; Starting pCode block
S_meter_logger__fifo_get	code
_fifo_get:
;	.line	4477; meter_logger.c	unsigned char fifo_get(unsigned char *c) {
	MOVFF	FSR2L, POSTDEC1
	MOVFF	FSR1L, FSR2L
	MOVFF	r0x00, POSTDEC1
	MOVFF	r0x01, POSTDEC1
	MOVFF	r0x02, POSTDEC1
	MOVFF	r0x03, POSTDEC1
	MOVFF	r0x04, POSTDEC1
	MOVLW	0x02
	MOVFF	PLUSW2, r0x00
	MOVLW	0x03
	MOVFF	PLUSW2, r0x01
	MOVLW	0x04
	MOVFF	PLUSW2, r0x02
;	.line	4478; meter_logger.c	if (fifo_in_use() != 0) {
	CALL	_fifo_in_use
	MOVWF	r0x03
	MOVFF	PRODL, r0x04
	MOVF	r0x03, W
	IORWF	r0x04, W
	BTFSC	STATUS, 2
	BRA	_01119_DS_
	BANKSEL	(_fifo_tail + 1)
;	.line	4479; meter_logger.c	switch (fifo_tail/QUEUE_SIZE) {
	MOVF	(_fifo_tail + 1), W, B
	MOVWF	r0x03
	CLRF	r0x04
	MOVLW	0x00
	SUBWF	r0x04, W
	BNZ	_01132_DS_
	MOVLW	0x04
	SUBWF	r0x03, W
_01132_DS_:
	BTFSC	STATUS, 0
	BRA	_01115_DS_
	CLRF	PCLATH
	CLRF	PCLATU
	RLCF	r0x03, W
	RLCF	PCLATH, F
	RLCF	WREG, W
	RLCF	PCLATH, F
	ANDLW	0xfc
	ADDLW	LOW(_01133_DS_)
	MOVWF	POSTDEC1
	MOVLW	HIGH(_01133_DS_)
	ADDWFC	PCLATH, F
	MOVLW	UPPER(_01133_DS_)
	ADDWFC	PCLATU, F
	MOVF	PREINC1, W
	MOVWF	PCL
_01133_DS_:
	GOTO	_01111_DS_
	GOTO	_01112_DS_
	GOTO	_01113_DS_
	GOTO	_01114_DS_
_01111_DS_:
	BANKSEL	_fifo_tail
;	.line	4481; meter_logger.c	*c = fifo_buffer_0[fifo_tail % QUEUE_SIZE];
	MOVF	_fifo_tail, W, B
	MOVWF	r0x03
	CLRF	r0x04
	MOVLW	LOW(_fifo_buffer_0)
	ADDWF	r0x03, F
	MOVLW	HIGH(_fifo_buffer_0)
	ADDWFC	r0x04, F
	MOVFF	r0x03, FSR0L
	MOVFF	r0x04, FSR0H
	MOVFF	INDF0, r0x03
	MOVFF	r0x03, POSTDEC1
	MOVFF	r0x00, FSR0L
	MOVFF	r0x01, PRODL
	MOVF	r0x02, W
	CALL	__gptrput1
;	.line	4482; meter_logger.c	break;
	BRA	_01115_DS_
_01112_DS_:
	BANKSEL	_fifo_tail
;	.line	4484; meter_logger.c	*c = fifo_buffer_1[fifo_tail % QUEUE_SIZE];
	MOVF	_fifo_tail, W, B
	MOVWF	r0x03
	CLRF	r0x04
	MOVLW	LOW(_fifo_buffer_1)
	ADDWF	r0x03, F
	MOVLW	HIGH(_fifo_buffer_1)
	ADDWFC	r0x04, F
	MOVFF	r0x03, FSR0L
	MOVFF	r0x04, FSR0H
	MOVFF	INDF0, r0x03
	MOVFF	r0x03, POSTDEC1
	MOVFF	r0x00, FSR0L
	MOVFF	r0x01, PRODL
	MOVF	r0x02, W
	CALL	__gptrput1
;	.line	4485; meter_logger.c	break;
	BRA	_01115_DS_
_01113_DS_:
	BANKSEL	_fifo_tail
;	.line	4487; meter_logger.c	*c = fifo_buffer_2[fifo_tail % QUEUE_SIZE];
	MOVF	_fifo_tail, W, B
	MOVWF	r0x03
	CLRF	r0x04
	MOVLW	LOW(_fifo_buffer_2)
	ADDWF	r0x03, F
	MOVLW	HIGH(_fifo_buffer_2)
	ADDWFC	r0x04, F
	MOVFF	r0x03, FSR0L
	MOVFF	r0x04, FSR0H
	MOVFF	INDF0, r0x03
	MOVFF	r0x03, POSTDEC1
	MOVFF	r0x00, FSR0L
	MOVFF	r0x01, PRODL
	MOVF	r0x02, W
	CALL	__gptrput1
;	.line	4488; meter_logger.c	break;
	BRA	_01115_DS_
_01114_DS_:
	BANKSEL	_fifo_tail
;	.line	4490; meter_logger.c	*c = fifo_buffer_3[fifo_tail % QUEUE_SIZE];
	MOVF	_fifo_tail, W, B
	MOVWF	r0x03
	CLRF	r0x04
	MOVLW	LOW(_fifo_buffer_3)
	ADDWF	r0x03, F
	MOVLW	HIGH(_fifo_buffer_3)
	ADDWFC	r0x04, F
	MOVFF	r0x03, FSR0L
	MOVFF	r0x04, FSR0H
	MOVFF	INDF0, r0x03
	MOVFF	r0x03, POSTDEC1
	MOVFF	r0x00, FSR0L
	MOVFF	r0x01, PRODL
	MOVF	r0x02, W
	CALL	__gptrput1
_01115_DS_:
	BANKSEL	_fifo_tail
;	.line	4493; meter_logger.c	fifo_tail++;
	INCFSZ	_fifo_tail, F, B
	BRA	_11208_DS_
; removed redundant BANKSEL
	INCF	(_fifo_tail + 1), F, B
_11208_DS_:
	BANKSEL	_fifo_tail
;	.line	4495; meter_logger.c	if (fifo_tail == QUEUE_SIZE_COMBINED) {
	MOVF	_fifo_tail, W, B
	BNZ	_01138_DS_
; removed redundant BANKSEL
	MOVF	(_fifo_tail + 1), W, B
	XORLW	0x04
	BZ	_01139_DS_
_01138_DS_:
	BRA	_01117_DS_
_01139_DS_:
	BANKSEL	_fifo_tail
;	.line	4496; meter_logger.c	fifo_tail = 0;
	CLRF	_fifo_tail, B
; removed redundant BANKSEL
	CLRF	(_fifo_tail + 1), B
_01117_DS_:
;	.line	4498; meter_logger.c	return 1;
	MOVLW	0x01
	BRA	_01121_DS_
_01119_DS_:
;	.line	4501; meter_logger.c	return 0;
	CLRF	WREG
_01121_DS_:
	MOVFF	PREINC1, r0x04
	MOVFF	PREINC1, r0x03
	MOVFF	PREINC1, r0x02
	MOVFF	PREINC1, r0x01
	MOVFF	PREINC1, r0x00
	MOVFF	PREINC1, FSR2L
	RETURN	

; ; Starting pCode block
S_meter_logger__fifo_put	code
_fifo_put:
;	.line	4449; meter_logger.c	unsigned char fifo_put(unsigned char c) {
	MOVFF	FSR2L, POSTDEC1
	MOVFF	FSR1L, FSR2L
	MOVFF	r0x00, POSTDEC1
	MOVFF	r0x01, POSTDEC1
	MOVFF	r0x02, POSTDEC1
	MOVLW	0x02
	MOVFF	PLUSW2, r0x00
;	.line	4450; meter_logger.c	if (fifo_in_use() != QUEUE_SIZE_COMBINED) {
	CALL	_fifo_in_use
	MOVWF	r0x01
	MOVFF	PRODL, r0x02
	MOVF	r0x01, W
	BNZ	_01098_DS_
	MOVF	r0x02, W
	XORLW	0x04
	BNZ	_01098_DS_
	BRA	_01084_DS_
_01098_DS_:
	BANKSEL	(_fifo_head + 1)
;	.line	4451; meter_logger.c	switch (fifo_head/QUEUE_SIZE) {
	MOVF	(_fifo_head + 1), W, B
	MOVWF	r0x01
	CLRF	r0x02
	MOVLW	0x00
	SUBWF	r0x02, W
	BNZ	_01099_DS_
	MOVLW	0x04
	SUBWF	r0x01, W
_01099_DS_:
	BTFSC	STATUS, 0
	BRA	_01080_DS_
	CLRF	PCLATH
	CLRF	PCLATU
	RLCF	r0x01, W
	RLCF	PCLATH, F
	RLCF	WREG, W
	RLCF	PCLATH, F
	ANDLW	0xfc
	ADDLW	LOW(_01100_DS_)
	MOVWF	POSTDEC1
	MOVLW	HIGH(_01100_DS_)
	ADDWFC	PCLATH, F
	MOVLW	UPPER(_01100_DS_)
	ADDWFC	PCLATU, F
	MOVF	PREINC1, W
	MOVWF	PCL
_01100_DS_:
	GOTO	_01076_DS_
	GOTO	_01077_DS_
	GOTO	_01078_DS_
	GOTO	_01079_DS_
_01076_DS_:
	BANKSEL	_fifo_head
;	.line	4453; meter_logger.c	fifo_buffer_0[fifo_head % QUEUE_SIZE] = c;
	MOVF	_fifo_head, W, B
	MOVWF	r0x01
	CLRF	r0x02
	MOVLW	LOW(_fifo_buffer_0)
	ADDWF	r0x01, F
	MOVLW	HIGH(_fifo_buffer_0)
	ADDWFC	r0x02, F
	MOVFF	r0x01, FSR0L
	MOVFF	r0x02, FSR0H
	MOVFF	r0x00, INDF0
;	.line	4454; meter_logger.c	break;
	BRA	_01080_DS_
_01077_DS_:
	BANKSEL	_fifo_head
;	.line	4456; meter_logger.c	fifo_buffer_1[fifo_head % QUEUE_SIZE] = c;
	MOVF	_fifo_head, W, B
	MOVWF	r0x01
	CLRF	r0x02
	MOVLW	LOW(_fifo_buffer_1)
	ADDWF	r0x01, F
	MOVLW	HIGH(_fifo_buffer_1)
	ADDWFC	r0x02, F
	MOVFF	r0x01, FSR0L
	MOVFF	r0x02, FSR0H
	MOVFF	r0x00, INDF0
;	.line	4457; meter_logger.c	break;
	BRA	_01080_DS_
_01078_DS_:
	BANKSEL	_fifo_head
;	.line	4459; meter_logger.c	fifo_buffer_2[fifo_head % QUEUE_SIZE] = c;
	MOVF	_fifo_head, W, B
	MOVWF	r0x01
	CLRF	r0x02
	MOVLW	LOW(_fifo_buffer_2)
	ADDWF	r0x01, F
	MOVLW	HIGH(_fifo_buffer_2)
	ADDWFC	r0x02, F
	MOVFF	r0x01, FSR0L
	MOVFF	r0x02, FSR0H
	MOVFF	r0x00, INDF0
;	.line	4460; meter_logger.c	break;
	BRA	_01080_DS_
_01079_DS_:
	BANKSEL	_fifo_head
;	.line	4462; meter_logger.c	fifo_buffer_3[fifo_head % QUEUE_SIZE] = c;
	MOVF	_fifo_head, W, B
	MOVWF	r0x01
	CLRF	r0x02
	MOVLW	LOW(_fifo_buffer_3)
	ADDWF	r0x01, F
	MOVLW	HIGH(_fifo_buffer_3)
	ADDWFC	r0x02, F
	MOVFF	r0x01, FSR0L
	MOVFF	r0x02, FSR0H
	MOVFF	r0x00, INDF0
_01080_DS_:
	BANKSEL	_fifo_head
;	.line	4465; meter_logger.c	fifo_head++;
	INCFSZ	_fifo_head, F, B
	BRA	_21209_DS_
; removed redundant BANKSEL
	INCF	(_fifo_head + 1), F, B
_21209_DS_:
	BANKSEL	_fifo_head
;	.line	4467; meter_logger.c	if (fifo_head == QUEUE_SIZE_COMBINED) {
	MOVF	_fifo_head, W, B
	BNZ	_01105_DS_
; removed redundant BANKSEL
	MOVF	(_fifo_head + 1), W, B
	XORLW	0x04
	BZ	_01106_DS_
_01105_DS_:
	BRA	_01082_DS_
_01106_DS_:
	BANKSEL	_fifo_head
;	.line	4468; meter_logger.c	fifo_head = 0;
	CLRF	_fifo_head, B
; removed redundant BANKSEL
	CLRF	(_fifo_head + 1), B
_01082_DS_:
;	.line	4470; meter_logger.c	return 1;
	MOVLW	0x01
	BRA	_01086_DS_
_01084_DS_:
;	.line	4473; meter_logger.c	return 0;
	CLRF	WREG
_01086_DS_:
	MOVFF	PREINC1, r0x02
	MOVFF	PREINC1, r0x01
	MOVFF	PREINC1, r0x00
	MOVFF	PREINC1, FSR2L
	RETURN	

; ; Starting pCode block
S_meter_logger__fifo_in_use	code
_fifo_in_use:
;	.line	4445; meter_logger.c	unsigned int fifo_in_use() {
	MOVFF	FSR2L, POSTDEC1
	MOVFF	FSR1L, FSR2L
	MOVFF	r0x00, POSTDEC1
	MOVFF	r0x01, POSTDEC1
	BANKSEL	_fifo_tail
;	.line	4446; meter_logger.c	return fifo_head - fifo_tail;
	MOVF	_fifo_tail, W, B
	BANKSEL	_fifo_head
	SUBWF	_fifo_head, W, B
	MOVWF	r0x00
	BANKSEL	(_fifo_tail + 1)
	MOVF	(_fifo_tail + 1), W, B
	BANKSEL	(_fifo_head + 1)
	SUBWFB	(_fifo_head + 1), W, B
	MOVWF	r0x01
	MOVFF	r0x01, PRODL
	MOVF	r0x00, W
	MOVFF	PREINC1, r0x01
	MOVFF	PREINC1, r0x00
	MOVFF	PREINC1, FSR2L
	RETURN	

; ; Starting pCode block
S_meter_logger__fsk_tx_byte	code
_fsk_tx_byte:
;	.line	4437; meter_logger.c	void fsk_tx_byte(unsigned char c) {
	MOVFF	FSR2L, POSTDEC1
	MOVFF	FSR1L, FSR2L
	MOVFF	r0x00, POSTDEC1
	MOVLW	0x02
	MOVFF	PLUSW2, r0x00
;	.line	4438; meter_logger.c	fsk_proto.data = c;
	MOVF	r0x00, W
	BANKSEL	(_fsk_proto + 12)
	MOVWF	(_fsk_proto + 12), B
;	.line	4439; meter_logger.c	fsk_proto.data_len = 8;
	MOVLW	0x08
; removed redundant BANKSEL
	MOVWF	(_fsk_proto + 13), B
_01063_DS_:
	BANKSEL	(_fsk_proto + 13)
;	.line	4440; meter_logger.c	while (fsk_proto.data_len) {
	MOVF	(_fsk_proto + 13), W, B
	BNZ	_01063_DS_
	MOVFF	PREINC1, r0x00
	MOVFF	PREINC1, FSR2L
	RETURN	

; ; Starting pCode block
S_meter_logger__send_fsk_low	code
_send_fsk_low:
;	.line	2984; meter_logger.c	void send_fsk_low(void) {
	MOVFF	FSR2L, POSTDEC1
	MOVFF	FSR1L, FSR2L
;	.line	2985; meter_logger.c	PWM_PIN = 1;
	BSF	_PORTCbits, 1
	nop
	nop
	nop
	nop
	nop
	nop
	nop
	nop
	nop
	nop
	nop
	nop
	nop
	nop
	nop
	nop
	nop
	nop
	nop
	nop
	nop
	nop
	nop
	nop
	nop
	nop
	nop
	nop
	nop
	nop
	nop
	nop
	nop
	nop
	nop
	nop
	nop
	nop
	nop
	nop
	nop
	nop
	nop
	nop
	nop
	nop
	nop
	nop
	nop
	nop
	nop
	nop
	nop
	nop
	nop
	nop
	nop
	nop
	nop
	nop
	nop
	nop
	nop
	nop
	nop
	nop
	nop
	nop
	nop
	nop
	nop
	nop
	nop
	nop
	nop
	nop
	nop
	nop
	nop
	nop
	nop
	nop
	nop
	nop
	nop
	nop
	nop
	nop
	nop
	nop
	nop
	nop
	nop
	nop
	nop
	nop
	nop
	nop
	nop
	nop
	nop
	nop
	nop
	nop
	nop
	nop
	nop
	nop
	nop
	nop
	nop
	nop
	nop
	nop
	nop
	nop
	nop
	nop
	nop
	nop
	nop
	nop
	nop
	nop
	nop
	nop
	nop
	nop
	nop
	nop
	nop
	nop
	nop
	nop
	nop
	nop
	nop
	nop
	nop
	nop
	nop
	nop
	nop
	nop
	nop
	nop
	nop
	nop
	nop
	nop
	nop
	nop
	nop
	nop
	nop
	nop
	nop
	nop
	nop
	nop
	nop
	nop
	nop
	nop
	nop
	nop
	nop
	nop
	nop
	nop
	nop
	nop
	nop
	nop
	nop
	nop
	nop
	nop
	nop
	nop
	nop
	nop
	nop
	nop
	nop
	nop
	nop
	nop
	nop
	nop
	nop
	nop
	nop
	nop
	nop
	nop
	nop
	nop
	nop
	nop
	nop
	nop
	nop
	nop
	
;	.line	3192; meter_logger.c	PWM_PIN = 0;
	BCF	_PORTCbits, 1
	nop
	nop
	nop
	nop
	nop
	nop
	nop
	nop
	nop
	nop
	nop
	nop
	nop
	nop
	nop
	nop
	nop
	nop
	nop
	nop
	nop
	nop
	nop
	nop
	nop
	nop
	nop
	nop
	nop
	nop
	nop
	nop
	nop
	nop
	nop
	nop
	nop
	nop
	nop
	nop
	nop
	nop
	nop
	nop
	nop
	nop
	nop
	nop
	nop
	nop
	nop
	nop
	nop
	nop
	nop
	nop
	nop
	nop
	nop
	nop
	nop
	nop
	nop
	nop
	nop
	nop
	nop
	nop
	nop
	nop
	nop
	nop
	nop
	nop
	nop
	nop
	nop
	nop
	nop
	nop
	nop
	nop
	nop
	nop
	nop
	nop
	nop
	nop
	nop
	nop
	nop
	nop
	nop
	nop
	nop
	nop
	nop
	nop
	nop
	nop
	nop
	nop
	nop
	nop
	nop
	nop
	nop
	nop
	nop
	nop
	nop
	nop
	nop
	nop
	nop
	nop
	nop
	nop
	nop
	nop
	nop
	nop
	nop
	nop
	nop
	nop
	nop
	nop
	nop
	nop
	nop
	nop
	nop
	nop
	nop
	nop
	nop
	nop
	nop
	nop
	nop
	nop
	nop
	nop
	nop
	nop
	nop
	nop
	nop
	nop
	nop
	nop
	nop
	nop
	nop
	nop
	nop
	nop
	nop
	nop
	nop
	nop
	nop
	nop
	nop
	nop
	nop
	nop
	nop
	nop
	nop
	nop
	nop
	nop
	nop
	nop
	nop
	nop
	nop
	nop
	nop
	nop
	nop
	nop
	nop
	nop
	nop
	nop
	nop
	nop
	nop
	nop
	nop
	nop
	nop
	nop
	nop
	nop
	nop
	nop
	nop
	nop
	nop
	nop
	
;	.line	3399; meter_logger.c	PWM_PIN = 1;
	BSF	_PORTCbits, 1
	nop
	nop
	nop
	nop
	nop
	nop
	nop
	nop
	nop
	nop
	nop
	nop
	nop
	nop
	nop
	nop
	nop
	nop
	nop
	nop
	nop
	nop
	nop
	nop
	nop
	nop
	nop
	nop
	nop
	nop
	nop
	nop
	nop
	nop
	nop
	nop
	nop
	nop
	nop
	nop
	nop
	nop
	nop
	nop
	nop
	nop
	nop
	nop
	nop
	nop
	nop
	nop
	nop
	nop
	nop
	nop
	nop
	nop
	nop
	nop
	nop
	nop
	nop
	nop
	nop
	nop
	nop
	nop
	nop
	nop
	nop
	nop
	nop
	nop
	nop
	nop
	nop
	nop
	nop
	nop
	nop
	nop
	nop
	nop
	nop
	nop
	nop
	nop
	nop
	nop
	nop
	nop
	nop
	nop
	nop
	nop
	nop
	nop
	nop
	nop
	nop
	nop
	nop
	nop
	nop
	nop
	nop
	nop
	nop
	nop
	nop
	nop
	nop
	nop
	nop
	nop
	nop
	nop
	nop
	nop
	nop
	nop
	nop
	nop
	nop
	nop
	nop
	nop
	nop
	nop
	nop
	nop
	nop
	nop
	nop
	nop
	nop
	nop
	nop
	nop
	nop
	nop
	nop
	nop
	nop
	nop
	nop
	nop
	nop
	nop
	nop
	nop
	nop
	nop
	nop
	nop
	nop
	nop
	nop
	nop
	nop
	nop
	nop
	nop
	nop
	nop
	nop
	nop
	nop
	nop
	nop
	nop
	nop
	nop
	nop
	nop
	nop
	nop
	nop
	nop
	nop
	nop
	nop
	nop
	nop
	nop
	nop
	nop
	nop
	nop
	nop
	nop
	nop
	nop
	nop
	nop
	nop
	nop
	nop
	nop
	nop
	nop
	nop
	nop
	
;	.line	3606; meter_logger.c	PWM_PIN = 0;
	BCF	_PORTCbits, 1
	nop
	nop
	nop
	nop
	nop
	nop
	nop
	nop
	nop
	nop
	nop
	nop
	nop
	nop
	nop
	nop
	nop
	nop
	nop
	nop
	nop
	nop
	nop
	nop
	nop
	nop
	nop
	nop
	nop
	nop
	nop
	nop
	nop
	nop
	nop
	nop
	nop
	nop
	nop
	nop
	nop
	nop
	nop
	nop
	nop
	nop
	nop
	nop
	nop
	nop
	nop
	nop
	nop
	nop
	nop
	nop
	nop
	nop
	nop
	nop
	nop
	nop
	nop
	nop
	nop
	nop
	nop
	nop
	nop
	nop
	nop
	nop
	nop
	nop
	nop
	nop
	nop
	nop
	nop
	nop
	nop
	nop
	nop
	nop
	nop
	nop
	nop
	nop
	nop
	nop
	nop
	nop
	nop
	nop
	nop
	nop
	nop
	nop
	nop
	nop
	nop
	nop
	nop
	nop
	nop
	nop
	nop
	nop
	nop
	nop
	nop
	nop
	nop
	nop
	nop
	nop
	nop
	nop
	nop
	nop
	nop
	nop
	nop
	nop
	nop
	nop
	nop
	nop
	nop
	nop
	nop
	nop
	nop
	nop
	nop
	nop
	nop
	nop
	nop
	nop
	nop
	nop
	nop
	nop
	nop
	nop
	nop
	nop
	nop
	nop
	nop
	nop
	nop
	nop
	nop
	nop
	nop
	nop
	nop
	nop
	nop
	nop
	nop
	nop
	nop
	nop
	nop
	nop
	nop
	nop
	nop
	nop
	nop
	nop
	nop
	nop
	nop
	nop
	nop
	nop
	nop
	nop
	nop
	nop
	nop
	nop
	nop
	nop
	nop
	nop
	nop
	nop
	nop
	nop
	nop
	nop
	nop
	nop
	nop
	nop
	nop
	nop
	nop
	nop
	
;	.line	3813; meter_logger.c	PWM_PIN = 1;
	BSF	_PORTCbits, 1
	nop
	nop
	nop
	nop
	nop
	nop
	nop
	nop
	nop
	nop
	nop
	nop
	nop
	nop
	nop
	nop
	nop
	nop
	nop
	nop
	nop
	nop
	nop
	nop
	nop
	nop
	nop
	nop
	nop
	nop
	nop
	nop
	nop
	nop
	nop
	nop
	nop
	nop
	nop
	nop
	nop
	nop
	nop
	nop
	nop
	nop
	nop
	nop
	nop
	nop
	nop
	nop
	nop
	nop
	nop
	nop
	nop
	nop
	nop
	nop
	nop
	nop
	nop
	nop
	nop
	nop
	nop
	nop
	nop
	nop
	nop
	nop
	nop
	nop
	nop
	nop
	nop
	nop
	nop
	nop
	nop
	nop
	nop
	nop
	nop
	nop
	nop
	nop
	nop
	nop
	nop
	nop
	nop
	nop
	nop
	nop
	nop
	nop
	nop
	nop
	nop
	nop
	nop
	nop
	nop
	nop
	nop
	nop
	nop
	nop
	nop
	nop
	nop
	nop
	nop
	nop
	nop
	nop
	nop
	nop
	nop
	nop
	nop
	nop
	nop
	nop
	nop
	nop
	nop
	nop
	nop
	nop
	nop
	nop
	nop
	nop
	nop
	nop
	nop
	nop
	nop
	nop
	nop
	nop
	nop
	nop
	nop
	nop
	nop
	nop
	nop
	nop
	nop
	nop
	nop
	nop
	nop
	nop
	nop
	nop
	nop
	nop
	nop
	nop
	nop
	nop
	nop
	nop
	nop
	nop
	nop
	nop
	nop
	nop
	nop
	nop
	nop
	nop
	nop
	nop
	nop
	nop
	nop
	nop
	nop
	nop
	nop
	nop
	nop
	nop
	nop
	nop
	nop
	nop
	nop
	nop
	nop
	nop
	nop
	nop
	nop
	nop
	nop
	nop
	
;	.line	4020; meter_logger.c	PWM_PIN = 0;
	BCF	_PORTCbits, 1
	nop
	nop
	nop
	nop
	nop
	nop
	nop
	nop
	nop
	nop
	nop
	nop
	nop
	nop
	nop
	nop
	nop
	nop
	nop
	nop
	nop
	nop
	nop
	nop
	nop
	nop
	nop
	nop
	nop
	nop
	nop
	nop
	nop
	nop
	nop
	nop
	nop
	nop
	nop
	nop
	nop
	nop
	nop
	nop
	nop
	nop
	nop
	nop
	nop
	nop
	nop
	nop
	nop
	nop
	nop
	nop
	nop
	nop
	nop
	nop
	nop
	nop
	nop
	nop
	nop
	nop
	nop
	nop
	nop
	nop
	nop
	nop
	nop
	nop
	nop
	nop
	nop
	nop
	nop
	nop
	nop
	nop
	nop
	nop
	nop
	nop
	nop
	nop
	nop
	nop
	nop
	nop
	nop
	nop
	nop
	nop
	nop
	nop
	nop
	nop
	nop
	nop
	nop
	nop
	nop
	nop
	nop
	nop
	nop
	nop
	nop
	nop
	nop
	nop
	nop
	nop
	nop
	nop
	nop
	nop
	nop
	nop
	nop
	nop
	nop
	nop
	nop
	nop
	nop
	nop
	nop
	nop
	nop
	nop
	nop
	nop
	nop
	nop
	nop
	nop
	nop
	nop
	nop
	nop
	nop
	nop
	nop
	nop
	nop
	nop
	nop
	nop
	nop
	nop
	nop
	nop
	nop
	nop
	nop
	nop
	nop
	nop
	nop
	nop
	nop
	nop
	nop
	nop
	nop
	nop
	nop
	nop
	nop
	nop
	nop
	nop
	nop
	nop
	nop
	nop
	nop
	nop
	nop
	nop
	nop
	nop
	nop
	nop
	nop
	nop
	nop
	nop
	nop
	nop
	nop
	nop
	nop
	nop
	nop
	nop
	nop
	nop
	nop
	nop
	
;	.line	4227; meter_logger.c	PWM_PIN = 1;
	BSF	_PORTCbits, 1
	nop
	nop
	nop
	nop
	nop
	nop
	nop
	nop
	nop
	nop
	nop
	nop
	nop
	nop
	nop
	nop
	nop
	nop
	nop
	nop
	nop
	nop
	nop
	nop
	nop
	nop
	nop
	nop
	nop
	nop
	nop
	nop
	nop
	nop
	nop
	nop
	nop
	nop
	nop
	nop
	nop
	nop
	nop
	nop
	nop
	nop
	nop
	nop
	nop
	nop
	nop
	nop
	nop
	nop
	nop
	nop
	nop
	nop
	nop
	nop
	nop
	nop
	nop
	nop
	nop
	nop
	nop
	nop
	nop
	nop
	nop
	nop
	nop
	nop
	nop
	nop
	nop
	nop
	nop
	nop
	nop
	nop
	nop
	nop
	nop
	nop
	nop
	nop
	nop
	nop
	nop
	nop
	nop
	nop
	nop
	nop
	nop
	nop
	nop
	nop
	nop
	nop
	nop
	nop
	nop
	nop
	nop
	nop
	nop
	nop
	nop
	nop
	nop
	nop
	nop
	nop
	nop
	nop
	nop
	nop
	nop
	nop
	nop
	nop
	nop
	nop
	nop
	nop
	nop
	nop
	nop
	nop
	nop
	nop
	nop
	nop
	nop
	nop
	nop
	nop
	nop
	nop
	nop
	nop
	nop
	nop
	nop
	nop
	nop
	nop
	nop
	nop
	nop
	nop
	nop
	nop
	nop
	nop
	nop
	nop
	nop
	nop
	nop
	nop
	nop
	nop
	nop
	nop
	nop
	nop
	nop
	nop
	nop
	nop
	nop
	nop
	nop
	nop
	nop
	nop
	nop
	nop
	nop
	nop
	nop
	nop
	nop
	nop
	nop
	nop
	nop
	nop
	nop
	nop
	nop
	nop
	nop
	nop
	nop
	nop
	nop
	nop
	nop
	nop
	
;	.line	4434; meter_logger.c	PWM_PIN = 0;
	BCF	_PORTCbits, 1
	MOVFF	PREINC1, FSR2L
	RETURN	

; ; Starting pCode block
S_meter_logger__send_fsk_high	code
_send_fsk_high:
;	.line	1462; meter_logger.c	void send_fsk_high(void) {
	MOVFF	FSR2L, POSTDEC1
	MOVFF	FSR1L, FSR2L
;	.line	1463; meter_logger.c	PWM_PIN = 1;
	BSF	_PORTCbits, 1
	nop
	nop
	nop
	nop
	nop
	nop
	nop
	nop
	nop
	nop
	nop
	nop
	nop
	nop
	nop
	nop
	nop
	nop
	nop
	nop
	nop
	nop
	nop
	nop
	nop
	nop
	nop
	nop
	nop
	nop
	nop
	nop
	nop
	nop
	nop
	nop
	nop
	nop
	nop
	nop
	nop
	nop
	nop
	nop
	nop
	nop
	nop
	nop
	nop
	nop
	nop
	nop
	nop
	nop
	nop
	nop
	nop
	nop
	nop
	nop
	nop
	nop
	nop
	nop
	nop
	nop
	nop
	nop
	nop
	nop
	nop
	nop
	nop
	nop
	nop
	nop
	nop
	nop
	nop
	nop
	nop
	nop
	nop
	nop
	nop
	nop
	nop
	nop
	nop
	nop
	nop
	nop
	nop
	nop
	nop
	nop
	nop
	nop
	nop
	nop
	nop
	nop
	nop
	nop
	nop
	nop
	nop
	nop
	nop
	nop
	nop
	nop
	nop
	nop
	nop
	nop
	nop
	nop
	nop
	nop
	nop
	nop
	nop
	nop
	nop
	nop
	nop
	nop
	nop
	nop
	nop
	nop
	nop
	nop
	nop
	
;	.line	1601; meter_logger.c	PWM_PIN = 0;
	BCF	_PORTCbits, 1
	nop
	nop
	nop
	nop
	nop
	nop
	nop
	nop
	nop
	nop
	nop
	nop
	nop
	nop
	nop
	nop
	nop
	nop
	nop
	nop
	nop
	nop
	nop
	nop
	nop
	nop
	nop
	nop
	nop
	nop
	nop
	nop
	nop
	nop
	nop
	nop
	nop
	nop
	nop
	nop
	nop
	nop
	nop
	nop
	nop
	nop
	nop
	nop
	nop
	nop
	nop
	nop
	nop
	nop
	nop
	nop
	nop
	nop
	nop
	nop
	nop
	nop
	nop
	nop
	nop
	nop
	nop
	nop
	nop
	nop
	nop
	nop
	nop
	nop
	nop
	nop
	nop
	nop
	nop
	nop
	nop
	nop
	nop
	nop
	nop
	nop
	nop
	nop
	nop
	nop
	nop
	nop
	nop
	nop
	nop
	nop
	nop
	nop
	nop
	nop
	nop
	nop
	nop
	nop
	nop
	nop
	nop
	nop
	nop
	nop
	nop
	nop
	nop
	nop
	nop
	nop
	nop
	nop
	nop
	nop
	nop
	nop
	nop
	nop
	nop
	nop
	nop
	nop
	nop
	nop
	nop
	nop
	nop
	nop
	nop
	
;	.line	1739; meter_logger.c	PWM_PIN = 1;
	BSF	_PORTCbits, 1
	nop
	nop
	nop
	nop
	nop
	nop
	nop
	nop
	nop
	nop
	nop
	nop
	nop
	nop
	nop
	nop
	nop
	nop
	nop
	nop
	nop
	nop
	nop
	nop
	nop
	nop
	nop
	nop
	nop
	nop
	nop
	nop
	nop
	nop
	nop
	nop
	nop
	nop
	nop
	nop
	nop
	nop
	nop
	nop
	nop
	nop
	nop
	nop
	nop
	nop
	nop
	nop
	nop
	nop
	nop
	nop
	nop
	nop
	nop
	nop
	nop
	nop
	nop
	nop
	nop
	nop
	nop
	nop
	nop
	nop
	nop
	nop
	nop
	nop
	nop
	nop
	nop
	nop
	nop
	nop
	nop
	nop
	nop
	nop
	nop
	nop
	nop
	nop
	nop
	nop
	nop
	nop
	nop
	nop
	nop
	nop
	nop
	nop
	nop
	nop
	nop
	nop
	nop
	nop
	nop
	nop
	nop
	nop
	nop
	nop
	nop
	nop
	nop
	nop
	nop
	nop
	nop
	nop
	nop
	nop
	nop
	nop
	nop
	nop
	nop
	nop
	nop
	nop
	nop
	nop
	nop
	nop
	nop
	nop
	nop
	
;	.line	1877; meter_logger.c	PWM_PIN = 0;
	BCF	_PORTCbits, 1
	nop
	nop
	nop
	nop
	nop
	nop
	nop
	nop
	nop
	nop
	nop
	nop
	nop
	nop
	nop
	nop
	nop
	nop
	nop
	nop
	nop
	nop
	nop
	nop
	nop
	nop
	nop
	nop
	nop
	nop
	nop
	nop
	nop
	nop
	nop
	nop
	nop
	nop
	nop
	nop
	nop
	nop
	nop
	nop
	nop
	nop
	nop
	nop
	nop
	nop
	nop
	nop
	nop
	nop
	nop
	nop
	nop
	nop
	nop
	nop
	nop
	nop
	nop
	nop
	nop
	nop
	nop
	nop
	nop
	nop
	nop
	nop
	nop
	nop
	nop
	nop
	nop
	nop
	nop
	nop
	nop
	nop
	nop
	nop
	nop
	nop
	nop
	nop
	nop
	nop
	nop
	nop
	nop
	nop
	nop
	nop
	nop
	nop
	nop
	nop
	nop
	nop
	nop
	nop
	nop
	nop
	nop
	nop
	nop
	nop
	nop
	nop
	nop
	nop
	nop
	nop
	nop
	nop
	nop
	nop
	nop
	nop
	nop
	nop
	nop
	nop
	nop
	nop
	nop
	nop
	nop
	nop
	nop
	nop
	nop
	
;	.line	2015; meter_logger.c	PWM_PIN = 1;
	BSF	_PORTCbits, 1
	nop
	nop
	nop
	nop
	nop
	nop
	nop
	nop
	nop
	nop
	nop
	nop
	nop
	nop
	nop
	nop
	nop
	nop
	nop
	nop
	nop
	nop
	nop
	nop
	nop
	nop
	nop
	nop
	nop
	nop
	nop
	nop
	nop
	nop
	nop
	nop
	nop
	nop
	nop
	nop
	nop
	nop
	nop
	nop
	nop
	nop
	nop
	nop
	nop
	nop
	nop
	nop
	nop
	nop
	nop
	nop
	nop
	nop
	nop
	nop
	nop
	nop
	nop
	nop
	nop
	nop
	nop
	nop
	nop
	nop
	nop
	nop
	nop
	nop
	nop
	nop
	nop
	nop
	nop
	nop
	nop
	nop
	nop
	nop
	nop
	nop
	nop
	nop
	nop
	nop
	nop
	nop
	nop
	nop
	nop
	nop
	nop
	nop
	nop
	nop
	nop
	nop
	nop
	nop
	nop
	nop
	nop
	nop
	nop
	nop
	nop
	nop
	nop
	nop
	nop
	nop
	nop
	nop
	nop
	nop
	nop
	nop
	nop
	nop
	nop
	nop
	nop
	nop
	nop
	nop
	nop
	nop
	nop
	nop
	nop
	
;	.line	2153; meter_logger.c	PWM_PIN = 0;
	BCF	_PORTCbits, 1
	nop
	nop
	nop
	nop
	nop
	nop
	nop
	nop
	nop
	nop
	nop
	nop
	nop
	nop
	nop
	nop
	nop
	nop
	nop
	nop
	nop
	nop
	nop
	nop
	nop
	nop
	nop
	nop
	nop
	nop
	nop
	nop
	nop
	nop
	nop
	nop
	nop
	nop
	nop
	nop
	nop
	nop
	nop
	nop
	nop
	nop
	nop
	nop
	nop
	nop
	nop
	nop
	nop
	nop
	nop
	nop
	nop
	nop
	nop
	nop
	nop
	nop
	nop
	nop
	nop
	nop
	nop
	nop
	nop
	nop
	nop
	nop
	nop
	nop
	nop
	nop
	nop
	nop
	nop
	nop
	nop
	nop
	nop
	nop
	nop
	nop
	nop
	nop
	nop
	nop
	nop
	nop
	nop
	nop
	nop
	nop
	nop
	nop
	nop
	nop
	nop
	nop
	nop
	nop
	nop
	nop
	nop
	nop
	nop
	nop
	nop
	nop
	nop
	nop
	nop
	nop
	nop
	nop
	nop
	nop
	nop
	nop
	nop
	nop
	nop
	nop
	nop
	nop
	nop
	nop
	nop
	nop
	nop
	nop
	nop
	
;	.line	2291; meter_logger.c	PWM_PIN = 1;
	BSF	_PORTCbits, 1
	nop
	nop
	nop
	nop
	nop
	nop
	nop
	nop
	nop
	nop
	nop
	nop
	nop
	nop
	nop
	nop
	nop
	nop
	nop
	nop
	nop
	nop
	nop
	nop
	nop
	nop
	nop
	nop
	nop
	nop
	nop
	nop
	nop
	nop
	nop
	nop
	nop
	nop
	nop
	nop
	nop
	nop
	nop
	nop
	nop
	nop
	nop
	nop
	nop
	nop
	nop
	nop
	nop
	nop
	nop
	nop
	nop
	nop
	nop
	nop
	nop
	nop
	nop
	nop
	nop
	nop
	nop
	nop
	nop
	nop
	nop
	nop
	nop
	nop
	nop
	nop
	nop
	nop
	nop
	nop
	nop
	nop
	nop
	nop
	nop
	nop
	nop
	nop
	nop
	nop
	nop
	nop
	nop
	nop
	nop
	nop
	nop
	nop
	nop
	nop
	nop
	nop
	nop
	nop
	nop
	nop
	nop
	nop
	nop
	nop
	nop
	nop
	nop
	nop
	nop
	nop
	nop
	nop
	nop
	nop
	nop
	nop
	nop
	nop
	nop
	nop
	nop
	nop
	nop
	nop
	nop
	nop
	nop
	nop
	nop
	
;	.line	2429; meter_logger.c	PWM_PIN = 0;
	BCF	_PORTCbits, 1
	nop
	nop
	nop
	nop
	nop
	nop
	nop
	nop
	nop
	nop
	nop
	nop
	nop
	nop
	nop
	nop
	nop
	nop
	nop
	nop
	nop
	nop
	nop
	nop
	nop
	nop
	nop
	nop
	nop
	nop
	nop
	nop
	nop
	nop
	nop
	nop
	nop
	nop
	nop
	nop
	nop
	nop
	nop
	nop
	nop
	nop
	nop
	nop
	nop
	nop
	nop
	nop
	nop
	nop
	nop
	nop
	nop
	nop
	nop
	nop
	nop
	nop
	nop
	nop
	nop
	nop
	nop
	nop
	nop
	nop
	nop
	nop
	nop
	nop
	nop
	nop
	nop
	nop
	nop
	nop
	nop
	nop
	nop
	nop
	nop
	nop
	nop
	nop
	nop
	nop
	nop
	nop
	nop
	nop
	nop
	nop
	nop
	nop
	nop
	nop
	nop
	nop
	nop
	nop
	nop
	nop
	nop
	nop
	nop
	nop
	nop
	nop
	nop
	nop
	nop
	nop
	nop
	nop
	nop
	nop
	nop
	nop
	nop
	nop
	nop
	nop
	nop
	nop
	nop
	nop
	nop
	nop
	nop
	nop
	nop
	
;	.line	2567; meter_logger.c	PWM_PIN = 1;
	BSF	_PORTCbits, 1
	nop
	nop
	nop
	nop
	nop
	nop
	nop
	nop
	nop
	nop
	nop
	nop
	nop
	nop
	nop
	nop
	nop
	nop
	nop
	nop
	nop
	nop
	nop
	nop
	nop
	nop
	nop
	nop
	nop
	nop
	nop
	nop
	nop
	nop
	nop
	nop
	nop
	nop
	nop
	nop
	nop
	nop
	nop
	nop
	nop
	nop
	nop
	nop
	nop
	nop
	nop
	nop
	nop
	nop
	nop
	nop
	nop
	nop
	nop
	nop
	nop
	nop
	nop
	nop
	nop
	nop
	nop
	nop
	nop
	nop
	nop
	nop
	nop
	nop
	nop
	nop
	nop
	nop
	nop
	nop
	nop
	nop
	nop
	nop
	nop
	nop
	nop
	nop
	nop
	nop
	nop
	nop
	nop
	nop
	nop
	nop
	nop
	nop
	nop
	nop
	nop
	nop
	nop
	nop
	nop
	nop
	nop
	nop
	nop
	nop
	nop
	nop
	nop
	nop
	nop
	nop
	nop
	nop
	nop
	nop
	nop
	nop
	nop
	nop
	nop
	nop
	nop
	nop
	nop
	nop
	nop
	nop
	nop
	nop
	nop
	
;	.line	2705; meter_logger.c	PWM_PIN = 0;
	BCF	_PORTCbits, 1
	nop
	nop
	nop
	nop
	nop
	nop
	nop
	nop
	nop
	nop
	nop
	nop
	nop
	nop
	nop
	nop
	nop
	nop
	nop
	nop
	nop
	nop
	nop
	nop
	nop
	nop
	nop
	nop
	nop
	nop
	nop
	nop
	nop
	nop
	nop
	nop
	nop
	nop
	nop
	nop
	nop
	nop
	nop
	nop
	nop
	nop
	nop
	nop
	nop
	nop
	nop
	nop
	nop
	nop
	nop
	nop
	nop
	nop
	nop
	nop
	nop
	nop
	nop
	nop
	nop
	nop
	nop
	nop
	nop
	nop
	nop
	nop
	nop
	nop
	nop
	nop
	nop
	nop
	nop
	nop
	nop
	nop
	nop
	nop
	nop
	nop
	nop
	nop
	nop
	nop
	nop
	nop
	nop
	nop
	nop
	nop
	nop
	nop
	nop
	nop
	nop
	nop
	nop
	nop
	nop
	nop
	nop
	nop
	nop
	nop
	nop
	nop
	nop
	nop
	nop
	nop
	nop
	nop
	nop
	nop
	nop
	nop
	nop
	nop
	nop
	nop
	nop
	nop
	nop
	nop
	nop
	nop
	nop
	nop
	nop
	
;	.line	2843; meter_logger.c	PWM_PIN = 1;
	BSF	_PORTCbits, 1
	nop
	nop
	nop
	nop
	nop
	nop
	nop
	nop
	nop
	nop
	nop
	nop
	nop
	nop
	nop
	nop
	nop
	nop
	nop
	nop
	nop
	nop
	nop
	nop
	nop
	nop
	nop
	nop
	nop
	nop
	nop
	nop
	nop
	nop
	nop
	nop
	nop
	nop
	nop
	nop
	nop
	nop
	nop
	nop
	nop
	nop
	nop
	nop
	nop
	nop
	nop
	nop
	nop
	nop
	nop
	nop
	nop
	nop
	nop
	nop
	nop
	nop
	nop
	nop
	nop
	nop
	nop
	nop
	nop
	nop
	nop
	nop
	nop
	nop
	nop
	nop
	nop
	nop
	nop
	nop
	nop
	nop
	nop
	nop
	nop
	nop
	nop
	nop
	nop
	nop
	nop
	nop
	nop
	nop
	nop
	nop
	nop
	nop
	nop
	nop
	nop
	nop
	nop
	nop
	nop
	nop
	nop
	nop
	nop
	nop
	nop
	nop
	nop
	nop
	nop
	nop
	nop
	nop
	nop
	nop
	nop
	nop
	nop
	nop
	nop
	nop
	nop
	nop
	nop
	nop
	nop
	nop
	nop
	nop
	nop
	
;	.line	2981; meter_logger.c	PWM_PIN = 0;
	BCF	_PORTCbits, 1
	MOVFF	PREINC1, FSR2L
	RETURN	

; ; Starting pCode block
S_meter_logger__fsk_rx_disable	code
_fsk_rx_disable:
;	.line	1457; meter_logger.c	void fsk_rx_disable() {
	MOVFF	FSR2L, POSTDEC1
	MOVFF	FSR1L, FSR2L
;	.line	1458; meter_logger.c	PIE2bits.CMIE = 0;		// Disable comparator interrupt
	BCF	_PIE2bits, 6
	BANKSEL	_codec_type
;	.line	1459; meter_logger.c	codec_type = NONE;
	CLRF	_codec_type, B
	MOVFF	PREINC1, FSR2L
	RETURN	

; ; Starting pCode block
S_meter_logger__fsk_rx_enable	code
_fsk_rx_enable:
;	.line	1421; meter_logger.c	void fsk_rx_enable() {
	MOVFF	FSR2L, POSTDEC1
	MOVFF	FSR1L, FSR2L
;	.line	1422; meter_logger.c	fsk_proto.state = START_BIT_WAIT;
	MOVLW	0x02
	BANKSEL	_fsk_proto
	MOVWF	_fsk_proto, B
; removed redundant BANKSEL
;	.line	1423; meter_logger.c	fsk_proto.start_bit_time = 0;
	CLRF	(_fsk_proto + 10), B
; removed redundant BANKSEL
	CLRF	(_fsk_proto + 11), B
;	.line	1425; meter_logger.c	timer0_reload = TIMER0_FSK;
	MOVLW	0x9f
	BANKSEL	_timer0_reload
	MOVWF	_timer0_reload, B
	MOVLW	0xf9
; removed redundant BANKSEL
	MOVWF	(_timer0_reload + 1), B
;	.line	1427; meter_logger.c	codec_type = FSK_RX;
	MOVLW	0x06
	BANKSEL	_codec_type
	MOVWF	_codec_type, B
;	.line	1430; meter_logger.c	T0CONbits.TMR0ON = 1;
	BSF	_T0CONbits, 7
;	.line	1431; meter_logger.c	T0CONbits.T0PS0 = 0;
	BCF	_T0CONbits, 0
;	.line	1432; meter_logger.c	T0CONbits.T0PS1 = 0;
	BCF	_T0CONbits, 1
;	.line	1433; meter_logger.c	T0CONbits.T0PS2 = 0;		// prescaler 1:2
	BCF	_T0CONbits, 2
;	.line	1434; meter_logger.c	T0CONbits.T08BIT = 0;		// use timer0 16-bit counter
	BCF	_T0CONbits, 6
;	.line	1435; meter_logger.c	T0CONbits.T0CS = 0;			// internal clock source
	BCF	_T0CONbits, 5
;	.line	1436; meter_logger.c	T0CONbits.PSA = 1;			// disable timer0 prescaler
	BSF	_T0CONbits, 3
;	.line	1437; meter_logger.c	INTCON2bits.TMR0IP = 1;		// high priority
	BSF	_INTCON2bits, 2
;	.line	1438; meter_logger.c	INTCONbits.TMR0IE = 0;		// Dont enable TMR0 Interrupt
	BCF	_INTCONbits, 5
;	.line	1441; meter_logger.c	CVRCONbits.CVREF = 0xf;	// 0V
	BSF	_CVRCONbits, 4
;	.line	1443; meter_logger.c	CVRCONbits.CVRSS = 0;	// VDD  VSS
	BCF	_CVRCONbits, 4
;	.line	1444; meter_logger.c	CVRCONbits.CVRR = 0;	// high range, 0.25 CVRSRC to 0.75 CVRSRC, with CVRSRC/32 step size
	BCF	_CVRCONbits, 5
;	.line	1445; meter_logger.c	CVRCONbits.CVR = 9;		// 2,65625 V
	MOVF	_CVRCONbits, W
	ANDLW	0xf0
	IORLW	0x09
	MOVWF	_CVRCONbits
;	.line	1446; meter_logger.c	CVRCONbits.CVROE = 0;	// Comparator VREF Output disabled, CVREF voltage is disconnected from the RA2/AN2/VREF-/CVREF pin
	BCF	_CVRCONbits, 6
;	.line	1447; meter_logger.c	CVRCONbits.CVREN = 1;	// Comparator Voltage Reference Enable bit
	BSF	_CVRCONbits, 7
;	.line	1449; meter_logger.c	CMCONbits.CM = 0x6;		// four inputs multiplexed to two comparators
	MOVF	_CMCONbits, W
	ANDLW	0xf8
	IORLW	0x06
	MOVWF	_CMCONbits
;	.line	1450; meter_logger.c	CMCONbits.CIS = 0;		// multiplexed to RA0/AN0 and RA1/AN1
	BCF	_CMCONbits, 3
;	.line	1451; meter_logger.c	CMCONbits.C1INV = 1;	// inverted output, C1 VIN+ < C1 VIN-
	BSF	_CMCONbits, 4
;	.line	1453; meter_logger.c	IPR2bits.CMIP = 1;		// high priority
	BSF	_IPR2bits, 6
;	.line	1454; meter_logger.c	PIE2bits.CMIE = 1;		// Enable comparator interrupt
	BSF	_PIE2bits, 6
	MOVFF	PREINC1, FSR2L
	RETURN	

; ; Starting pCode block
S_meter_logger__fsk_tx_disable	code
_fsk_tx_disable:
;	.line	1415; meter_logger.c	void fsk_tx_disable() {
	MOVFF	FSR2L, POSTDEC1
	MOVFF	FSR1L, FSR2L
	BANKSEL	_codec_type
;	.line	1416; meter_logger.c	codec_type = NONE;
	CLRF	_codec_type, B
;	.line	1417; meter_logger.c	T0CONbits.TMR0ON = 0;	// Disable TMR0 
	BCF	_T0CONbits, 7
;	.line	1418; meter_logger.c	PIE2bits.CMIE = 1;		// Disable comparator interrupt
	BSF	_PIE2bits, 6
	MOVFF	PREINC1, FSR2L
	RETURN	

; ; Starting pCode block
S_meter_logger__fsk_tx_enable	code
_fsk_tx_enable:
;	.line	1397; meter_logger.c	void fsk_tx_enable() {
	MOVFF	FSR2L, POSTDEC1
	MOVFF	FSR1L, FSR2L
;	.line	1398; meter_logger.c	timer0_reload = TIMER0_FSK;
	MOVLW	0x9f
	BANKSEL	_timer0_reload
	MOVWF	_timer0_reload, B
	MOVLW	0xf9
; removed redundant BANKSEL
	MOVWF	(_timer0_reload + 1), B
	BANKSEL	_fsk_proto
;	.line	1400; meter_logger.c	fsk_proto.state = INIT_STATE;
	CLRF	_fsk_proto, B
;	.line	1401; meter_logger.c	codec_type = FSK_TX;
	MOVLW	0x07
	BANKSEL	_codec_type
	MOVWF	_codec_type, B
;	.line	1404; meter_logger.c	T0CONbits.TMR0ON = 1;
	BSF	_T0CONbits, 7
;	.line	1405; meter_logger.c	T0CONbits.T0PS0 = 0;
	BCF	_T0CONbits, 0
;	.line	1406; meter_logger.c	T0CONbits.T0PS1 = 0;
	BCF	_T0CONbits, 1
;	.line	1407; meter_logger.c	T0CONbits.T0PS2 = 0;		// prescaler 1:2
	BCF	_T0CONbits, 2
;	.line	1408; meter_logger.c	T0CONbits.T08BIT = 0;		// use timer0 16-bit counter
	BCF	_T0CONbits, 6
;	.line	1409; meter_logger.c	T0CONbits.T0CS = 0;			// internal clock source
	BCF	_T0CONbits, 5
;	.line	1410; meter_logger.c	T0CONbits.PSA = 1;			// disable timer0 prescaler
	BSF	_T0CONbits, 3
;	.line	1411; meter_logger.c	INTCON2bits.TMR0IP = 1;		// high priority
	BSF	_INTCON2bits, 2
;	.line	1412; meter_logger.c	INTCONbits.TMR0IE = 1;		// Enable TMR0 Interrupt
	BSF	_INTCONbits, 5
	MOVFF	PREINC1, FSR2L
	RETURN	

; ; Starting pCode block
S_meter_logger__rs232_7e1_tx_byte	code
_rs232_7e1_tx_byte:
;	.line	1387; meter_logger.c	void rs232_7e1_tx_byte(unsigned char c) {
	MOVFF	FSR2L, POSTDEC1
	MOVFF	FSR1L, FSR2L
	MOVFF	r0x00, POSTDEC1
	MOVLW	0x02
	MOVFF	PLUSW2, r0x00
;	.line	1388; meter_logger.c	rs232_proto.data = c;
	MOVF	r0x00, W
	BANKSEL	(_rs232_proto + 2)
	MOVWF	(_rs232_proto + 2), B
;	.line	1389; meter_logger.c	rs232_proto.data_len = 7;
	MOVLW	0x07
; removed redundant BANKSEL
	MOVWF	(_rs232_proto + 3), B
;	.line	1390; meter_logger.c	T0CONbits.TMR0ON = 1;		// start timer 0
	BSF	_T0CONbits, 7
;	.line	1391; meter_logger.c	INTCONbits.TMR0IF = 1;		// enter timer interrupt handler now
	BSF	_INTCONbits, 2
_01025_DS_:
	BANKSEL	(_rs232_proto + 3)
;	.line	1392; meter_logger.c	while (rs232_proto.data_len) {
	MOVF	(_rs232_proto + 3), W, B
	BNZ	_01025_DS_
	MOVFF	PREINC1, r0x00
	MOVFF	PREINC1, FSR2L
	RETURN	

; ; Starting pCode block
S_meter_logger__rs232_7e1_rx_disable	code
_rs232_7e1_rx_disable:
;	.line	1381; meter_logger.c	void rs232_7e1_rx_disable() {
	MOVFF	FSR2L, POSTDEC1
	MOVFF	FSR1L, FSR2L
;	.line	1382; meter_logger.c	INTCONbits.INT0IE = 0;		// disable ext int
	BCF	_INTCONbits, 4
	BANKSEL	_codec_type
;	.line	1383; meter_logger.c	codec_type = NONE;
	CLRF	_codec_type, B
;	.line	1384; meter_logger.c	T0CONbits.TMR0ON = 0;
	BCF	_T0CONbits, 7
	MOVFF	PREINC1, FSR2L
	RETURN	

; ; Starting pCode block
S_meter_logger__rs232_7e1_rx_enable	code
_rs232_7e1_rx_enable:
;	.line	1357; meter_logger.c	void rs232_7e1_rx_enable(unsigned int t) {
	MOVFF	FSR2L, POSTDEC1
	MOVFF	FSR1L, FSR2L
	MOVLW	0x02
	MOVFF	PLUSW2, _timer0_reload
	MOVLW	0x03
	MOVFF	PLUSW2, (_timer0_reload + 1)
;	.line	1358; meter_logger.c	rs232_proto.state = START_BIT_WAIT;
	MOVLW	0x02
	BANKSEL	_rs232_proto
	MOVWF	_rs232_proto, B
; removed redundant BANKSEL
;	.line	1359; meter_logger.c	rs232_proto.data_len = 0;
	CLRF	(_rs232_proto + 3), B
;	.line	1363; meter_logger.c	codec_type = RS232_7E1_RX;
	MOVLW	0x04
	BANKSEL	_codec_type
	MOVWF	_codec_type, B
;	.line	1366; meter_logger.c	T0CONbits.TMR0ON = 0;
	BCF	_T0CONbits, 7
;	.line	1367; meter_logger.c	T0CONbits.T0PS0 = 0;
	BCF	_T0CONbits, 0
;	.line	1368; meter_logger.c	T0CONbits.T0PS1 = 0;
	BCF	_T0CONbits, 1
;	.line	1369; meter_logger.c	T0CONbits.T0PS2 = 0;		// prescaler 1:2
	BCF	_T0CONbits, 2
;	.line	1370; meter_logger.c	T0CONbits.T08BIT = 0;		// use timer0 16-bit counter
	BCF	_T0CONbits, 6
;	.line	1371; meter_logger.c	T0CONbits.T0CS = 0;			// internal clock source
	BCF	_T0CONbits, 5
;	.line	1372; meter_logger.c	T0CONbits.PSA = 1;			// disable timer0 prescaler
	BSF	_T0CONbits, 3
;	.line	1373; meter_logger.c	INTCON2bits.TMR0IP = 1;		// high priority
	BSF	_INTCON2bits, 2
;	.line	1374; meter_logger.c	INTCONbits.TMR0IE = 1;		// Enable TMR0 Interrupt
	BSF	_INTCONbits, 5
;	.line	1375; meter_logger.c	INTCONbits.TMR0IF = 0;
	BCF	_INTCONbits, 2
;	.line	1377; meter_logger.c	INTCONbits.INT0IE = 1;		// enable ext int
	BSF	_INTCONbits, 4
;	.line	1378; meter_logger.c	INTCON2bits.INTEDG0 = 1;	// rising edge
	BSF	_INTCON2bits, 6
	MOVFF	PREINC1, FSR2L
	RETURN	

; ; Starting pCode block
S_meter_logger__rs232_7e1_tx_disable	code
_rs232_7e1_tx_disable:
;	.line	1351; meter_logger.c	void rs232_7e1_tx_disable() {
	MOVFF	FSR2L, POSTDEC1
	MOVFF	FSR1L, FSR2L
	BANKSEL	_codec_type
;	.line	1352; meter_logger.c	codec_type = NONE;
	CLRF	_codec_type, B
;	.line	1353; meter_logger.c	IR_LED_PIN = 0;				// no need to set it to inverted idle
	BCF	_PORTBbits, 1
;	.line	1354; meter_logger.c	T0CONbits.TMR0ON = 0;
	BCF	_T0CONbits, 7
	MOVFF	PREINC1, FSR2L
	RETURN	

; ; Starting pCode block
S_meter_logger__rs232_7e1_tx_enable	code
_rs232_7e1_tx_enable:
;	.line	1325; meter_logger.c	void rs232_7e1_tx_enable(unsigned int t) {
	MOVFF	FSR2L, POSTDEC1
	MOVFF	FSR1L, FSR2L
	MOVLW	0x02
	MOVFF	PLUSW2, _timer0_reload
	MOVLW	0x03
	MOVFF	PLUSW2, (_timer0_reload + 1)
	BANKSEL	_rs232_proto
;	.line	1328; meter_logger.c	rs232_proto.state = INIT_STATE;
	CLRF	_rs232_proto, B
; removed redundant BANKSEL
;	.line	1329; meter_logger.c	rs232_proto.data_len = 0;
	CLRF	(_rs232_proto + 3), B
;	.line	1331; meter_logger.c	IR_LED_PIN = 0;				// inverted rs232 output on ir, idle = no ir light
	BCF	_PORTBbits, 1
;	.line	1333; meter_logger.c	codec_type = RS232_7E1_TX;
	MOVLW	0x05
	BANKSEL	_codec_type
	MOVWF	_codec_type, B
;	.line	1336; meter_logger.c	T0CONbits.TMR0ON = 0;
	BCF	_T0CONbits, 7
;	.line	1337; meter_logger.c	T0CONbits.T0PS0 = 0;
	BCF	_T0CONbits, 0
;	.line	1338; meter_logger.c	T0CONbits.T0PS1 = 0;
	BCF	_T0CONbits, 1
;	.line	1339; meter_logger.c	T0CONbits.T0PS2 = 0;		// prescaler 1:2
	BCF	_T0CONbits, 2
;	.line	1340; meter_logger.c	T0CONbits.T08BIT = 0;		// use timer0 16-bit counter
	BCF	_T0CONbits, 6
;	.line	1341; meter_logger.c	T0CONbits.T0CS = 0;			// internal clock source
	BCF	_T0CONbits, 5
;	.line	1342; meter_logger.c	T0CONbits.PSA = 1;			// disable timer0 prescaler
	BSF	_T0CONbits, 3
;	.line	1343; meter_logger.c	INTCON2bits.TMR0IP = 1;		// high priority
	BSF	_INTCON2bits, 2
;	.line	1344; meter_logger.c	INTCONbits.TMR0IE = 1;		// Enable TMR0 Interrupt
	BSF	_INTCONbits, 5
;	.line	1345; meter_logger.c	INTCONbits.TMR0IF = 0;
	BCF	_INTCONbits, 2
;	.line	1348; meter_logger.c	T0CONbits.TMR0ON = 0;		// timer 0 started in rs232_8n2_tx_byte()
	BCF	_T0CONbits, 7
	MOVFF	PREINC1, FSR2L
	RETURN	

; ; Starting pCode block
S_meter_logger__rs232_8n2_tx_byte	code
_rs232_8n2_tx_byte:
;	.line	1315; meter_logger.c	void rs232_8n2_tx_byte(unsigned char c) {
	MOVFF	FSR2L, POSTDEC1
	MOVFF	FSR1L, FSR2L
	MOVFF	r0x00, POSTDEC1
	MOVLW	0x02
	MOVFF	PLUSW2, r0x00
;	.line	1316; meter_logger.c	rs232_proto.data = c;
	MOVF	r0x00, W
	BANKSEL	(_rs232_proto + 2)
	MOVWF	(_rs232_proto + 2), B
;	.line	1317; meter_logger.c	rs232_proto.data_len = 8;
	MOVLW	0x08
; removed redundant BANKSEL
	MOVWF	(_rs232_proto + 3), B
;	.line	1318; meter_logger.c	T0CONbits.TMR0ON = 1;		// start timer 0
	BSF	_T0CONbits, 7
;	.line	1319; meter_logger.c	INTCONbits.TMR0IF = 1;		// enter timer interrupt handler now
	BSF	_INTCONbits, 2
_00997_DS_:
	BANKSEL	(_rs232_proto + 3)
;	.line	1320; meter_logger.c	while (rs232_proto.data_len) {
	MOVF	(_rs232_proto + 3), W, B
	BNZ	_00997_DS_
	MOVFF	PREINC1, r0x00
	MOVFF	PREINC1, FSR2L
	RETURN	

; ; Starting pCode block
S_meter_logger__rs232_8n2_rx_disable	code
_rs232_8n2_rx_disable:
;	.line	1309; meter_logger.c	void rs232_8n2_rx_disable() {
	MOVFF	FSR2L, POSTDEC1
	MOVFF	FSR1L, FSR2L
;	.line	1310; meter_logger.c	INTCONbits.INT0IE = 0;		// disable ext int
	BCF	_INTCONbits, 4
	BANKSEL	_codec_type
;	.line	1311; meter_logger.c	codec_type = NONE;
	CLRF	_codec_type, B
;	.line	1312; meter_logger.c	T0CONbits.TMR0ON = 0;
	BCF	_T0CONbits, 7
	MOVFF	PREINC1, FSR2L
	RETURN	

; ; Starting pCode block
S_meter_logger__rs232_8n2_rx_enable	code
_rs232_8n2_rx_enable:
;	.line	1285; meter_logger.c	void rs232_8n2_rx_enable(unsigned int t) {
	MOVFF	FSR2L, POSTDEC1
	MOVFF	FSR1L, FSR2L
	MOVLW	0x02
	MOVFF	PLUSW2, _timer0_reload
	MOVLW	0x03
	MOVFF	PLUSW2, (_timer0_reload + 1)
;	.line	1286; meter_logger.c	rs232_proto.state = START_BIT_WAIT;
	MOVLW	0x02
	BANKSEL	_rs232_proto
	MOVWF	_rs232_proto, B
; removed redundant BANKSEL
;	.line	1287; meter_logger.c	rs232_proto.data_len = 0;
	CLRF	(_rs232_proto + 3), B
;	.line	1291; meter_logger.c	codec_type = RS232_8N2_RX;
	MOVLW	0x02
	BANKSEL	_codec_type
	MOVWF	_codec_type, B
;	.line	1294; meter_logger.c	T0CONbits.TMR0ON = 0;
	BCF	_T0CONbits, 7
;	.line	1295; meter_logger.c	T0CONbits.T0PS0 = 0;
	BCF	_T0CONbits, 0
;	.line	1296; meter_logger.c	T0CONbits.T0PS1 = 0;
	BCF	_T0CONbits, 1
;	.line	1297; meter_logger.c	T0CONbits.T0PS2 = 0;		// prescaler 1:2
	BCF	_T0CONbits, 2
;	.line	1298; meter_logger.c	T0CONbits.T08BIT = 0;		// use timer0 16-bit counter
	BCF	_T0CONbits, 6
;	.line	1299; meter_logger.c	T0CONbits.T0CS = 0;			// internal clock source
	BCF	_T0CONbits, 5
;	.line	1300; meter_logger.c	T0CONbits.PSA = 1;			// disable timer0 prescaler
	BSF	_T0CONbits, 3
;	.line	1301; meter_logger.c	INTCON2bits.TMR0IP = 1;		// high priority
	BSF	_INTCON2bits, 2
;	.line	1302; meter_logger.c	INTCONbits.TMR0IE = 1;		// Enable TMR0 Interrupt
	BSF	_INTCONbits, 5
;	.line	1303; meter_logger.c	INTCONbits.TMR0IF = 0;
	BCF	_INTCONbits, 2
;	.line	1305; meter_logger.c	INTCONbits.INT0IE = 1;		// enable ext int
	BSF	_INTCONbits, 4
;	.line	1306; meter_logger.c	INTCON2bits.INTEDG0 = 1;	// rising edge
	BSF	_INTCON2bits, 6
	MOVFF	PREINC1, FSR2L
	RETURN	

; ; Starting pCode block
S_meter_logger__rs232_8n2_tx_disable	code
_rs232_8n2_tx_disable:
;	.line	1279; meter_logger.c	void rs232_8n2_tx_disable() {
	MOVFF	FSR2L, POSTDEC1
	MOVFF	FSR1L, FSR2L
	BANKSEL	_codec_type
;	.line	1280; meter_logger.c	codec_type = NONE;
	CLRF	_codec_type, B
;	.line	1281; meter_logger.c	IR_LED_PIN = 0;				// no need to set it to inverted idle
	BCF	_PORTBbits, 1
;	.line	1282; meter_logger.c	T0CONbits.TMR0ON = 0;
	BCF	_T0CONbits, 7
	MOVFF	PREINC1, FSR2L
	RETURN	

; ; Starting pCode block
S_meter_logger__rs232_8n2_tx_enable	code
_rs232_8n2_tx_enable:
;	.line	1253; meter_logger.c	void rs232_8n2_tx_enable(unsigned int t) {
	MOVFF	FSR2L, POSTDEC1
	MOVFF	FSR1L, FSR2L
	MOVLW	0x02
	MOVFF	PLUSW2, _timer0_reload
	MOVLW	0x03
	MOVFF	PLUSW2, (_timer0_reload + 1)
	BANKSEL	_rs232_proto
;	.line	1256; meter_logger.c	rs232_proto.state = INIT_STATE;
	CLRF	_rs232_proto, B
; removed redundant BANKSEL
;	.line	1257; meter_logger.c	rs232_proto.data_len = 0;
	CLRF	(_rs232_proto + 3), B
;	.line	1259; meter_logger.c	IR_LED_PIN = 0;				// inverted rs232 output on ir, idle = no ir light
	BCF	_PORTBbits, 1
;	.line	1261; meter_logger.c	codec_type = RS232_8N2_TX;
	MOVLW	0x03
	BANKSEL	_codec_type
	MOVWF	_codec_type, B
;	.line	1264; meter_logger.c	T0CONbits.TMR0ON = 0;
	BCF	_T0CONbits, 7
;	.line	1265; meter_logger.c	T0CONbits.T0PS0 = 0;
	BCF	_T0CONbits, 0
;	.line	1266; meter_logger.c	T0CONbits.T0PS1 = 0;
	BCF	_T0CONbits, 1
;	.line	1267; meter_logger.c	T0CONbits.T0PS2 = 0;		// prescaler 1:2
	BCF	_T0CONbits, 2
;	.line	1268; meter_logger.c	T0CONbits.T08BIT = 0;		// use timer0 16-bit counter
	BCF	_T0CONbits, 6
;	.line	1269; meter_logger.c	T0CONbits.T0CS = 0;			// internal clock source
	BCF	_T0CONbits, 5
;	.line	1270; meter_logger.c	T0CONbits.PSA = 1;			// disable timer0 prescaler
	BSF	_T0CONbits, 3
;	.line	1271; meter_logger.c	INTCON2bits.TMR0IP = 1;		// high priority
	BSF	_INTCON2bits, 2
;	.line	1272; meter_logger.c	INTCONbits.TMR0IE = 1;		// Enable TMR0 Interrupt
	BSF	_INTCONbits, 5
;	.line	1273; meter_logger.c	INTCONbits.TMR0IF = 0;
	BCF	_INTCONbits, 2
;	.line	1276; meter_logger.c	T0CONbits.TMR0ON = 0;		// timer 0 started in rs232_8n2_tx_byte()
	BCF	_T0CONbits, 7
	MOVFF	PREINC1, FSR2L
	RETURN	

; ; Starting pCode block
S_meter_logger__testo_ir_disable	code
_testo_ir_disable:
;	.line	1248; meter_logger.c	void testo_ir_disable() {
	MOVFF	FSR2L, POSTDEC1
	MOVFF	FSR1L, FSR2L
	BANKSEL	_codec_type
;	.line	1249; meter_logger.c	codec_type = NONE;
	CLRF	_codec_type, B
;	.line	1250; meter_logger.c	INTCONbits.INT0IE = 0;		// disable ext int
	BCF	_INTCONbits, 4
	MOVFF	PREINC1, FSR2L
	RETURN	

; ; Starting pCode block
S_meter_logger__testo_ir_enable	code
_testo_ir_enable:
;	.line	1224; meter_logger.c	void testo_ir_enable() {
	MOVFF	FSR2L, POSTDEC1
	MOVFF	FSR1L, FSR2L
	BANKSEL	_testo_ir_proto
;	.line	1225; meter_logger.c	testo_ir_proto.state = INIT_STATE;
	CLRF	_testo_ir_proto, B
; removed redundant BANKSEL
;	.line	1226; meter_logger.c	testo_ir_proto.start_bit_len = 0;
	CLRF	(_testo_ir_proto + 2), B
;	.line	1228; meter_logger.c	timer0_reload = TIMER0_TESTO;
	MOVLW	0x23
	BANKSEL	_timer0_reload
	MOVWF	_timer0_reload, B
	MOVLW	0xf3
; removed redundant BANKSEL
	MOVWF	(_timer0_reload + 1), B
;	.line	1230; meter_logger.c	codec_type = TESTO;
	MOVLW	0x01
	BANKSEL	_codec_type
	MOVWF	_codec_type, B
;	.line	1233; meter_logger.c	T0CONbits.TMR0ON = 0;
	BCF	_T0CONbits, 7
;	.line	1234; meter_logger.c	T0CONbits.T0PS0 = 0;
	BCF	_T0CONbits, 0
;	.line	1235; meter_logger.c	T0CONbits.T0PS1 = 0;
	BCF	_T0CONbits, 1
;	.line	1236; meter_logger.c	T0CONbits.T0PS2 = 0;		// prescaler 1:2
	BCF	_T0CONbits, 2
;	.line	1237; meter_logger.c	T0CONbits.T08BIT = 0;		// use timer0 16-bit counter
	BCF	_T0CONbits, 6
;	.line	1238; meter_logger.c	T0CONbits.T0CS = 0;			// internal clock source
	BCF	_T0CONbits, 5
;	.line	1239; meter_logger.c	T0CONbits.PSA = 1;			// disable timer0 prescaler
	BSF	_T0CONbits, 3
;	.line	1240; meter_logger.c	INTCON2bits.TMR0IP = 1;		// high priority
	BSF	_INTCON2bits, 2
;	.line	1241; meter_logger.c	INTCONbits.TMR0IE = 1;		// Enable TMR0 Interrupt
	BSF	_INTCONbits, 5
;	.line	1242; meter_logger.c	INTCONbits.TMR0IF = 0;
	BCF	_INTCONbits, 2
;	.line	1244; meter_logger.c	INTCONbits.INT0IE = 1;		// enable ext int
	BSF	_INTCONbits, 4
;	.line	1245; meter_logger.c	INTCON2bits.INTEDG0 = 1;	// rising edge
	BSF	_INTCON2bits, 6
	MOVFF	PREINC1, FSR2L
	RETURN	

; ; Starting pCode block
S_meter_logger__testo_valid_err_corr	code
_testo_valid_err_corr:
;	.line	1169; meter_logger.c	unsigned char testo_valid_err_corr(unsigned int c) {
	MOVFF	FSR2L, POSTDEC1
	MOVFF	FSR1L, FSR2L
	MOVFF	r0x00, POSTDEC1
	MOVFF	r0x01, POSTDEC1
	MOVFF	r0x02, POSTDEC1
	MOVFF	r0x03, POSTDEC1
	MOVFF	r0x04, POSTDEC1
	MOVFF	r0x05, POSTDEC1
	MOVFF	r0x06, POSTDEC1
	MOVFF	r0x07, POSTDEC1
	MOVFF	r0x08, POSTDEC1
	MOVLW	0x02
	MOVFF	PLUSW2, r0x00
	MOVLW	0x03
	MOVFF	PLUSW2, r0x01
;	.line	1176; meter_logger.c	calculated_err_corr_bit = 0;
	CLRF	r0x02
;	.line	1177; meter_logger.c	for (i = 0; i < 8; i++) {
	MOVLW	0x78
	ANDWF	r0x00, W
	MOVWF	r0x03
	CLRF	r0x04
	CLRF	r0x05
_00885_DS_:
;	.line	1178; meter_logger.c	calculated_err_corr_bit ^= (((c & 0x78) & (1 << i)) != 0);   // 0b01111000
	MOVLW	0x01
	MOVWF	r0x06
	MOVLW	0x00
	MOVWF	r0x07
	MOVF	r0x05, W
	BZ	_00927_DS_
	NEGF	WREG
	BCF	STATUS, 0
_00928_DS_:
	RLCF	r0x06, F
	RLCF	r0x07, F
	ADDLW	0x01
	BNC	_00928_DS_
_00927_DS_:
	MOVF	r0x03, W
	ANDWF	r0x06, F
	MOVF	r0x04, W
	ANDWF	r0x07, F
	MOVF	r0x06, W
	BNZ	_00930_DS_
	MOVF	r0x07, W
	BNZ	_00930_DS_
	CLRF	r0x06
	INCF	r0x06, F
	BRA	_00931_DS_
_00930_DS_:
	CLRF	r0x06
_00931_DS_:
	MOVF	r0x06, W
	BSF	STATUS, 0
	TSTFSZ	WREG
	BCF	STATUS, 0
	CLRF	r0x06
	RLCF	r0x06, F
	MOVF	r0x02, W
	MOVWF	r0x07
	MOVF	r0x06, W
	XORWF	r0x07, W
	MOVWF	r0x02
;	.line	1177; meter_logger.c	for (i = 0; i < 8; i++) {
	INCF	r0x05, F
	MOVLW	0x08
	SUBWF	r0x05, W
	BNC	_00885_DS_
;	.line	1181; meter_logger.c	calculated_err_corr = calculated_err_corr << 1;
	RLNCF	r0x02, W
	ANDLW	0xfe
	MOVWF	r0x03
;	.line	1184; meter_logger.c	calculated_err_corr_bit = 0;
	CLRF	r0x02
;	.line	1185; meter_logger.c	for (i = 0; i < 8; i++) {
	MOVLW	0xe6
	ANDWF	r0x00, W
	MOVWF	r0x04
	CLRF	r0x05
	CLRF	r0x06
_00887_DS_:
;	.line	1186; meter_logger.c	calculated_err_corr_bit ^= (((c & 0xe6) & (1 << i)) != 0);   // 0b11100110
	MOVLW	0x01
	MOVWF	r0x07
	MOVLW	0x00
	MOVWF	r0x08
	MOVF	r0x06, W
	BZ	_00935_DS_
	NEGF	WREG
	BCF	STATUS, 0
_00936_DS_:
	RLCF	r0x07, F
	RLCF	r0x08, F
	ADDLW	0x01
	BNC	_00936_DS_
_00935_DS_:
	MOVF	r0x04, W
	ANDWF	r0x07, F
	MOVF	r0x05, W
	ANDWF	r0x08, F
	MOVF	r0x07, W
	BNZ	_00938_DS_
	MOVF	r0x08, W
	BNZ	_00938_DS_
	CLRF	r0x07
	INCF	r0x07, F
	BRA	_00939_DS_
_00938_DS_:
	CLRF	r0x07
_00939_DS_:
	MOVF	r0x07, W
	BSF	STATUS, 0
	TSTFSZ	WREG
	BCF	STATUS, 0
	CLRF	r0x07
	RLCF	r0x07, F
	MOVF	r0x02, W
	MOVWF	r0x08
	MOVF	r0x07, W
	XORWF	r0x08, W
	MOVWF	r0x02
;	.line	1185; meter_logger.c	for (i = 0; i < 8; i++) {
	INCF	r0x06, F
	MOVLW	0x08
	SUBWF	r0x06, W
	BNC	_00887_DS_
;	.line	1188; meter_logger.c	calculated_err_corr |= calculated_err_corr_bit;
	MOVF	r0x02, W
	IORWF	r0x03, F
;	.line	1189; meter_logger.c	calculated_err_corr = calculated_err_corr << 1;
	BCF	STATUS, 0
	RLCF	r0x03, F
;	.line	1192; meter_logger.c	calculated_err_corr_bit = 0;
	CLRF	r0x02
;	.line	1193; meter_logger.c	for (i = 0; i < 8; i++) {
	MOVLW	0xd5
	ANDWF	r0x00, W
	MOVWF	r0x04
	CLRF	r0x05
	CLRF	r0x06
_00889_DS_:
;	.line	1194; meter_logger.c	calculated_err_corr_bit ^= (((c & 0xd5) & (1 << i)) != 0);   // 0b11010101
	MOVLW	0x01
	MOVWF	r0x07
	MOVLW	0x00
	MOVWF	r0x08
	MOVF	r0x06, W
	BZ	_00944_DS_
	NEGF	WREG
	BCF	STATUS, 0
_00945_DS_:
	RLCF	r0x07, F
	RLCF	r0x08, F
	ADDLW	0x01
	BNC	_00945_DS_
_00944_DS_:
	MOVF	r0x04, W
	ANDWF	r0x07, F
	MOVF	r0x05, W
	ANDWF	r0x08, F
	MOVF	r0x07, W
	BNZ	_00947_DS_
	MOVF	r0x08, W
	BNZ	_00947_DS_
	CLRF	r0x07
	INCF	r0x07, F
	BRA	_00948_DS_
_00947_DS_:
	CLRF	r0x07
_00948_DS_:
	MOVF	r0x07, W
	BSF	STATUS, 0
	TSTFSZ	WREG
	BCF	STATUS, 0
	CLRF	r0x07
	RLCF	r0x07, F
	MOVF	r0x02, W
	MOVWF	r0x08
	MOVF	r0x07, W
	XORWF	r0x08, W
	MOVWF	r0x02
;	.line	1193; meter_logger.c	for (i = 0; i < 8; i++) {
	INCF	r0x06, F
	MOVLW	0x08
	SUBWF	r0x06, W
	BNC	_00889_DS_
;	.line	1196; meter_logger.c	calculated_err_corr |= calculated_err_corr_bit;
	MOVF	r0x02, W
	IORWF	r0x03, F
;	.line	1197; meter_logger.c	calculated_err_corr = calculated_err_corr << 1;
	BCF	STATUS, 0
	RLCF	r0x03, F
;	.line	1200; meter_logger.c	calculated_err_corr_bit = 0;
	CLRF	r0x02
;	.line	1201; meter_logger.c	for (i = 0; i < 8; i++) {
	MOVLW	0x8b
	ANDWF	r0x00, W
	MOVWF	r0x04
	CLRF	r0x05
	CLRF	r0x06
_00891_DS_:
;	.line	1202; meter_logger.c	calculated_err_corr_bit ^= (((c & 0x8b) & (1 << i)) != 0);   // 0b10001011
	MOVLW	0x01
	MOVWF	r0x07
	MOVLW	0x00
	MOVWF	r0x08
	MOVF	r0x06, W
	BZ	_00953_DS_
	NEGF	WREG
	BCF	STATUS, 0
_00954_DS_:
	RLCF	r0x07, F
	RLCF	r0x08, F
	ADDLW	0x01
	BNC	_00954_DS_
_00953_DS_:
	MOVF	r0x04, W
	ANDWF	r0x07, F
	MOVF	r0x05, W
	ANDWF	r0x08, F
	MOVF	r0x07, W
	BNZ	_00956_DS_
	MOVF	r0x08, W
	BNZ	_00956_DS_
	CLRF	r0x07
	INCF	r0x07, F
	BRA	_00957_DS_
_00956_DS_:
	CLRF	r0x07
_00957_DS_:
	MOVF	r0x07, W
	BSF	STATUS, 0
	TSTFSZ	WREG
	BCF	STATUS, 0
	CLRF	r0x07
	RLCF	r0x07, F
	MOVF	r0x02, W
	MOVWF	r0x08
	MOVF	r0x07, W
	XORWF	r0x08, W
	MOVWF	r0x02
;	.line	1201; meter_logger.c	for (i = 0; i < 8; i++) {
	INCF	r0x06, F
	MOVLW	0x08
	SUBWF	r0x06, W
	BNC	_00891_DS_
;	.line	1204; meter_logger.c	calculated_err_corr |= calculated_err_corr_bit;
	MOVF	r0x02, W
	IORWF	r0x03, F
;	.line	1215; meter_logger.c	if ((c >> 8) == calculated_err_corr) {
	MOVF	r0x01, W
	MOVWF	r0x00
	CLRF	r0x01
	CLRF	r0x02
	MOVF	r0x00, W
	XORWF	r0x03, W
	BNZ	_00961_DS_
	MOVF	r0x01, W
	XORWF	r0x02, W
	BZ	_00962_DS_
_00961_DS_:
	BRA	_00883_DS_
_00962_DS_:
;	.line	1216; meter_logger.c	return 1;
	MOVLW	0x01
	BRA	_00893_DS_
_00883_DS_:
;	.line	1219; meter_logger.c	return 0;
	CLRF	WREG
_00893_DS_:
	MOVFF	PREINC1, r0x08
	MOVFF	PREINC1, r0x07
	MOVFF	PREINC1, r0x06
	MOVFF	PREINC1, r0x05
	MOVFF	PREINC1, r0x04
	MOVFF	PREINC1, r0x03
	MOVFF	PREINC1, r0x02
	MOVFF	PREINC1, r0x01
	MOVFF	PREINC1, r0x00
	MOVFF	PREINC1, FSR2L
	RETURN	

; ; Starting pCode block
S_meter_logger__reverse	code
_reverse:
;	.line	1161; meter_logger.c	unsigned char reverse(unsigned char b) {
	MOVFF	FSR2L, POSTDEC1
	MOVFF	FSR1L, FSR2L
	MOVFF	r0x00, POSTDEC1
	MOVFF	r0x01, POSTDEC1
	MOVFF	r0x02, POSTDEC1
	MOVFF	r0x03, POSTDEC1
	MOVLW	0x02
	MOVFF	PLUSW2, r0x00
;	.line	1163; meter_logger.c	c  = ((b >>  1) & 0x55) | ((b <<  1) & 0xaa);
	RRNCF	r0x00, W
	ANDLW	0x7f
	MOVWF	r0x01
	MOVLW	0x55
	ANDWF	r0x01, F
	RLNCF	r0x00, W
	ANDLW	0xfe
	MOVWF	r0x02
	MOVLW	0xaa
	ANDWF	r0x02, F
	MOVF	r0x02, W
	IORWF	r0x01, F
;	.line	1164; meter_logger.c	c |= ((b >>  2) & 0x33) | ((b <<  2) & 0xcc);
	RRNCF	r0x00, W
	RRNCF	WREG, W
	ANDLW	0x3f
	MOVWF	r0x02
	MOVLW	0x33
	ANDWF	r0x02, F
	RLNCF	r0x00, W
	RLNCF	WREG, W
	ANDLW	0xfc
	MOVWF	r0x03
	MOVLW	0xcc
	ANDWF	r0x03, F
	MOVF	r0x03, W
	IORWF	r0x02, F
	MOVF	r0x02, W
	IORWF	r0x01, F
;	.line	1165; meter_logger.c	c |= ((b >>  4) & 0x0f) | ((b <<  4) & 0xf0);
	SWAPF	r0x00, W
	ANDLW	0x0f
	MOVWF	r0x02
	MOVLW	0x0f
	ANDWF	r0x02, F
	SWAPF	r0x00, W
	ANDLW	0xf0
	MOVWF	r0x03
	MOVLW	0xf0
	ANDWF	r0x03, W
	MOVWF	r0x00
	MOVF	r0x00, W
	IORWF	r0x02, F
	MOVF	r0x02, W
	IORWF	r0x01, F
;	.line	1166; meter_logger.c	return(c);
	MOVF	r0x01, W
	MOVFF	PREINC1, r0x03
	MOVFF	PREINC1, r0x02
	MOVFF	PREINC1, r0x01
	MOVFF	PREINC1, r0x00
	MOVFF	PREINC1, FSR2L
	RETURN	

; ; Starting pCode block
S_meter_logger__my_usart_open	code
_my_usart_open:
;	.line	1131; meter_logger.c	void my_usart_open() {
	MOVFF	FSR2L, POSTDEC1
	MOVFF	FSR1L, FSR2L
;	.line	1132; meter_logger.c	SPBRG = 103;					// 8MHz => 19230 baud
	MOVLW	0x67
	MOVWF	_SPBRG
;	.line	1133; meter_logger.c	TXSTAbits.BRGH = 1;	// (0 = low speed)
	BSF	_TXSTAbits, 2
;	.line	1134; meter_logger.c	TXSTAbits.SYNC = 0;	// (0 = asynchronous)
	BCF	_TXSTAbits, 4
;	.line	1135; meter_logger.c	BAUDCONbits.BRG16 = 1;
	BSF	_BAUDCONbits, 3
;	.line	1138; meter_logger.c	RCSTAbits.SPEN = 1; // (1 = serial port enabled)
	BSF	_RCSTAbits, 7
;	.line	1141; meter_logger.c	PIE1bits.TXIE = 0; // (1 = enabled)
	BCF	_PIE1bits, 4
;	.line	1142; meter_logger.c	IPR1bits.TXIP = 0; // USART Tx on low priority interrupt
	BCF	_IPR1bits, 4
;	.line	1145; meter_logger.c	PIE1bits.RCIE = 1; // (1 = enabled)
	BSF	_PIE1bits, 5
;	.line	1146; meter_logger.c	IPR1bits.RCIP = 0; // USART Rx on low priority interrupt
	BCF	_IPR1bits, 5
;	.line	1149; meter_logger.c	TXSTAbits.TX9 = 0; // (0 = 8-bit transmit)
	BCF	_TXSTAbits, 6
;	.line	1152; meter_logger.c	RCSTAbits.RX9 = 0; // (0 = 8-bit reception)
	BCF	_RCSTAbits, 6
;	.line	1155; meter_logger.c	RCSTAbits.CREN = 1; // (1 = Enables receiver)
	BSF	_RCSTAbits, 4
;	.line	1158; meter_logger.c	TXSTAbits.TXEN = 1; // (1 = transmit enabled)
	BSF	_TXSTAbits, 5
	MOVFF	PREINC1, FSR2L
	RETURN	

; ; Starting pCode block
S_meter_logger__get_dev_id	code
_get_dev_id:
;	.line	1114; meter_logger.c	unsigned int get_dev_id() {
	MOVFF	FSR2L, POSTDEC1
	MOVFF	FSR1L, FSR2L
	MOVFF	r0x00, POSTDEC1
	MOVFF	r0x01, POSTDEC1
	MOVFF	r0x02, POSTDEC1
	MOVFF	r0x03, POSTDEC1
	MOVFF	r0x04, POSTDEC1
	MOVFF	r0x05, POSTDEC1
;	.line	1117; meter_logger.c	TBLPTRU = __DEVID1 >> 16;
	MOVLW	0x3f
	MOVWF	_TBLPTRU
;	.line	1118; meter_logger.c	TBLPTRH = __DEVID1 >> 8;
	MOVLW	0xff
	MOVWF	_TBLPTRH
;	.line	1119; meter_logger.c	TBLPTRL = __DEVID1;
	MOVLW	0xfe
	MOVWF	_TBLPTRL
	tblrd*+
	
;	.line	1123; meter_logger.c	dev_id_low = TABLAT;
	MOVFF	_TABLAT, r0x00
	tblrd*+
	
;	.line	1127; meter_logger.c	dev_id_high = TABLAT;
	MOVFF	_TABLAT, r0x01
;	.line	1128; meter_logger.c	return ((dev_id_high << 8) + dev_id_low) & 0xffe0;	// dont return revision
	CLRF	r0x02
	MOVF	r0x01, W
	MOVWF	r0x04
	CLRF	r0x03
	CLRF	r0x05
	MOVF	r0x00, W
	ADDWF	r0x03, F
	MOVF	r0x05, W
	ADDWFC	r0x04, F
	MOVLW	0xe0
	ANDWF	r0x03, F
	MOVFF	r0x04, PRODL
	MOVF	r0x03, W
	MOVFF	PREINC1, r0x05
	MOVFF	PREINC1, r0x04
	MOVFF	PREINC1, r0x03
	MOVFF	PREINC1, r0x02
	MOVFF	PREINC1, r0x01
	MOVFF	PREINC1, r0x00
	MOVFF	PREINC1, FSR2L
	RETURN	

; ; Starting pCode block
S_meter_logger__init_system	code
_init_system:
;	.line	1013; meter_logger.c	void init_system() {
	MOVFF	FSR2L, POSTDEC1
	MOVFF	FSR1L, FSR2L
;	.line	1015; meter_logger.c	TRIS_COMP1 = INPUT_STATE;		// as input
	BSF	_TRISAbits, 0
;	.line	1016; meter_logger.c	TRIS_COMP2 = INPUT_STATE;		// as input
	BSF	_TRISAbits, 1
;	.line	1018; meter_logger.c	TRIS_IR_PIN = INPUT_STATE;		// as input
	BSF	_TRISBbits, 0
;	.line	1020; meter_logger.c	TRIS_LED_PIN = OUTPUT_STATE;	// as output
	BCF	_TRISBbits, 4
;	.line	1021; meter_logger.c	LED_PIN = 0;					// and clear
	BCF	_PORTBbits, 4
;	.line	1023; meter_logger.c	TRIS_IR_LED_PIN = OUTPUT_STATE;	// as output
	BCF	_TRISBbits, 1
;	.line	1024; meter_logger.c	IR_LED_PIN = 0;					// and clear
	BCF	_PORTBbits, 1
;	.line	1026; meter_logger.c	TRIS_V_SENSE = INPUT_STATE;		// as input
	BSF	_TRISAbits, 5
;	.line	1028; meter_logger.c	TRIS_DEBUG_PIN = OUTPUT_STATE;	// as output
	BCF	_TRISBbits, 2
;	.line	1029; meter_logger.c	DEBUG_PIN = 0;					// and clear
	BCF	_PORTBbits, 2
;	.line	1031; meter_logger.c	TRIS_DEBUG2_PIN = OUTPUT_STATE;	// as output
	BCF	_TRISBbits, 3
;	.line	1032; meter_logger.c	DEBUG2_PIN = 0;					// and clear
	BCF	_PORTBbits, 3
;	.line	1034; meter_logger.c	TRIS_DEBUG3_PIN = OUTPUT_STATE;	// as output
	BCF	_TRISBbits, 4
;	.line	1035; meter_logger.c	DEBUG3_PIN = 0;					// and clear
	BCF	_PORTBbits, 4
;	.line	1039; meter_logger.c	TRIS_PWM_PIN = OUTPUT_STATE;	// enable output from pwm module at init
	BCF	_TRISCbits, 1
;	.line	1040; meter_logger.c	PWM_PIN = 0;					// and clear
	BCF	_PORTCbits, 1
;	.line	1043; meter_logger.c	TRIS_RX_PIN = INPUT_STATE;		// as input
	BSF	_TRISCbits, 7
;	.line	1044; meter_logger.c	TRIS_TX_PIN = OUTPUT_STATE;		// as input
	BCF	_TRISCbits, 6
;	.line	1049; meter_logger.c	T1CONbits.TMR1ON = 1;
	BSF	_T1CONbits, 0
;	.line	1050; meter_logger.c	T1CONbits.RD16 = 1;
	BSF	_T1CONbits, 7
;	.line	1051; meter_logger.c	T1CONbits.TMR1CS = 0;   // internal clock source
	BCF	_T1CONbits, 1
;	.line	1052; meter_logger.c	T1CONbits.T1OSCEN = 0;  // dont put t1 on pin
	BCF	_T1CONbits, 3
;	.line	1053; meter_logger.c	T1CONbits.T1CKPS0 = 0;
	BCF	_T1CONbits, 4
;	.line	1054; meter_logger.c	T1CONbits.T1CKPS1 = 0;
	BCF	_T1CONbits, 5
;	.line	1055; meter_logger.c	IPR1bits.TMR1IP = 0;	// low priority
	BCF	_IPR1bits, 0
;	.line	1056; meter_logger.c	PIE1bits.TMR1IE = 1;	// Ensure that TMR1 Interrupt is enabled
	BSF	_PIE1bits, 0
;	.line	1057; meter_logger.c	PIR1bits.TMR1IF = 1;	// Force Instant entry to Timer 1 Interrupt
	BSF	_PIR1bits, 0
;	.line	1088; meter_logger.c	RCONbits.IPEN = 1;
	BSF	_RCONbits, 7
;	.line	1090; meter_logger.c	INTCONbits.INT0IE = 0;		// disable ext int, enabled when ir demodulator is started
	BCF	_INTCONbits, 4
;	.line	1091; meter_logger.c	INTCON2bits.INTEDG0 = 1;	// rising edge
	BSF	_INTCON2bits, 6
;	.line	1093; meter_logger.c	INTCONbits.PEIE = 1;
	BSF	_INTCONbits, 6
;	.line	1094; meter_logger.c	INTCONbits.GIE = 1;	/* Enable Global interrupts   */	
	BSF	_INTCONbits, 7
;	.line	1099; meter_logger.c	IPR1bits.RCIP = 0;
	BCF	_IPR1bits, 5
;	.line	1100; meter_logger.c	IPR1bits.TXIP = 0;
	BCF	_IPR1bits, 4
;	.line	1111; meter_logger.c	my_usart_open();
	CALL	_my_usart_open
	MOVFF	PREINC1, FSR2L
	RETURN	

; ; Starting pCode block
S_meter_logger__sleep_ms	code
_sleep_ms:
;	.line	993; meter_logger.c	void sleep_ms(unsigned int ms) {
	MOVFF	FSR2L, POSTDEC1
	MOVFF	FSR1L, FSR2L
	MOVFF	r0x00, POSTDEC1
	MOVFF	r0x01, POSTDEC1
	MOVFF	r0x02, POSTDEC1
	MOVFF	r0x03, POSTDEC1
	MOVFF	r0x04, POSTDEC1
	MOVFF	r0x05, POSTDEC1
	MOVFF	r0x06, POSTDEC1
	MOVFF	r0x07, POSTDEC1
	MOVLW	0x02
	MOVFF	PLUSW2, r0x00
	MOVLW	0x03
	MOVFF	PLUSW2, r0x01
;	.line	996; meter_logger.c	start_timer_1_ms = timer_1_ms;	
	MOVFF	_timer_1_ms, r0x02
	MOVFF	(_timer_1_ms + 1), r0x03
;	.line	999; meter_logger.c	do {
	MOVF	r0x02, W
	SUBLW	0xff
	MOVWF	r0x04
	MOVLW	0xff
	SUBFWB	r0x03, W
	MOVWF	r0x05
_00841_DS_:
;	.line	1000; meter_logger.c	if (start_timer_1_ms <= timer_1_ms) {
	MOVF	r0x03, W
	BANKSEL	(_timer_1_ms + 1)
	SUBWF	(_timer_1_ms + 1), W, B
	BNZ	_00852_DS_
	MOVF	r0x02, W
; removed redundant BANKSEL
	SUBWF	_timer_1_ms, W, B
_00852_DS_:
	BNC	_00839_DS_
;	.line	1001; meter_logger.c	diff = timer_1_ms - start_timer_1_ms;
	MOVF	r0x02, W
	BANKSEL	_timer_1_ms
	SUBWF	_timer_1_ms, W, B
	MOVWF	r0x06
	MOVF	r0x03, W
; removed redundant BANKSEL
	SUBWFB	(_timer_1_ms + 1), W, B
	MOVWF	r0x07
	BRA	_00842_DS_
_00839_DS_:
	BANKSEL	_timer_1_ms
;	.line	1005; meter_logger.c	diff = 0xffff - start_timer_1_ms + timer_1_ms;
	MOVF	_timer_1_ms, W, B
	ADDWF	r0x04, W
	MOVWF	r0x06
; removed redundant BANKSEL
	MOVF	(_timer_1_ms + 1), W, B
	ADDWFC	r0x05, W
	MOVWF	r0x07
_00842_DS_:
;	.line	1007; meter_logger.c	} while (diff < ms);
	MOVF	r0x01, W
	SUBWF	r0x07, W
	BNZ	_00853_DS_
	MOVF	r0x00, W
	SUBWF	r0x06, W
_00853_DS_:
	BNC	_00841_DS_
	MOVFF	PREINC1, r0x07
	MOVFF	PREINC1, r0x06
	MOVFF	PREINC1, r0x05
	MOVFF	PREINC1, r0x04
	MOVFF	PREINC1, r0x03
	MOVFF	PREINC1, r0x02
	MOVFF	PREINC1, r0x01
	MOVFF	PREINC1, r0x00
	MOVFF	PREINC1, FSR2L
	RETURN	

; ; Starting pCode block
S_meter_logger__isr_low_prio	code
_isr_low_prio:
;	.line	961; meter_logger.c	static void isr_low_prio(void) __interrupt 2 {
	MOVFF	STATUS, POSTDEC1
	MOVFF	BSR, POSTDEC1
	MOVWF	POSTDEC1
	MOVFF	PRODL, POSTDEC1
	MOVFF	PRODH, POSTDEC1
	MOVFF	FSR0L, POSTDEC1
	MOVFF	FSR0H, POSTDEC1
	MOVFF	PCLATH, POSTDEC1
	MOVFF	PCLATU, POSTDEC1
	MOVFF	FSR2L, POSTDEC1
	MOVFF	FSR1L, FSR2L
	MOVFF	r0x00, POSTDEC1
	MOVFF	r0x01, POSTDEC1
;	.line	964; meter_logger.c	if (PIR1bits.TMR1IF) {
	BTFSS	_PIR1bits, 0
	BRA	_00810_DS_
;	.line	965; meter_logger.c	TMR1H = (unsigned char)(TIMER1_RELOAD >> 8);    // 262,158ms @ 8MHz
	MOVLW	0xf8
	MOVWF	_TMR1H
;	.line	966; meter_logger.c	TMR1L = (unsigned char)TIMER1_RELOAD;
	MOVLW	0x53
	MOVWF	_TMR1L
;	.line	968; meter_logger.c	switch (led_flash.state) {
	MOVFF	_led_flash, r0x00
	MOVF	r0x00, W
	MOVWF	r0x01
	MOVF	r0x01, W
	BZ	_00804_DS_
	MOVF	r0x00, W
	XORLW	0x01
	BZ	_00805_DS_
	BRA	_00808_DS_
_00804_DS_:
;	.line	970; meter_logger.c	LED_PIN = 1;
	BSF	_PORTBbits, 4
;	.line	971; meter_logger.c	led_flash.state = LED_FLASH_RUNNING;
	MOVLW	0x01
	BANKSEL	_led_flash
	MOVWF	_led_flash, B
;	.line	972; meter_logger.c	break;
	BRA	_00808_DS_
_00805_DS_:
;	.line	974; meter_logger.c	if (led_flash.timer-- == 0) {
	MOVFF	(_led_flash + 1), r0x00
	DECF	r0x00, W
	MOVWF	r0x01
	MOVF	r0x01, W
	BANKSEL	(_led_flash + 1)
	MOVWF	(_led_flash + 1), B
	MOVF	r0x00, W
	BNZ	_00808_DS_
;	.line	975; meter_logger.c	LED_PIN = 0;
	BCF	_PORTBbits, 4
;	.line	976; meter_logger.c	led_flash.state = LED_FLASH_STOPPED;
	MOVLW	0x02
; removed redundant BANKSEL
	MOVWF	_led_flash, B
_00808_DS_:
	BANKSEL	_timer_1_ms
;	.line	980; meter_logger.c	timer_1_ms++;
	INCFSZ	_timer_1_ms, F, B
	BRA	_31210_DS_
; removed redundant BANKSEL
	INCF	(_timer_1_ms + 1), F, B
_31210_DS_:
;	.line	981; meter_logger.c	PIR1bits.TMR1IF = 0;    /* Clear the Timer Flag  */
	BCF	_PIR1bits, 0
_00810_DS_:
;	.line	985; meter_logger.c	if (usart_drdy()) {
	CALL	_usart_drdy
	MOVWF	r0x00
	MOVF	r0x00, W
	BZ	_00813_DS_
;	.line	987; meter_logger.c	c = usart_getc();
	CALL	_usart_getc
	MOVWF	r0x00
;	.line	988; meter_logger.c	usart_putc(c);
	MOVF	r0x00, W
	CALL	_usart_putc
_00813_DS_:
	MOVFF	PREINC1, r0x01
	MOVFF	PREINC1, r0x00
	MOVFF	PREINC1, FSR2L
	MOVFF	PREINC1, PCLATU
	MOVFF	PREINC1, PCLATH
	MOVFF	PREINC1, FSR0H
	MOVFF	PREINC1, FSR0L
	MOVFF	PREINC1, PRODH
	MOVFF	PREINC1, PRODL
	MOVF	PREINC1, W
	MOVFF	PREINC1, BSR
	MOVFF	PREINC1, STATUS
	RETFIE	

; ; Starting pCode block
S_meter_logger__isr_high_prio	code
_isr_high_prio:
;	.line	491; meter_logger.c	static void isr_high_prio(void) __interrupt 1 {
	MOVFF	STATUS, POSTDEC1
	MOVFF	BSR, POSTDEC1
	MOVWF	POSTDEC1
	MOVFF	PRODL, POSTDEC1
	MOVFF	PRODH, POSTDEC1
	MOVFF	FSR0L, POSTDEC1
	MOVFF	FSR0H, POSTDEC1
	MOVFF	PCLATH, POSTDEC1
	MOVFF	PCLATU, POSTDEC1
	MOVFF	FSR2L, POSTDEC1
	MOVFF	FSR1L, FSR2L
	MOVFF	r0x00, POSTDEC1
	MOVFF	r0x01, POSTDEC1
	MOVFF	r0x02, POSTDEC1
	MOVFF	r0x03, POSTDEC1
	MOVFF	r0x04, POSTDEC1
	MOVFF	r0x05, POSTDEC1
;	.line	493; meter_logger.c	if (INTCONbits.INT0IF && INTCONbits.INT0IE) {
	BTFSS	_INTCONbits, 1
	BRA	_00389_DS_
	BTFSS	_INTCONbits, 4
	BRA	_00389_DS_
;	.line	494; meter_logger.c	timer_0 = (unsigned int)(TMR0L) | ((unsigned int)(TMR0H) << 8);
	MOVFF	_TMR0L, r0x00
	CLRF	r0x01
	MOVFF	_TMR0H, r0x02
	CLRF	r0x03
	MOVF	r0x02, W
	MOVWF	r0x05
	CLRF	r0x04
	MOVF	r0x04, W
	IORWF	r0x00, W
	BANKSEL	_timer_0
	MOVWF	_timer_0, B
	MOVF	r0x05, W
	IORWF	r0x01, W
; removed redundant BANKSEL
	MOVWF	(_timer_0 + 1), B
	BANKSEL	(_timer0_reload + 1)
;	.line	495; meter_logger.c	TMR0H = (unsigned char)(timer0_reload >> 8);
	MOVF	(_timer0_reload + 1), W, B
	MOVWF	r0x00
	CLRF	r0x01
	MOVF	r0x00, W
	MOVWF	_TMR0H
; removed redundant BANKSEL
;	.line	496; meter_logger.c	TMR0L = (unsigned char)timer0_reload;
	MOVF	_timer0_reload, W, B
	MOVWF	_TMR0L
	BANKSEL	_codec_type
;	.line	498; meter_logger.c	switch (codec_type) {
	MOVF	_codec_type, W, B
	XORLW	0x01
	BZ	_00347_DS_
_00694_DS_:
	BANKSEL	_codec_type
	MOVF	_codec_type, W, B
	XORLW	0x02
	BNZ	_00696_DS_
	BRA	_00381_DS_
_00696_DS_:
	BANKSEL	_codec_type
	MOVF	_codec_type, W, B
	XORLW	0x04
	BNZ	_00698_DS_
	BRA	_00384_DS_
_00698_DS_:
	BRA	_00387_DS_
_00347_DS_:
;	.line	500; meter_logger.c	flash_led(100);
	MOVLW	0x64
	MOVWF	POSTDEC1
	CALL	_flash_led
	MOVF	POSTINC1, F
;	.line	501; meter_logger.c	switch (testo_ir_proto.state) {
	MOVFF	_testo_ir_proto, r0x00
	MOVF	r0x00, W
	MOVWF	r0x01
	MOVF	r0x01, W
	BZ	_00348_DS_
	MOVF	r0x00, W
	XORLW	0x02
	BZ	_00349_DS_
	MOVF	r0x00, W
	XORLW	0x04
	BNZ	_00704_DS_
	BRA	_00357_DS_
_00704_DS_:
	BRA	_00387_DS_
_00348_DS_:
;	.line	503; meter_logger.c	T0CONbits.TMR0ON = 1;		// Start TMR0
	BSF	_T0CONbits, 7
;	.line	504; meter_logger.c	testo_ir_proto.start_bit_len = 1;
	MOVLW	0x01
	BANKSEL	(_testo_ir_proto + 2)
	MOVWF	(_testo_ir_proto + 2), B
;	.line	505; meter_logger.c	testo_ir_proto.state = START_BIT_WAIT;
	MOVLW	0x02
; removed redundant BANKSEL
	MOVWF	_testo_ir_proto, B
;	.line	506; meter_logger.c	break;
	BRA	_00387_DS_
_00349_DS_:
	BANKSEL	_timer0_reload
;	.line	508; meter_logger.c	if ((TICK + timer0_reload - TICK_ADJ < timer_0) && (timer_0 < TICK + timer0_reload + TICK_ADJ)) {
	MOVF	_timer0_reload, W, B
	ADDLW	0x8f
	MOVWF	r0x00
	MOVLW	0x02
; removed redundant BANKSEL
	ADDWFC	(_timer0_reload + 1), W, B
	MOVWF	r0x01
	BANKSEL	(_timer_0 + 1)
	MOVF	(_timer_0 + 1), W, B
	SUBWF	r0x01, W
	BNZ	_00705_DS_
; removed redundant BANKSEL
	MOVF	_timer_0, W, B
	SUBWF	r0x00, W
_00705_DS_:
	BC	_00354_DS_
	BANKSEL	_timer0_reload
	MOVF	_timer0_reload, W, B
	ADDLW	0x1f
	MOVWF	r0x00
	MOVLW	0x04
; removed redundant BANKSEL
	ADDWFC	(_timer0_reload + 1), W, B
	MOVWF	r0x01
	MOVF	r0x01, W
	BANKSEL	(_timer_0 + 1)
	SUBWF	(_timer_0 + 1), W, B
	BNZ	_00706_DS_
	MOVF	r0x00, W
; removed redundant BANKSEL
	SUBWF	_timer_0, W, B
_00706_DS_:
	BC	_00354_DS_
;	.line	509; meter_logger.c	if (testo_ir_proto.start_bit_len < 2) {
	MOVLW	0x02
	BANKSEL	(_testo_ir_proto + 2)
	SUBWF	(_testo_ir_proto + 2), W, B
	BC	_00351_DS_
;	.line	510; meter_logger.c	testo_ir_proto.start_bit_len++;
	MOVFF	(_testo_ir_proto + 2), r0x00
	INCF	r0x00, F
	MOVF	r0x00, W
; removed redundant BANKSEL
	MOVWF	(_testo_ir_proto + 2), B
	BRA	_00387_DS_
_00351_DS_:
	BANKSEL	(_testo_ir_proto + 3)
;	.line	514; meter_logger.c	testo_ir_proto.data = 0;
	CLRF	(_testo_ir_proto + 3), B
; removed redundant BANKSEL
	CLRF	(_testo_ir_proto + 4), B
; removed redundant BANKSEL
;	.line	515; meter_logger.c	testo_ir_proto.data_len = 0;
	CLRF	(_testo_ir_proto + 5), B
;	.line	516; meter_logger.c	testo_ir_proto.state = DATA_WAIT;
	MOVLW	0x04
; removed redundant BANKSEL
	MOVWF	_testo_ir_proto, B
	BRA	_00387_DS_
_00354_DS_:
;	.line	521; meter_logger.c	testo_ir_proto.start_bit_len = 1;
	MOVLW	0x01
	BANKSEL	(_testo_ir_proto + 2)
	MOVWF	(_testo_ir_proto + 2), B
;	.line	522; meter_logger.c	testo_ir_proto.state = START_BIT_WAIT;
	MOVLW	0x02
; removed redundant BANKSEL
	MOVWF	_testo_ir_proto, B
;	.line	524; meter_logger.c	break;
	BRA	_00387_DS_
_00357_DS_:
;	.line	526; meter_logger.c	if (testo_ir_proto.data_len <= 12) {
	MOVLW	0x0d
	BANKSEL	(_testo_ir_proto + 5)
	SUBWF	(_testo_ir_proto + 5), W, B
	BTFSC	STATUS, 0
	BRA	_00387_DS_
	BANKSEL	_timer0_reload
;	.line	527; meter_logger.c	if (((TICK + timer0_reload - TICK_ADJ < timer_0) && (timer_0 < TICK + timer0_reload + TICK_ADJ)) || ((3 * TICK + timer0_reload - TICK_ADJ < timer_0) && (timer_0 < 3 * TICK + timer0_reload + TICK_ADJ))) {
	MOVF	_timer0_reload, W, B
	ADDLW	0x8f
	MOVWF	r0x00
	MOVLW	0x02
; removed redundant BANKSEL
	ADDWFC	(_timer0_reload + 1), W, B
	MOVWF	r0x01
	BANKSEL	(_timer_0 + 1)
	MOVF	(_timer_0 + 1), W, B
	SUBWF	r0x01, W
	BNZ	_00709_DS_
; removed redundant BANKSEL
	MOVF	_timer_0, W, B
	SUBWF	r0x00, W
_00709_DS_:
	BC	_00373_DS_
	BANKSEL	_timer0_reload
	MOVF	_timer0_reload, W, B
	ADDLW	0x1f
	MOVWF	r0x00
	MOVLW	0x04
; removed redundant BANKSEL
	ADDWFC	(_timer0_reload + 1), W, B
	MOVWF	r0x01
	MOVF	r0x01, W
	BANKSEL	(_timer_0 + 1)
	SUBWF	(_timer_0 + 1), W, B
	BNZ	_00710_DS_
	MOVF	r0x00, W
; removed redundant BANKSEL
	SUBWF	_timer_0, W, B
_00710_DS_:
	BNC	_00368_DS_
_00373_DS_:
	BANKSEL	_timer0_reload
	MOVF	_timer0_reload, W, B
	ADDLW	0x3d
	MOVWF	r0x00
	MOVLW	0x09
; removed redundant BANKSEL
	ADDWFC	(_timer0_reload + 1), W, B
	MOVWF	r0x01
	BANKSEL	(_timer_0 + 1)
	MOVF	(_timer_0 + 1), W, B
	SUBWF	r0x01, W
	BNZ	_00711_DS_
; removed redundant BANKSEL
	MOVF	_timer_0, W, B
	SUBWF	r0x00, W
_00711_DS_:
	BC	_00369_DS_
	BANKSEL	_timer0_reload
	MOVF	_timer0_reload, W, B
	ADDLW	0xcd
	MOVWF	r0x00
	MOVLW	0x0a
; removed redundant BANKSEL
	ADDWFC	(_timer0_reload + 1), W, B
	MOVWF	r0x01
	MOVF	r0x01, W
	BANKSEL	(_timer_0 + 1)
	SUBWF	(_timer_0 + 1), W, B
	BNZ	_00712_DS_
	MOVF	r0x00, W
; removed redundant BANKSEL
	SUBWF	_timer_0, W, B
_00712_DS_:
	BC	_00369_DS_
_00368_DS_:
	BANKSEL	(_testo_ir_proto + 3)
;	.line	529; meter_logger.c	if ((testo_ir_proto.data & 1) != 0) {
	BTFSS	(_testo_ir_proto + 3), 0
	BRA	_00359_DS_
; removed redundant BANKSEL
;	.line	531; meter_logger.c	testo_ir_proto.data <<= 1;		// bitshift once to left
	MOVF	(_testo_ir_proto + 3), W, B
	MOVWF	r0x00
	ADDWF	r0x00, F
; removed redundant BANKSEL
	RLCF	(_testo_ir_proto + 4), W, B
	MOVWF	r0x01
	MOVF	r0x00, W
; removed redundant BANKSEL
	MOVWF	(_testo_ir_proto + 3), B
	MOVF	r0x01, W
; removed redundant BANKSEL
	MOVWF	(_testo_ir_proto + 4), B
	BRA	_00360_DS_
_00359_DS_:
	BANKSEL	(_testo_ir_proto + 3)
;	.line	536; meter_logger.c	testo_ir_proto.data <<= 1;		// bitshift once to left
	MOVF	(_testo_ir_proto + 3), W, B
	MOVWF	r0x00
	ADDWF	r0x00, F
; removed redundant BANKSEL
	RLCF	(_testo_ir_proto + 4), W, B
	MOVWF	r0x01
	MOVF	r0x00, W
; removed redundant BANKSEL
	MOVWF	(_testo_ir_proto + 3), B
	MOVF	r0x01, W
; removed redundant BANKSEL
	MOVWF	(_testo_ir_proto + 4), B
;	.line	537; meter_logger.c	testo_ir_proto.data |= 1;	// and set bit 0
	MOVLW	0x01
; removed redundant BANKSEL
	IORWF	(_testo_ir_proto + 3), W, B
	MOVWF	r0x00
; removed redundant BANKSEL
	MOVF	(_testo_ir_proto + 4), W, B
	MOVWF	r0x01
	MOVF	r0x00, W
; removed redundant BANKSEL
	MOVWF	(_testo_ir_proto + 3), B
	MOVF	r0x01, W
; removed redundant BANKSEL
	MOVWF	(_testo_ir_proto + 4), B
_00360_DS_:
;	.line	539; meter_logger.c	testo_ir_proto.data_len++;
	MOVFF	(_testo_ir_proto + 5), r0x00
	INCF	r0x00, F
	MOVF	r0x00, W
	BANKSEL	(_testo_ir_proto + 5)
	MOVWF	(_testo_ir_proto + 5), B
	BRA	_00370_DS_
_00369_DS_:
	BANKSEL	_timer0_reload
;	.line	541; meter_logger.c	else if ((2 * TICK + timer0_reload - TICK_ADJ < timer_0) && (timer_0 < 2 * TICK + timer0_reload + TICK_ADJ)) {
	MOVF	_timer0_reload, W, B
	ADDLW	0xe6
	MOVWF	r0x00
	MOVLW	0x05
; removed redundant BANKSEL
	ADDWFC	(_timer0_reload + 1), W, B
	MOVWF	r0x01
	BANKSEL	(_timer_0 + 1)
	MOVF	(_timer_0 + 1), W, B
	SUBWF	r0x01, W
	BNZ	_00715_DS_
; removed redundant BANKSEL
	MOVF	_timer_0, W, B
	SUBWF	r0x00, W
_00715_DS_:
	BC	_00365_DS_
	BANKSEL	_timer0_reload
	MOVF	_timer0_reload, W, B
	ADDLW	0x76
	MOVWF	r0x00
	MOVLW	0x07
; removed redundant BANKSEL
	ADDWFC	(_timer0_reload + 1), W, B
	MOVWF	r0x01
	MOVF	r0x01, W
	BANKSEL	(_timer_0 + 1)
	SUBWF	(_timer_0 + 1), W, B
	BNZ	_00716_DS_
	MOVF	r0x00, W
; removed redundant BANKSEL
	SUBWF	_timer_0, W, B
_00716_DS_:
	BC	_00365_DS_
	BANKSEL	(_testo_ir_proto + 3)
;	.line	543; meter_logger.c	if ((testo_ir_proto.data & 1) != 0) {
	BTFSS	(_testo_ir_proto + 3), 0
	BRA	_00362_DS_
; removed redundant BANKSEL
;	.line	545; meter_logger.c	testo_ir_proto.data <<= 1;		// bitshift once to left
	MOVF	(_testo_ir_proto + 3), W, B
	MOVWF	r0x00
	ADDWF	r0x00, F
; removed redundant BANKSEL
	RLCF	(_testo_ir_proto + 4), W, B
	MOVWF	r0x01
	MOVF	r0x00, W
; removed redundant BANKSEL
	MOVWF	(_testo_ir_proto + 3), B
	MOVF	r0x01, W
; removed redundant BANKSEL
	MOVWF	(_testo_ir_proto + 4), B
;	.line	546; meter_logger.c	testo_ir_proto.data |= 1;	// and set bit 0
	MOVLW	0x01
; removed redundant BANKSEL
	IORWF	(_testo_ir_proto + 3), W, B
	MOVWF	r0x00
; removed redundant BANKSEL
	MOVF	(_testo_ir_proto + 4), W, B
	MOVWF	r0x01
	MOVF	r0x00, W
; removed redundant BANKSEL
	MOVWF	(_testo_ir_proto + 3), B
	MOVF	r0x01, W
; removed redundant BANKSEL
	MOVWF	(_testo_ir_proto + 4), B
	BRA	_00363_DS_
_00362_DS_:
	BANKSEL	(_testo_ir_proto + 3)
;	.line	550; meter_logger.c	testo_ir_proto.data <<= 1;		// bitshift once to left
	MOVF	(_testo_ir_proto + 3), W, B
	MOVWF	r0x00
	ADDWF	r0x00, F
; removed redundant BANKSEL
	RLCF	(_testo_ir_proto + 4), W, B
	MOVWF	r0x01
	MOVF	r0x00, W
; removed redundant BANKSEL
	MOVWF	(_testo_ir_proto + 3), B
	MOVF	r0x01, W
; removed redundant BANKSEL
	MOVWF	(_testo_ir_proto + 4), B
_00363_DS_:
;	.line	553; meter_logger.c	testo_ir_proto.data_len++;
	MOVFF	(_testo_ir_proto + 5), r0x00
	INCF	r0x00, F
	MOVF	r0x00, W
	BANKSEL	(_testo_ir_proto + 5)
	MOVWF	(_testo_ir_proto + 5), B
	BRA	_00370_DS_
_00365_DS_:
;	.line	558; meter_logger.c	testo_ir_proto.start_bit_len = 1;
	MOVLW	0x01
	BANKSEL	(_testo_ir_proto + 2)
	MOVWF	(_testo_ir_proto + 2), B
;	.line	559; meter_logger.c	testo_ir_proto.state = START_BIT_WAIT;
	MOVLW	0x02
; removed redundant BANKSEL
	MOVWF	_testo_ir_proto, B
_00370_DS_:
	BANKSEL	(_testo_ir_proto + 5)
;	.line	561; meter_logger.c	if (testo_ir_proto.data_len == 12) {
	MOVF	(_testo_ir_proto + 5), W, B
	XORLW	0x0c
	BZ	_00720_DS_
	BRA	_00387_DS_
_00720_DS_:
	BANKSEL	(_testo_ir_proto + 4)
;	.line	564; meter_logger.c	if (testo_valid_err_corr(testo_ir_proto.data & 0xffff)) {
	MOVF	(_testo_ir_proto + 4), W, B
	MOVWF	POSTDEC1
; removed redundant BANKSEL
	MOVF	(_testo_ir_proto + 3), W, B
	MOVWF	POSTDEC1
	CALL	_testo_valid_err_corr
	MOVWF	r0x00
	MOVF	POSTINC1, F
	MOVF	POSTINC1, F
	MOVF	r0x00, W
	BZ	_00375_DS_
	BANKSEL	(_testo_ir_proto + 3)
;	.line	566; meter_logger.c	fifo_put(testo_ir_proto.data & 0xff);
	MOVF	(_testo_ir_proto + 3), W, B
	MOVWF	r0x00
	CLRF	r0x01
	MOVF	r0x00, W
	MOVWF	POSTDEC1
	CALL	_fifo_put
	MOVF	POSTINC1, F
;	.line	567; meter_logger.c	LED_PIN = 1;
	BSF	_PORTBbits, 4
_00375_DS_:
	BANKSEL	_testo_ir_proto
;	.line	569; meter_logger.c	testo_ir_proto.state = INIT_STATE;
	CLRF	_testo_ir_proto, B
;	.line	574; meter_logger.c	break;
	BRA	_00387_DS_
_00381_DS_:
	BANKSEL	_rs232_proto
;	.line	576; meter_logger.c	switch (rs232_proto.state) {
	MOVF	_rs232_proto, W, B
	XORLW	0x02
	BZ	_00723_DS_
	BRA	_00387_DS_
_00723_DS_:
	BANKSEL	_timer0_reload
;	.line	587; meter_logger.c	TMR0H = (unsigned char)((timer0_reload - ((0xffff - timer0_reload) >> 1)) >> 8);
	MOVF	_timer0_reload, W, B
	SUBLW	0xff
	MOVWF	r0x00
	MOVLW	0xff
; removed redundant BANKSEL
	SUBFWB	(_timer0_reload + 1), W, B
	MOVWF	r0x01
	BCF	STATUS, 0
	RRCF	r0x01, F
	RRCF	r0x00, F
	MOVF	r0x00, W
; removed redundant BANKSEL
	SUBWF	_timer0_reload, W, B
	MOVWF	r0x00
	MOVF	r0x01, W
; removed redundant BANKSEL
	SUBWFB	(_timer0_reload + 1), W, B
	MOVWF	r0x01
	MOVF	r0x01, W
	MOVWF	r0x00
	CLRF	r0x01
	MOVF	r0x00, W
	MOVWF	_TMR0H
; removed redundant BANKSEL
;	.line	588; meter_logger.c	TMR0L = (unsigned char)timer0_reload - ((0xffff - timer0_reload) >> 1);
	MOVF	_timer0_reload, W, B
	MOVWF	r0x00
; removed redundant BANKSEL
	MOVF	_timer0_reload, W, B
	SUBLW	0xff
	MOVWF	r0x01
	MOVLW	0xff
; removed redundant BANKSEL
	SUBFWB	(_timer0_reload + 1), W, B
	MOVWF	r0x02
	BCF	STATUS, 0
	RRCF	r0x02, F
	RRCF	r0x01, F
	MOVF	r0x01, W
	SUBWF	r0x00, W
	MOVWF	_TMR0L
;	.line	589; meter_logger.c	INTCONbits.INT0IE = 0;		// disable ext int while we are using timer to receive data bits
	BCF	_INTCONbits, 4
;	.line	590; meter_logger.c	T0CONbits.TMR0ON = 1;		// Start TMR0
	BSF	_T0CONbits, 7
;	.line	591; meter_logger.c	rs232_proto.state = DATA_WAIT;
	MOVLW	0x04
	BANKSEL	_rs232_proto
	MOVWF	_rs232_proto, B
;	.line	594; meter_logger.c	break;
	BRA	_00387_DS_
_00384_DS_:
	BANKSEL	_rs232_proto
;	.line	596; meter_logger.c	switch (rs232_proto.state) {
	MOVF	_rs232_proto, W, B
	XORLW	0x02
	BNZ	_00387_DS_
_00725_DS_:
	BANKSEL	_timer0_reload
;	.line	607; meter_logger.c	TMR0H = (unsigned char)((timer0_reload - ((0xffff - timer0_reload) >> 1)) >> 8);
	MOVF	_timer0_reload, W, B
	SUBLW	0xff
	MOVWF	r0x00
	MOVLW	0xff
; removed redundant BANKSEL
	SUBFWB	(_timer0_reload + 1), W, B
	MOVWF	r0x01
	BCF	STATUS, 0
	RRCF	r0x01, F
	RRCF	r0x00, F
	MOVF	r0x00, W
; removed redundant BANKSEL
	SUBWF	_timer0_reload, W, B
	MOVWF	r0x00
	MOVF	r0x01, W
; removed redundant BANKSEL
	SUBWFB	(_timer0_reload + 1), W, B
	MOVWF	r0x01
	MOVF	r0x01, W
	MOVWF	r0x00
	CLRF	r0x01
	MOVF	r0x00, W
	MOVWF	_TMR0H
; removed redundant BANKSEL
;	.line	608; meter_logger.c	TMR0L = (unsigned char)timer0_reload - ((0xffff - timer0_reload) >> 1);
	MOVF	_timer0_reload, W, B
	MOVWF	r0x00
; removed redundant BANKSEL
	MOVF	_timer0_reload, W, B
	SUBLW	0xff
	MOVWF	r0x01
	MOVLW	0xff
; removed redundant BANKSEL
	SUBFWB	(_timer0_reload + 1), W, B
	MOVWF	r0x02
	BCF	STATUS, 0
	RRCF	r0x02, F
	RRCF	r0x01, F
	MOVF	r0x01, W
	SUBWF	r0x00, W
	MOVWF	_TMR0L
;	.line	609; meter_logger.c	INTCONbits.INT0IE = 0;		// disable ext int while we are using timer to receive data bits
	BCF	_INTCONbits, 4
;	.line	610; meter_logger.c	T0CONbits.TMR0ON = 1;		// Start TMR0
	BSF	_T0CONbits, 7
;	.line	611; meter_logger.c	rs232_proto.state = DATA_WAIT;
	MOVLW	0x04
	BANKSEL	_rs232_proto
	MOVWF	_rs232_proto, B
_00387_DS_:
;	.line	616; meter_logger.c	INTCONbits.INT0IF = 0;	/* Clear Interrupt Flag */
	BCF	_INTCONbits, 1
_00389_DS_:
;	.line	620; meter_logger.c	if (INTCONbits.TMR0IF && INTCONbits.TMR0IE) {
	BTFSS	_INTCONbits, 2
	GOTO	_00464_DS_
	BTFSS	_INTCONbits, 5
	GOTO	_00464_DS_
	BANKSEL	(_timer0_reload + 1)
;	.line	622; meter_logger.c	TMR0H = (unsigned char)(timer0_reload >> 8);
	MOVF	(_timer0_reload + 1), W, B
	MOVWF	r0x00
	CLRF	r0x01
	MOVF	r0x00, W
	MOVWF	_TMR0H
; removed redundant BANKSEL
;	.line	623; meter_logger.c	TMR0L = (unsigned char)timer0_reload;
	MOVF	_timer0_reload, W, B
	MOVWF	_TMR0L
;	.line	625; meter_logger.c	switch (codec_type) {
	MOVLW	0x01
	BANKSEL	_codec_type
	SUBWF	_codec_type, W, B
	BTFSS	STATUS, 0
	GOTO	_00462_DS_
	MOVLW	0x08
; removed redundant BANKSEL
	SUBWF	_codec_type, W, B
	BTFSC	STATUS, 0
	GOTO	_00462_DS_
; removed redundant BANKSEL
	DECF	_codec_type, W, B
	MOVWF	r0x00
	CLRF	PCLATH
	CLRF	PCLATU
	RLCF	r0x00, W
	RLCF	PCLATH, F
	RLCF	WREG, W
	RLCF	PCLATH, F
	ANDLW	0xfc
	ADDLW	LOW(_00728_DS_)
	MOVWF	POSTDEC1
	MOVLW	HIGH(_00728_DS_)
	ADDWFC	PCLATH, F
	MOVLW	UPPER(_00728_DS_)
	ADDWFC	PCLATU, F
	MOVF	PREINC1, W
	MOVWF	PCL
_00728_DS_:
	GOTO	_00391_DS_
	GOTO	_00403_DS_
	GOTO	_00392_DS_
	GOTO	_00424_DS_
	GOTO	_00413_DS_
	GOTO	_00435_DS_
	GOTO	_00446_DS_
_00391_DS_:
;	.line	627; meter_logger.c	T0CONbits.TMR0ON = 0;			// Stop TMR0
	BCF	_T0CONbits, 7
	BANKSEL	_testo_ir_proto
;	.line	628; meter_logger.c	testo_ir_proto.state = INIT_STATE;
	CLRF	_testo_ir_proto, B
	sleep 
;	.line	630; meter_logger.c	break;
	BRA	_00462_DS_
_00392_DS_:
;	.line	632; meter_logger.c	switch (rs232_proto.state) {
	MOVFF	_rs232_proto, r0x00
	MOVF	r0x00, W
	MOVWF	r0x01
	MOVF	r0x01, W
	BZ	_00393_DS_
	MOVF	r0x00, W
	XORLW	0x03
	BZ	_00396_DS_
	MOVF	r0x00, W
	XORLW	0x0a
	BZ	_00400_DS_
	MOVF	r0x00, W
	XORLW	0x0b
	BZ	_00401_DS_
	BRA	_00462_DS_
_00393_DS_:
	BANKSEL	(_rs232_proto + 3)
;	.line	634; meter_logger.c	if (rs232_proto.data_len == 8) {
	MOVF	(_rs232_proto + 3), W, B
	XORLW	0x08
	BZ	_00738_DS_
	BRA	_00462_DS_
_00738_DS_:
;	.line	635; meter_logger.c	IR_LED_PIN = 1;		// inverted rs232 output on ir, start bit = ir light
	BSF	_PORTBbits, 1
;	.line	636; meter_logger.c	rs232_proto.state = START_BIT_SENT;
	MOVLW	0x03
	BANKSEL	_rs232_proto
	MOVWF	_rs232_proto, B
;	.line	638; meter_logger.c	break;
	BRA	_00462_DS_
_00396_DS_:
;	.line	640; meter_logger.c	if (rs232_proto.data_len >= 1) {
	MOVLW	0x01
	BANKSEL	(_rs232_proto + 3)
	SUBWF	(_rs232_proto + 3), W, B
	BNC	_00398_DS_
;	.line	641; meter_logger.c	IR_LED_PIN = (rs232_proto.data & 1) == 0;	// inverted rs232 output on ir
	MOVLW	0x01
; removed redundant BANKSEL
	ANDWF	(_rs232_proto + 2), W, B
	MOVWF	r0x00
	MOVF	r0x00, W
	BSF	STATUS, 0
	TSTFSZ	WREG
	BCF	STATUS, 0
	CLRF	r0x00
	RLCF	r0x00, F
	MOVF	r0x00, W
	ANDLW	0x01
	RLNCF	WREG, W
	MOVWF	PRODH
	MOVF	_PORTBbits, W
	ANDLW	0xfd
	IORWF	PRODH, W
	MOVWF	_PORTBbits
; removed redundant BANKSEL
;	.line	642; meter_logger.c	rs232_proto.data = rs232_proto.data >> 1;
	RRNCF	(_rs232_proto + 2), W, B
	ANDLW	0x7f
	MOVWF	r0x00
	MOVF	r0x00, W
; removed redundant BANKSEL
	MOVWF	(_rs232_proto + 2), B
;	.line	643; meter_logger.c	rs232_proto.data_len--;
	MOVFF	(_rs232_proto + 3), r0x00
	DECF	r0x00, F
	MOVF	r0x00, W
; removed redundant BANKSEL
	MOVWF	(_rs232_proto + 3), B
	BRA	_00462_DS_
_00398_DS_:
;	.line	646; meter_logger.c	IR_LED_PIN = 0;								// inverted rs232 output on ir					
	BCF	_PORTBbits, 1
;	.line	647; meter_logger.c	rs232_proto.state = STOP_BIT_SENT;
	MOVLW	0x0a
	BANKSEL	_rs232_proto
	MOVWF	_rs232_proto, B
;	.line	649; meter_logger.c	break;
	BRA	_00462_DS_
_00400_DS_:
;	.line	651; meter_logger.c	IR_LED_PIN = 0;									// inverted rs232 output on ir
	BCF	_PORTBbits, 1
;	.line	652; meter_logger.c	rs232_proto.state = STOP_BIT2_SENT;
	MOVLW	0x0b
	BANKSEL	_rs232_proto
	MOVWF	_rs232_proto, B
;	.line	653; meter_logger.c	break;
	BRA	_00462_DS_
_00401_DS_:
;	.line	655; meter_logger.c	IR_LED_PIN = 0;									// inverted rs232 output on ir
	BCF	_PORTBbits, 1
	BANKSEL	_rs232_proto
;	.line	656; meter_logger.c	rs232_proto.state = INIT_STATE;
	CLRF	_rs232_proto, B
;	.line	657; meter_logger.c	T0CONbits.TMR0ON = 0;							// stop timer 0
	BCF	_T0CONbits, 7
;	.line	660; meter_logger.c	break;
	BRA	_00462_DS_
_00403_DS_:
;	.line	662; meter_logger.c	switch (rs232_proto.state) {
	MOVFF	_rs232_proto, r0x00
	MOVF	r0x00, W
	XORLW	0x04
	BZ	_00404_DS_
	MOVF	r0x00, W
	XORLW	0x08
	BZ	_00411_DS_
	BRA	_00462_DS_
_00404_DS_:
;	.line	664; meter_logger.c	rs232_proto.data_len++;
	MOVFF	(_rs232_proto + 3), r0x00
	INCF	r0x00, F
	MOVF	r0x00, W
	BANKSEL	(_rs232_proto + 3)
	MOVWF	(_rs232_proto + 3), B
;	.line	665; meter_logger.c	if (rs232_proto.data_len <= 8) {
	MOVLW	0x09
; removed redundant BANKSEL
	SUBWF	(_rs232_proto + 3), W, B
	BC	_00409_DS_
;	.line	666; meter_logger.c	if (IR_PIN) {		
	BTFSS	_PORTBbits, 0
	BRA	_00406_DS_
; removed redundant BANKSEL
;	.line	668; meter_logger.c	rs232_proto.data >>= 1;
	RRNCF	(_rs232_proto + 2), W, B
	ANDLW	0x7f
	MOVWF	r0x00
	MOVF	r0x00, W
; removed redundant BANKSEL
	MOVWF	(_rs232_proto + 2), B
	BRA	_00462_DS_
_00406_DS_:
	BANKSEL	(_rs232_proto + 2)
;	.line	680; meter_logger.c	rs232_proto.data >>= 1;
	RRNCF	(_rs232_proto + 2), W, B
	ANDLW	0x7f
	MOVWF	r0x00
	MOVF	r0x00, W
; removed redundant BANKSEL
	MOVWF	(_rs232_proto + 2), B
;	.line	681; meter_logger.c	rs232_proto.data |= 0x80;
	MOVLW	0x80
; removed redundant BANKSEL
	IORWF	(_rs232_proto + 2), W, B
	MOVWF	r0x00
	MOVF	r0x00, W
; removed redundant BANKSEL
	MOVWF	(_rs232_proto + 2), B
	BRA	_00462_DS_
_00409_DS_:
;	.line	703; meter_logger.c	rs232_proto.state = STOP_BIT_WAIT;
	MOVLW	0x08
	BANKSEL	_rs232_proto
	MOVWF	_rs232_proto, B
;	.line	705; meter_logger.c	break;
	BRA	_00462_DS_
_00411_DS_:
	BANKSEL	(_rs232_proto + 2)
;	.line	711; meter_logger.c	fifo_put(rs232_proto.data);
	MOVF	(_rs232_proto + 2), W, B
	MOVWF	POSTDEC1
	CALL	_fifo_put
	MOVF	POSTINC1, F
	BANKSEL	(_rs232_proto + 2)
;	.line	712; meter_logger.c	rs232_proto.data = 0;
	CLRF	(_rs232_proto + 2), B
; removed redundant BANKSEL
;	.line	713; meter_logger.c	rs232_proto.data_len = 0;
	CLRF	(_rs232_proto + 3), B
;	.line	714; meter_logger.c	rs232_proto.state = START_BIT_WAIT;
	MOVLW	0x02
; removed redundant BANKSEL
	MOVWF	_rs232_proto, B
;	.line	715; meter_logger.c	T0CONbits.TMR0ON = 0;
	BCF	_T0CONbits, 7
;	.line	716; meter_logger.c	INTCONbits.INT0IF = 0;		// dont enter ext int now
	BCF	_INTCONbits, 1
;	.line	717; meter_logger.c	INTCONbits.INT0IE = 1;		// enable ext int again
	BSF	_INTCONbits, 4
;	.line	720; meter_logger.c	break;
	BRA	_00462_DS_
_00413_DS_:
;	.line	722; meter_logger.c	switch (rs232_proto.state) {
	MOVFF	_rs232_proto, r0x00
	MOVF	r0x00, W
	MOVWF	r0x01
	MOVF	r0x01, W
	BZ	_00414_DS_
	MOVF	r0x00, W
	XORLW	0x03
	BZ	_00417_DS_
	MOVF	r0x00, W
	XORLW	0x06
	BNZ	_00752_DS_
	BRA	_00421_DS_
_00752_DS_:
	MOVF	r0x00, W
	XORLW	0x0a
	BNZ	_00754_DS_
	BRA	_00422_DS_
_00754_DS_:
	BRA	_00462_DS_
_00414_DS_:
	BANKSEL	(_rs232_proto + 3)
;	.line	724; meter_logger.c	if (rs232_proto.data_len == 7) {
	MOVF	(_rs232_proto + 3), W, B
	XORLW	0x07
	BZ	_00756_DS_
	BRA	_00462_DS_
_00756_DS_:
;	.line	725; meter_logger.c	IR_LED_PIN = 1;		// inverted rs232 output on ir, start bit = ir light
	BSF	_PORTBbits, 1
;	.line	726; meter_logger.c	rs232_proto.parity = rs232_proto.data & 1;
	MOVLW	0x01
	BANKSEL	(_rs232_proto + 2)
	ANDWF	(_rs232_proto + 2), W, B
	MOVWF	r0x00
	MOVF	r0x00, W
; removed redundant BANKSEL
	MOVWF	(_rs232_proto + 4), B
;	.line	727; meter_logger.c	rs232_proto.state = START_BIT_SENT;
	MOVLW	0x03
; removed redundant BANKSEL
	MOVWF	_rs232_proto, B
;	.line	729; meter_logger.c	break;
	BRA	_00462_DS_
_00417_DS_:
;	.line	731; meter_logger.c	if (rs232_proto.data_len >= 1) {
	MOVLW	0x01
	BANKSEL	(_rs232_proto + 3)
	SUBWF	(_rs232_proto + 3), W, B
	BNC	_00419_DS_
;	.line	732; meter_logger.c	IR_LED_PIN = (rs232_proto.data & 1) == 0;	// inverted rs232 output on ir
	MOVLW	0x01
; removed redundant BANKSEL
	ANDWF	(_rs232_proto + 2), W, B
	MOVWF	r0x00
	MOVF	r0x00, W
	BSF	STATUS, 0
	TSTFSZ	WREG
	BCF	STATUS, 0
	CLRF	r0x00
	RLCF	r0x00, F
	MOVF	r0x00, W
	ANDLW	0x01
	RLNCF	WREG, W
	MOVWF	PRODH
	MOVF	_PORTBbits, W
	ANDLW	0xfd
	IORWF	PRODH, W
	MOVWF	_PORTBbits
; removed redundant BANKSEL
;	.line	733; meter_logger.c	rs232_proto.parity ^= ((rs232_proto.data >> 1) & 1);
	MOVF	(_rs232_proto + 2), W, B
	ANDLW	0x02
	RRNCF	WREG, W
	MOVWF	r0x00
; removed redundant BANKSEL
	MOVF	(_rs232_proto + 4), W, B
	MOVWF	r0x01
	MOVF	r0x01, W
	XORWF	r0x00, F
	MOVF	r0x00, W
; removed redundant BANKSEL
	MOVWF	(_rs232_proto + 4), B
; removed redundant BANKSEL
;	.line	734; meter_logger.c	rs232_proto.data = rs232_proto.data >> 1;
	RRNCF	(_rs232_proto + 2), W, B
	ANDLW	0x7f
	MOVWF	r0x00
	MOVF	r0x00, W
; removed redundant BANKSEL
	MOVWF	(_rs232_proto + 2), B
;	.line	735; meter_logger.c	rs232_proto.data_len--;
	MOVFF	(_rs232_proto + 3), r0x00
	DECF	r0x00, F
	MOVF	r0x00, W
; removed redundant BANKSEL
	MOVWF	(_rs232_proto + 3), B
	BRA	_00462_DS_
_00419_DS_:
;	.line	738; meter_logger.c	IR_LED_PIN = (rs232_proto.parity & 1) == 0;		// inverted rs232 output on ir					
	MOVLW	0x01
	BANKSEL	(_rs232_proto + 4)
	ANDWF	(_rs232_proto + 4), W, B
	MOVWF	r0x00
	MOVF	r0x00, W
	BSF	STATUS, 0
	TSTFSZ	WREG
	BCF	STATUS, 0
	CLRF	r0x00
	RLCF	r0x00, F
	MOVF	r0x00, W
	ANDLW	0x01
	RLNCF	WREG, W
	MOVWF	PRODH
	MOVF	_PORTBbits, W
	ANDLW	0xfd
	IORWF	PRODH, W
	MOVWF	_PORTBbits
;	.line	739; meter_logger.c	rs232_proto.state = PARITY_BIT_SENT;
	MOVLW	0x06
; removed redundant BANKSEL
	MOVWF	_rs232_proto, B
;	.line	741; meter_logger.c	break;
	BRA	_00462_DS_
_00421_DS_:
;	.line	743; meter_logger.c	IR_LED_PIN = 0;									// inverted rs232 output on ir
	BCF	_PORTBbits, 1
;	.line	744; meter_logger.c	rs232_proto.state = STOP_BIT_SENT;
	MOVLW	0x0a
	BANKSEL	_rs232_proto
	MOVWF	_rs232_proto, B
;	.line	745; meter_logger.c	break;
	BRA	_00462_DS_
_00422_DS_:
;	.line	747; meter_logger.c	IR_LED_PIN = 0;									// inverted rs232 output on ir
	BCF	_PORTBbits, 1
	BANKSEL	_rs232_proto
;	.line	748; meter_logger.c	rs232_proto.state = INIT_STATE;
	CLRF	_rs232_proto, B
;	.line	749; meter_logger.c	T0CONbits.TMR0ON = 0;							// stop timer 0
	BCF	_T0CONbits, 7
;	.line	752; meter_logger.c	break;
	BRA	_00462_DS_
_00424_DS_:
;	.line	754; meter_logger.c	switch (rs232_proto.state) {
	MOVFF	_rs232_proto, r0x00
	MOVF	r0x00, W
	XORLW	0x04
	BZ	_00425_DS_
	MOVF	r0x00, W
	XORLW	0x07
	BZ	_00432_DS_
	MOVF	r0x00, W
	XORLW	0x08
	BZ	_00433_DS_
	BRA	_00462_DS_
_00425_DS_:
;	.line	756; meter_logger.c	rs232_proto.data_len++;
	MOVFF	(_rs232_proto + 3), r0x00
	INCF	r0x00, F
	MOVF	r0x00, W
	BANKSEL	(_rs232_proto + 3)
	MOVWF	(_rs232_proto + 3), B
;	.line	757; meter_logger.c	if (rs232_proto.data_len <= 7) {
	MOVLW	0x08
; removed redundant BANKSEL
	SUBWF	(_rs232_proto + 3), W, B
	BC	_00430_DS_
;	.line	758; meter_logger.c	if (IR_PIN) {		
	BTFSS	_PORTBbits, 0
	BRA	_00427_DS_
; removed redundant BANKSEL
;	.line	760; meter_logger.c	rs232_proto.data >>= 1;
	RRNCF	(_rs232_proto + 2), W, B
	ANDLW	0x7f
	MOVWF	r0x00
	MOVF	r0x00, W
; removed redundant BANKSEL
	MOVWF	(_rs232_proto + 2), B
	BRA	_00462_DS_
_00427_DS_:
	BANKSEL	(_rs232_proto + 2)
;	.line	772; meter_logger.c	rs232_proto.data >>= 1;
	RRNCF	(_rs232_proto + 2), W, B
	ANDLW	0x7f
	MOVWF	r0x00
	MOVF	r0x00, W
; removed redundant BANKSEL
	MOVWF	(_rs232_proto + 2), B
;	.line	773; meter_logger.c	rs232_proto.data |= 0x40;
	MOVLW	0x40
; removed redundant BANKSEL
	IORWF	(_rs232_proto + 2), W, B
	MOVWF	r0x00
	MOVF	r0x00, W
; removed redundant BANKSEL
	MOVWF	(_rs232_proto + 2), B
	BRA	_00462_DS_
_00430_DS_:
;	.line	795; meter_logger.c	rs232_proto.state = PARITY_BIT_WAIT;
	MOVLW	0x07
	BANKSEL	_rs232_proto
	MOVWF	_rs232_proto, B
;	.line	797; meter_logger.c	break;
	BRA	_00462_DS_
_00432_DS_:
;	.line	799; meter_logger.c	rs232_proto.state = STOP_BIT_WAIT;
	MOVLW	0x08
	BANKSEL	_rs232_proto
	MOVWF	_rs232_proto, B
;	.line	800; meter_logger.c	break;
	BRA	_00462_DS_
_00433_DS_:
	BANKSEL	(_rs232_proto + 2)
;	.line	802; meter_logger.c	fifo_put(rs232_proto.data);
	MOVF	(_rs232_proto + 2), W, B
	MOVWF	POSTDEC1
	CALL	_fifo_put
	MOVF	POSTINC1, F
	BANKSEL	(_rs232_proto + 2)
;	.line	803; meter_logger.c	rs232_proto.data = 0;
	CLRF	(_rs232_proto + 2), B
; removed redundant BANKSEL
;	.line	804; meter_logger.c	rs232_proto.data_len = 0;
	CLRF	(_rs232_proto + 3), B
;	.line	805; meter_logger.c	rs232_proto.state = START_BIT_WAIT;
	MOVLW	0x02
; removed redundant BANKSEL
	MOVWF	_rs232_proto, B
;	.line	806; meter_logger.c	T0CONbits.TMR0ON = 0;
	BCF	_T0CONbits, 7
;	.line	807; meter_logger.c	INTCONbits.INT0IF = 0;		// dont enter ext int now
	BCF	_INTCONbits, 1
;	.line	808; meter_logger.c	INTCONbits.INT0IE = 1;		// enable ext int again
	BSF	_INTCONbits, 4
;	.line	811; meter_logger.c	break;
	BRA	_00462_DS_
_00435_DS_:
;	.line	813; meter_logger.c	switch (fsk_proto.state) {
	MOVFF	_fsk_proto, r0x00
	MOVF	r0x00, W
	XORLW	0x04
	BZ	_00436_DS_
	MOVF	r0x00, W
	XORLW	0x08
	BZ	_00444_DS_
	BRA	_00462_DS_
_00436_DS_:
;	.line	815; meter_logger.c	fsk_proto.data_len++;						
	MOVFF	(_fsk_proto + 13), r0x00
	INCF	r0x00, F
	MOVF	r0x00, W
	BANKSEL	(_fsk_proto + 13)
	MOVWF	(_fsk_proto + 13), B
;	.line	816; meter_logger.c	if (fsk_proto.data_len <= 8) {
	MOVLW	0x09
; removed redundant BANKSEL
	SUBWF	(_fsk_proto + 13), W, B
	BC	_00442_DS_
;	.line	817; meter_logger.c	if ((fsk_proto.diff > 340) && (fsk_proto.diff < 476)) {
	MOVLW	0x01
; removed redundant BANKSEL
	SUBWF	(_fsk_proto + 2), W, B
	BNZ	_00775_DS_
	MOVLW	0x55
; removed redundant BANKSEL
	SUBWF	(_fsk_proto + 1), W, B
_00775_DS_:
	BNC	_00438_DS_
	MOVLW	0x01
	BANKSEL	(_fsk_proto + 2)
	SUBWF	(_fsk_proto + 2), W, B
	BNZ	_00776_DS_
	MOVLW	0xdc
; removed redundant BANKSEL
	SUBWF	(_fsk_proto + 1), W, B
_00776_DS_:
	BC	_00438_DS_
	BANKSEL	(_fsk_proto + 12)
;	.line	820; meter_logger.c	fsk_proto.data >>= 1;
	RRNCF	(_fsk_proto + 12), W, B
	ANDLW	0x7f
	MOVWF	r0x00
	MOVF	r0x00, W
; removed redundant BANKSEL
	MOVWF	(_fsk_proto + 12), B
	BRA	_00462_DS_
_00438_DS_:
	BANKSEL	(_fsk_proto + 12)
;	.line	825; meter_logger.c	fsk_proto.data >>= 1;
	RRNCF	(_fsk_proto + 12), W, B
	ANDLW	0x7f
	MOVWF	r0x00
	MOVF	r0x00, W
; removed redundant BANKSEL
	MOVWF	(_fsk_proto + 12), B
;	.line	826; meter_logger.c	fsk_proto.data |= 0x80;
	MOVLW	0x80
; removed redundant BANKSEL
	IORWF	(_fsk_proto + 12), W, B
	MOVWF	r0x00
	MOVF	r0x00, W
; removed redundant BANKSEL
	MOVWF	(_fsk_proto + 12), B
	BRA	_00462_DS_
_00442_DS_:
;	.line	834; meter_logger.c	fsk_proto.state = STOP_BIT_WAIT;
	MOVLW	0x08
	BANKSEL	_fsk_proto
	MOVWF	_fsk_proto, B
;	.line	836; meter_logger.c	break;
	BRA	_00462_DS_
_00444_DS_:
	BANKSEL	(_fsk_proto + 12)
;	.line	839; meter_logger.c	fifo_put(fsk_proto.data);
	MOVF	(_fsk_proto + 12), W, B
	MOVWF	POSTDEC1
	CALL	_fifo_put
	MOVF	POSTINC1, F
	BANKSEL	(_fsk_proto + 12)
;	.line	840; meter_logger.c	fsk_proto.data = 0;
	CLRF	(_fsk_proto + 12), B
;	.line	841; meter_logger.c	fsk_proto.state = START_BIT_WAIT;
	MOVLW	0x02
; removed redundant BANKSEL
	MOVWF	_fsk_proto, B
;	.line	843; meter_logger.c	INTCONbits.TMR0IE = 0;						
	BCF	_INTCONbits, 5
;	.line	846; meter_logger.c	break;
	BRA	_00462_DS_
_00446_DS_:
;	.line	848; meter_logger.c	switch (fsk_proto.state) {
	MOVFF	_fsk_proto, r0x00
	MOVF	r0x00, W
	MOVWF	r0x01
	MOVF	r0x01, W
	BZ	_00447_DS_
	MOVF	r0x00, W
	XORLW	0x01
	BZ	_00450_DS_
	MOVF	r0x00, W
	XORLW	0x03
	BZ	_00451_DS_
	MOVF	r0x00, W
	XORLW	0x05
	BNZ	_00785_DS_
	BRA	_00459_DS_
_00785_DS_:
	MOVF	r0x00, W
	XORLW	0x0a
	BNZ	_00787_DS_
	BRA	_00460_DS_
_00787_DS_:
	BRA	_00462_DS_
_00447_DS_:
	BANKSEL	(_fsk_proto + 13)
;	.line	851; meter_logger.c	if (fsk_proto.data_len == 8) {
	MOVF	(_fsk_proto + 13), W, B
	XORLW	0x08
	BNZ	_00449_DS_
;	.line	852; meter_logger.c	fsk_proto.state = IDLE;
	MOVLW	0x01
	BANKSEL	_fsk_proto
	MOVWF	_fsk_proto, B
_00449_DS_:
;	.line	855; meter_logger.c	DEBUG_PIN = 0;
	BCF	_PORTBbits, 2
;	.line	857; meter_logger.c	break;
	BRA	_00462_DS_
_00450_DS_:
;	.line	859; meter_logger.c	send_fsk_low();
	CALL	_send_fsk_low
;	.line	860; meter_logger.c	fsk_proto.state = START_BIT_SENT;
	MOVLW	0x03
	BANKSEL	_fsk_proto
	MOVWF	_fsk_proto, B
;	.line	862; meter_logger.c	DEBUG_PIN = 1;
	BSF	_PORTBbits, 2
;	.line	864; meter_logger.c	break;
	BRA	_00462_DS_
_00451_DS_:
;	.line	866; meter_logger.c	if (fsk_proto.data_len--) {
	MOVFF	(_fsk_proto + 13), r0x00
	DECF	r0x00, W
	MOVWF	r0x01
	MOVF	r0x01, W
	BANKSEL	(_fsk_proto + 13)
	MOVWF	(_fsk_proto + 13), B
	MOVF	r0x00, W
	BZ	_00456_DS_
;	.line	867; meter_logger.c	if (fsk_proto.data & (0x80 >> fsk_proto.data_len)) {
	MOVLW	0x80
	MOVWF	r0x00
; removed redundant BANKSEL
	MOVF	(_fsk_proto + 13), W, B
	BZ	_00790_DS_
	NEGF	WREG
	BCF	STATUS, 0
_00791_DS_:
	RRCF	r0x00, F
	ADDLW	0x01
	BNC	_00791_DS_
_00790_DS_:
	BANKSEL	(_fsk_proto + 12)
	MOVF	(_fsk_proto + 12), W, B
	ANDWF	r0x00, F
	MOVF	r0x00, W
	BZ	_00453_DS_
;	.line	868; meter_logger.c	send_fsk_high();
	CALL	_send_fsk_high
;	.line	870; meter_logger.c	DEBUG_PIN = 0;
	BCF	_PORTBbits, 2
	BRA	_00456_DS_
_00453_DS_:
;	.line	874; meter_logger.c	send_fsk_low();
	CALL	_send_fsk_low
;	.line	876; meter_logger.c	DEBUG_PIN = 1;
	BSF	_PORTBbits, 2
_00456_DS_:
	BANKSEL	(_fsk_proto + 13)
;	.line	880; meter_logger.c	if (fsk_proto.data_len == 0) {
	MOVF	(_fsk_proto + 13), W, B
	BNZ	_00462_DS_
;	.line	881; meter_logger.c	fsk_proto.state = DATA_SENT;
	MOVLW	0x05
; removed redundant BANKSEL
	MOVWF	_fsk_proto, B
;	.line	883; meter_logger.c	break;
	BRA	_00462_DS_
_00459_DS_:
;	.line	885; meter_logger.c	send_fsk_high();
	CALL	_send_fsk_high
;	.line	886; meter_logger.c	fsk_proto.state = STOP_BIT_SENT;
	MOVLW	0x0a
	BANKSEL	_fsk_proto
	MOVWF	_fsk_proto, B
;	.line	888; meter_logger.c	DEBUG_PIN = 0;
	BCF	_PORTBbits, 2
;	.line	890; meter_logger.c	break;
	BRA	_00462_DS_
_00460_DS_:
;	.line	892; meter_logger.c	send_fsk_high();
	CALL	_send_fsk_high
	BANKSEL	_fsk_proto
;	.line	893; meter_logger.c	fsk_proto.state = INIT_STATE;
	CLRF	_fsk_proto, B
;	.line	895; meter_logger.c	DEBUG_PIN = 0;
	BCF	_PORTBbits, 2
_00462_DS_:
;	.line	902; meter_logger.c	INTCONbits.TMR0IF = 0;
	BCF	_INTCONbits, 2
_00464_DS_:
;	.line	905; meter_logger.c	if (PIR2bits.CMIF && PIE2bits.CMIE) {
	BTFSS	_PIR2bits, 6
	BRA	_00483_DS_
	BTFSS	_PIE2bits, 6
	BRA	_00483_DS_
;	.line	907; meter_logger.c	if (CMCONbits.C1OUT) {		// rising edge
	BTFSS	_CMCONbits, 6
	BRA	_00478_DS_
;	.line	908; meter_logger.c	timer_0 = (unsigned int)(TMR0L) | ((unsigned int)(TMR0H) << 8);
	MOVFF	_TMR0L, r0x00
	CLRF	r0x01
	MOVFF	_TMR0H, r0x02
	CLRF	r0x03
	MOVF	r0x02, W
	MOVWF	r0x05
	CLRF	r0x04
	MOVF	r0x04, W
	IORWF	r0x00, W
	BANKSEL	_timer_0
	MOVWF	_timer_0, B
	MOVF	r0x05, W
	IORWF	r0x01, W
; removed redundant BANKSEL
	MOVWF	(_timer_0 + 1), B
;	.line	913; meter_logger.c	DEBUG_PIN = 1;
	BSF	_PORTBbits, 2
	BANKSEL	_last_timer_0
;	.line	915; meter_logger.c	fsk_proto.diff = timer_0 - last_timer_0;
	MOVF	_last_timer_0, W, B
	BANKSEL	_timer_0
	SUBWF	_timer_0, W, B
	MOVWF	r0x00
	BANKSEL	(_last_timer_0 + 1)
	MOVF	(_last_timer_0 + 1), W, B
	BANKSEL	(_timer_0 + 1)
	SUBWFB	(_timer_0 + 1), W, B
	MOVWF	r0x01
	MOVF	r0x00, W
	BANKSEL	(_fsk_proto + 1)
	MOVWF	(_fsk_proto + 1), B
	MOVF	r0x01, W
; removed redundant BANKSEL
	MOVWF	(_fsk_proto + 2), B
;	.line	916; meter_logger.c	last_timer_0 = timer_0;
	MOVFF	_timer_0, _last_timer_0
	MOVFF	(_timer_0 + 1), (_last_timer_0 + 1)
;	.line	918; meter_logger.c	if ((fsk_proto.diff > 340) && (fsk_proto.diff < 476)) {
	MOVLW	0x01
; removed redundant BANKSEL
	SUBWF	(_fsk_proto + 2), W, B
	BNZ	_00793_DS_
	MOVLW	0x55
; removed redundant BANKSEL
	SUBWF	(_fsk_proto + 1), W, B
_00793_DS_:
	BNC	_00474_DS_
	MOVLW	0x01
	BANKSEL	(_fsk_proto + 2)
	SUBWF	(_fsk_proto + 2), W, B
	BNZ	_00794_DS_
	MOVLW	0xdc
; removed redundant BANKSEL
	SUBWF	(_fsk_proto + 1), W, B
_00794_DS_:
	BC	_00474_DS_
	BANKSEL	(_fsk_proto + 1)
;	.line	919; meter_logger.c	fsk_proto.low_count += fsk_proto.diff;
	MOVF	(_fsk_proto + 1), W, B
; removed redundant BANKSEL
	ADDWF	(_fsk_proto + 5), W, B
	MOVWF	r0x00
; removed redundant BANKSEL
	MOVF	(_fsk_proto + 2), W, B
; removed redundant BANKSEL
	ADDWFC	(_fsk_proto + 6), W, B
	MOVWF	r0x01
	MOVF	r0x00, W
; removed redundant BANKSEL
	MOVWF	(_fsk_proto + 5), B
	MOVF	r0x01, W
; removed redundant BANKSEL
	MOVWF	(_fsk_proto + 6), B
; removed redundant BANKSEL
;	.line	920; meter_logger.c	if (fsk_proto.state == START_BIT_WAIT) {
	MOVF	_fsk_proto, W, B
	XORLW	0x02
	BNZ	_00479_DS_
;	.line	921; meter_logger.c	if (fsk_proto.low_count >= 800) {								// start bit received
	MOVLW	0x03
	BANKSEL	(_fsk_proto + 6)
	SUBWF	(_fsk_proto + 6), W, B
	BNZ	_00797_DS_
	MOVLW	0x20
; removed redundant BANKSEL
	SUBWF	(_fsk_proto + 5), W, B
_00797_DS_:
	BNC	_00479_DS_
	BANKSEL	(_timer0_reload + 1)
;	.line	923; meter_logger.c	TMR0H = (unsigned char)(timer0_reload >> 8);
	MOVF	(_timer0_reload + 1), W, B
	MOVWF	r0x00
	CLRF	r0x01
	MOVF	r0x00, W
	MOVWF	_TMR0H
; removed redundant BANKSEL
;	.line	924; meter_logger.c	TMR0L = (unsigned char)timer0_reload;
	MOVF	_timer0_reload, W, B
	MOVWF	_TMR0L
	BANKSEL	(_fsk_proto + 5)
;	.line	925; meter_logger.c	fsk_proto.low_count = 0;
	CLRF	(_fsk_proto + 5), B
; removed redundant BANKSEL
	CLRF	(_fsk_proto + 6), B
; removed redundant BANKSEL
;	.line	926; meter_logger.c	fsk_proto.high_count = 0;
	CLRF	(_fsk_proto + 7), B
; removed redundant BANKSEL
	CLRF	(_fsk_proto + 8), B
; removed redundant BANKSEL
;	.line	928; meter_logger.c	fsk_proto.data_len = 0;
	CLRF	(_fsk_proto + 13), B
; removed redundant BANKSEL
;	.line	929; meter_logger.c	fsk_proto.data = 0;
	CLRF	(_fsk_proto + 12), B
;	.line	930; meter_logger.c	fsk_proto.state = DATA_WAIT;
	MOVLW	0x04
; removed redundant BANKSEL
	MOVWF	_fsk_proto, B
;	.line	931; meter_logger.c	INTCONbits.TMR0IF = 0;		// clear flag so it dont enter isr now
	BCF	_INTCONbits, 2
;	.line	932; meter_logger.c	INTCONbits.TMR0IE = 1;		// Enable TMR0 Interrupt
	BSF	_INTCONbits, 5
	BRA	_00479_DS_
_00474_DS_:
	BANKSEL	_fsk_proto
;	.line	938; meter_logger.c	if (fsk_proto.state == START_BIT_WAIT) {
	MOVF	_fsk_proto, W, B
	XORLW	0x02
	BNZ	_00471_DS_
_00799_DS_:
	BANKSEL	(_fsk_proto + 5)
;	.line	939; meter_logger.c	fsk_proto.low_count = 0;
	CLRF	(_fsk_proto + 5), B
; removed redundant BANKSEL
	CLRF	(_fsk_proto + 6), B
; removed redundant BANKSEL
;	.line	940; meter_logger.c	fsk_proto.high_count = 0;
	CLRF	(_fsk_proto + 7), B
; removed redundant BANKSEL
	CLRF	(_fsk_proto + 8), B
	BRA	_00479_DS_
_00471_DS_:
	BANKSEL	(_fsk_proto + 1)
;	.line	943; meter_logger.c	fsk_proto.high_count += fsk_proto.diff;
	MOVF	(_fsk_proto + 1), W, B
; removed redundant BANKSEL
	ADDWF	(_fsk_proto + 7), W, B
	MOVWF	r0x00
; removed redundant BANKSEL
	MOVF	(_fsk_proto + 2), W, B
; removed redundant BANKSEL
	ADDWFC	(_fsk_proto + 8), W, B
	MOVWF	r0x01
	MOVF	r0x00, W
; removed redundant BANKSEL
	MOVWF	(_fsk_proto + 7), B
	MOVF	r0x01, W
; removed redundant BANKSEL
	MOVWF	(_fsk_proto + 8), B
	BRA	_00479_DS_
_00478_DS_:
;	.line	949; meter_logger.c	DEBUG_PIN = 0;
	BCF	_PORTBbits, 2
_00479_DS_:
;	.line	953; meter_logger.c	PIR2bits.CMIF = 0;
	BCF	_PIR2bits, 6
_00483_DS_:
	MOVFF	PREINC1, r0x05
	MOVFF	PREINC1, r0x04
	MOVFF	PREINC1, r0x03
	MOVFF	PREINC1, r0x02
	MOVFF	PREINC1, r0x01
	MOVFF	PREINC1, r0x00
	MOVFF	PREINC1, FSR2L
	MOVFF	PREINC1, PCLATU
	MOVFF	PREINC1, PCLATH
	MOVFF	PREINC1, FSR0H
	MOVFF	PREINC1, FSR0L
	MOVFF	PREINC1, PRODH
	MOVFF	PREINC1, PRODL
	MOVF	PREINC1, W
	MOVFF	PREINC1, BSR
	MOVFF	PREINC1, STATUS
	RETFIE	

; ; Starting pCode block
___str_0:
	DB	0x0a, 0x0d, 0x4d, 0x65, 0x74, 0x65, 0x72, 0x4c, 0x6f, 0x67, 0x67, 0x65
	DB	0x72, 0x2e, 0x2e, 0x2e, 0x20, 0x73, 0x65, 0x72, 0x69, 0x61, 0x6c, 0x20
	DB	0x77, 0x6f, 0x72, 0x6b, 0x69, 0x6e, 0x67, 0x0a, 0x0d, 0x00
; ; Starting pCode block
___str_1:
	DB	0x50, 0x72, 0x6f, 0x63, 0x65, 0x73, 0x73, 0x6f, 0x72, 0x3a, 0x20, 0x70
	DB	0x69, 0x63, 0x31, 0x38, 0x66, 0x32, 0x35, 0x35, 0x30, 0x0a, 0x0d, 0x00
; ; Starting pCode block
___str_2:
	DB	0x50, 0x72, 0x6f, 0x63, 0x65, 0x73, 0x73, 0x6f, 0x72, 0x3a, 0x20, 0x70
	DB	0x69, 0x63, 0x31, 0x38, 0x66, 0x32, 0x35, 0x35, 0x33, 0x0a, 0x0d, 0x00
; ; Starting pCode block
___str_3:
	DB	0x50, 0x72, 0x6f, 0x63, 0x65, 0x73, 0x73, 0x6f, 0x72, 0x3a, 0x20, 0x75
	DB	0x6e, 0x73, 0x75, 0x70, 0x70, 0x6f, 0x72, 0x74, 0x65, 0x64, 0x2c, 0x20
	DB	0x64, 0x65, 0x76, 0x69, 0x63, 0x65, 0x20, 0x69, 0x64, 0x3a, 0x20, 0x30
	DB	0x78, 0x25, 0x30, 0x34, 0x78, 0x0a, 0x0d, 0x00
; ; Starting pCode block
___str_4:
	DB	0x0a, 0x0d, 0x70, 0x72, 0x65, 0x73, 0x73, 0x20, 0x70, 0x72, 0x69, 0x6e
	DB	0x74, 0x20, 0x6f, 0x6e, 0x20, 0x74, 0x65, 0x73, 0x74, 0x6f, 0x0a, 0x0d
	DB	0x00
; ; Starting pCode block
___str_5:
	DB	0x0a, 0x0d, 0x64, 0x6f, 0x6e, 0x65, 0x20, 0x72, 0x65, 0x63, 0x65, 0x69
	DB	0x76, 0x69, 0x6e, 0x67, 0x20, 0x2d, 0x20, 0x73, 0x65, 0x6e, 0x64, 0x69
	DB	0x6e, 0x67, 0x20, 0x76, 0x69, 0x61, 0x20, 0x73, 0x65, 0x72, 0x69, 0x61
	DB	0x6c, 0x2f, 0x66, 0x73, 0x6b, 0x0a, 0x0d, 0x00
; ; Starting pCode block
___str_6:
	DB	0x25, 0x64, 0x20, 0x00
; ; Starting pCode block
___str_7:
	DB	0x0a, 0x0d, 0x77, 0x61, 0x69, 0x74, 0x69, 0x6e, 0x67, 0x20, 0x66, 0x6f
	DB	0x72, 0x20, 0x6e, 0x65, 0x77, 0x20, 0x63, 0x6f, 0x6d, 0x6d, 0x61, 0x6e
	DB	0x64, 0x0a, 0x0d, 0x00
; ; Starting pCode block
___str_8:
	DB	0x0a, 0x0d, 0x65, 0x63, 0x68, 0x6f, 0x20, 0x74, 0x65, 0x73, 0x74, 0x20
	DB	0x2d, 0x20, 0x73, 0x65, 0x6e, 0x64, 0x20, 0x73, 0x6f, 0x6d, 0x65, 0x20
	DB	0x64, 0x61, 0x74, 0x61, 0x0a, 0x0d, 0x00
; ; Starting pCode block
___str_9:
	DB	0x0a, 0x0d, 0x6b, 0x61, 0x6d, 0x73, 0x74, 0x72, 0x75, 0x70, 0x20, 0x2d
	DB	0x20, 0x73, 0x65, 0x6e, 0x64, 0x20, 0x6b, 0x6d, 0x70, 0x20, 0x66, 0x72
	DB	0x61, 0x6d, 0x65, 0x20, 0x64, 0x61, 0x74, 0x61, 0x0a, 0x0d, 0x00
; ; Starting pCode block
___str_10:
	DB	0x0a, 0x0d, 0x6b, 0x61, 0x6d, 0x73, 0x74, 0x72, 0x75, 0x70, 0x20, 0x2d
	DB	0x20, 0x6b, 0x6d, 0x70, 0x20, 0x66, 0x72, 0x61, 0x6d, 0x65, 0x20, 0x72
	DB	0x65, 0x63, 0x65, 0x69, 0x76, 0x65, 0x64, 0x3a, 0x0a, 0x0d, 0x00
; ; Starting pCode block
___str_11:
	DB	0x0a, 0x0d, 0x6b, 0x61, 0x6d, 0x73, 0x74, 0x72, 0x75, 0x70, 0x20, 0x2d
	DB	0x20, 0x6b, 0x6d, 0x70, 0x20, 0x72, 0x65, 0x70, 0x6c, 0x79, 0x20, 0x72
	DB	0x65, 0x63, 0x65, 0x69, 0x76, 0x65, 0x64, 0x3a, 0x0a, 0x0d, 0x00
; ; Starting pCode block
___str_12:
	DB	0x0a, 0x0d, 0x6e, 0x6f, 0x20, 0x72, 0x65, 0x70, 0x6c, 0x79, 0x20, 0x66
	DB	0x72, 0x6f, 0x6d, 0x20, 0x6d, 0x65, 0x74, 0x65, 0x72, 0x0a, 0x0d, 0x00
; ; Starting pCode block
___str_13:
	DB	0x0a, 0x0d, 0x6b, 0x61, 0x6d, 0x73, 0x74, 0x72, 0x75, 0x70, 0x20, 0x2d
	DB	0x20, 0x73, 0x65, 0x6e, 0x64, 0x20, 0x49, 0x45, 0x43, 0x36, 0x31, 0x31
	DB	0x30, 0x37, 0x20, 0x66, 0x72, 0x61, 0x6d, 0x65, 0x20, 0x64, 0x61, 0x74
	DB	0x61, 0x0a, 0x0d, 0x00
; ; Starting pCode block
___str_14:
	DB	0x0a, 0x0d, 0x6b, 0x61, 0x6d, 0x73, 0x74, 0x72, 0x75, 0x70, 0x20, 0x2d
	DB	0x20, 0x49, 0x45, 0x43, 0x36, 0x31, 0x31, 0x30, 0x37, 0x20, 0x66, 0x72
	DB	0x61, 0x6d, 0x65, 0x20, 0x72, 0x65, 0x63, 0x65, 0x69, 0x76, 0x65, 0x64
	DB	0x3a, 0x0a, 0x0d, 0x00
; ; Starting pCode block
___str_15:
	DB	0x0a, 0x0d, 0x6b, 0x61, 0x6d, 0x73, 0x74, 0x72, 0x75, 0x70, 0x20, 0x2d
	DB	0x20, 0x49, 0x45, 0x43, 0x36, 0x31, 0x31, 0x30, 0x37, 0x20, 0x72, 0x65
	DB	0x70, 0x6c, 0x79, 0x20, 0x72, 0x65, 0x63, 0x65, 0x69, 0x76, 0x65, 0x64
	DB	0x3a, 0x0a, 0x0d, 0x00
; ; Starting pCode block
___str_16:
	DB	0x42, 0x61, 0x74, 0x74, 0x65, 0x72, 0x79, 0x3a, 0x20, 0x25, 0x64, 0x6d
	DB	0x56, 0x0a, 0x0d, 0x00


; Statistics:
; code size:	15770 (0x3d9a) bytes (12.03%)
;           	 7885 (0x1ecd) words
; udata size:	 1198 (0x04ae) bytes (66.85%)
; access size:	   14 (0x000e) bytes


	end
